libcruft.so.0 liboctave0 #MINVER#
 _ZTI26octave_execution_exception@Base 3.4.3
 _ZTI26octave_interrupt_exception@Base 3.4.3
 _ZTS26octave_execution_exception@Base 3.4.3
 _ZTS26octave_interrupt_exception@Base 3.4.3
 __glob_pattern_type@Base 3.4.3
# Match symbols from Gnulib - they are not part of the API
 (regex|optional=gnulibSymbols)"^_getopt_.*@Base" 3.4.3
 acosh_@Base 3.4.3
 advnst_@Base 3.4.3
 albeta_@Base 3.4.3
 algams_@Base 3.4.3
 alngam_@Base 3.4.3
 alnrel_@Base 3.4.3
 asinh_@Base 3.4.3
 asnprintf@Base 3.4.3
 atanh_@Base 3.4.3
 base_len@Base 3.4.3
 betai_@Base 3.4.3
 c_isalnum@Base 3.4.3
 c_isalpha@Base 3.4.3
 c_isascii@Base 3.4.3
 c_isblank@Base 3.4.3
 c_iscntrl@Base 3.4.3
 c_isdigit@Base 3.4.3
 c_isgraph@Base 3.4.3
 c_islower@Base 3.4.3
 c_isprint@Base 3.4.3
 c_ispunct@Base 3.4.3
 c_isspace@Base 3.4.3
 c_isupper@Base 3.4.3
 c_isxdigit@Base 3.4.3
 c_strcasecmp@Base 3.4.3
 c_strncasecmp@Base 3.4.3
 c_tolower@Base 3.4.3
 c_toupper@Base 3.4.3
 cacai_@Base 3.4.3
 cacon_@Base 3.4.3
 cairy_@Base 3.4.3
 casyi_@Base 3.4.3
 cbesh_@Base 3.4.3
 cbesi_@Base 3.4.3
 cbesj_@Base 3.4.3
 cbesk_@Base 3.4.3
 cbesy_@Base 3.4.3
 cbinu_@Base 3.4.3
 cbiry_@Base 3.4.3
 cbknu_@Base 3.4.3
 cbuni_@Base 3.4.3
 cbunk_@Base 3.4.3
 cconv2i_@Base 3.4.3
 cconv2o_@Base 3.4.3
 cdotc3_@Base 3.4.3
 cfode_@Base 3.4.3
 chdir_long@Base 3.4.3
 ckscl_@Base 3.4.3
 cmatm3_@Base 3.4.3
 cmlri_@Base 3.4.3
 crati_@Base 3.4.3
 crcrot1_@Base 3.4.3
 crcrot2_@Base 3.4.3
 crsf2csf_@Base 3.4.3
 cs1s2_@Base 3.4.3
 csconv2i_@Base 3.4.3
 csconv2o_@Base 3.4.3
 cseri_@Base 3.4.3
 csevl_@Base 3.4.3
 cshch_@Base 3.4.3
 cuchk_@Base 3.4.3
 cunhj_@Base 3.4.3
 cuni1_@Base 3.4.3
 cuni2_@Base 3.4.3
 cunik_@Base 3.4.3
 cunk1_@Base 3.4.3
 cunk2_@Base 3.4.3
 cuoik_@Base 3.4.3
 current_context@Base 3.4.3
 current_liboctave_error_handler@Base 3.4.3
 current_liboctave_error_with_id_handler@Base 3.4.3
 current_liboctave_warning_handler@Base 3.4.3
 current_liboctave_warning_with_id_handler@Base 3.4.3
 cwrsk_@Base 3.4.3
 d1mach_@Base 3.4.3
 d9gmit_@Base 3.4.3
 d9lgic_@Base 3.4.3
 d9lgit_@Base 3.4.3
 d9lgmc_@Base 3.4.3
 dacosh_@Base 3.4.3
 dasinh_@Base 3.4.3
 datanh_@Base 3.4.3
 datv_@Base 3.4.3
 dbetai_@Base 3.4.3
 dcnst0_@Base 3.4.3
 dcnstr_@Base 3.4.3
 dconv2i_@Base 3.4.3
 dconv2o_@Base 3.4.3
 dcsevl_@Base 3.4.3
 ddaini_@Base 3.4.3
 ddajac_@Base 3.4.3
 ddanrm_@Base 3.4.3
 ddasic_@Base 3.4.3
 ddasid_@Base 3.4.3
 ddasik_@Base 3.4.3
 ddaslv_@Base 3.4.3
 ddaspk_@Base 3.4.3
 ddasrt_@Base 3.4.3
 ddassl_@Base 3.4.3
 ddastp_@Base 3.4.3
 ddatrp_@Base 3.4.3
 ddawts_@Base 3.4.3
 ddot3_@Base 3.4.3
 ddstp_@Base 3.4.3
 ddwnrm_@Base 3.4.3
 derf_@Base 3.4.3
 derfc_@Base 3.4.3
 dfnrmd_@Base 3.4.3
 dfnrmk_@Base 3.4.3
 dgami_@Base 3.4.3
 dgamit_@Base 3.4.3
 dgamlm_@Base 3.4.3
 dgamln_@Base 3.4.3
 dgamma_@Base 3.4.3
 dgamr_@Base 3.4.3
 dgenexp_@Base 3.4.3
 dgengam_@Base 3.4.3
 dgennor_@Base 3.4.3
 dgenunf_@Base 3.4.3
 dhels_@Base 3.4.3
 dheqr_@Base 3.4.3
 dignpoi_@Base 3.4.3
 dinvwt_@Base 3.4.3
 dir_len@Base 3.4.3
 dlbeta_@Base 3.4.3
 dlgams_@Base 3.4.3
 dlinsd_@Base 3.4.3
 dlinsk_@Base 3.4.3
 dlngam_@Base 3.4.3
 dlnrel_@Base 3.4.3
 dlsode_@Base 3.4.3
 dmatd_@Base 3.4.3
 dmatm3_@Base 3.4.3
 dnedd_@Base 3.4.3
 dnedk_@Base 3.4.3
 dnsd_@Base 3.4.3
 dnsid_@Base 3.4.3
 dnsik_@Base 3.4.3
 dnsk_@Base 3.4.3
 dorth_@Base 3.4.3
 dpchim_@Base 3.4.3
 dpchst_@Base 3.4.3
 dqagi_@Base 3.4.3
 dqagie_@Base 3.4.3
 dqagp_@Base 3.4.3
 dqagpe_@Base 3.4.3
 dqelg_@Base 3.4.3
 dqk15i_@Base 3.4.3
 dqk21_@Base 3.4.3
 dqpsrt_@Base 3.4.3
 drchek_@Base 3.4.3
 droots_@Base 3.4.3
 dslvd_@Base 3.4.3
 dslvk_@Base 3.4.3
 dspigm_@Base 3.4.3
 dsubsp_@Base 3.4.3
 dup_cloexec@Base 3.4.3
 dup_safer@Base 3.4.3
 dyypnw_@Base 3.4.3
 erf_@Base 3.4.3
 erfc_@Base 3.4.3
 ewset_@Base 3.4.3
 exchqz_@Base 3.4.3
 exit_failure@Base 3.4.3
 f77_exception_encountered@Base 3.4.3
 fd_safer@Base 3.4.3
 fdump_@Base 3.4.3
 filemodestring@Base 3.4.3
 fpurge@Base 3.4.3
 free_cwd@Base 3.4.3
 freea@Base 3.4.3
 gami_@Base 3.4.3
 gamit_@Base 3.4.3
 gamlim_@Base 3.4.3
 gamln_@Base 3.4.3
 gamma_@Base 3.4.3
 gamr_@Base 3.4.3
 gen_tempname@Base 3.4.3
 genbet_@Base 3.4.3
 genchi_@Base 3.4.3
 genexp_@Base 3.4.3
 genf_@Base 3.4.3
 gengam_@Base 3.4.3
 genmn_@Base 3.4.3
 genmul_@Base 3.4.3
 gennch_@Base 3.4.3
 gennf_@Base 3.4.3
 gennor_@Base 3.4.3
 genprm_@Base 3.4.3
 genunf_@Base 3.4.3
 getcgn_@Base 3.4.3
 getsd_@Base 3.4.3
 gl_sockets_cleanup@Base 3.4.3
 gl_sockets_startup@Base 3.4.3
 globe_@Base 3.4.3
 i1mach_@Base 3.4.3
 ignbin_@Base 3.4.3
 ignlgi_@Base 3.4.3
 ignnbn_@Base 3.4.3
 ignpoi_@Base 3.4.3
 ignuin_@Base 3.4.3
 initds_@Base 3.4.3
 initgn_@Base 3.4.3
 inits_@Base 3.4.3
 inrgcm_@Base 3.4.3
 intdy_@Base 3.4.3
 ixsav_@Base 3.4.3
 j4save_@Base 3.4.3
 last_component@Base 3.4.3
 lennob_@Base 3.4.3
 liboctave_fatal@Base 3.4.3
 liboctave_fatal_with_id@Base 3.4.3
 liboctave_warning@Base 3.4.3
 liboctave_warning_with_id@Base 3.4.3
 locale_charset@Base 3.4.3
 ls0001_@Base 3.4.3
 md5_buffer@Base 3.4.3
 md5_finish_ctx@Base 3.4.3
 md5_init_ctx@Base 3.4.3
 md5_process_block@Base 3.4.3
 md5_process_bytes@Base 3.4.3
 md5_read_ctx@Base 3.4.3
 md5_stream@Base 3.4.3
 mdir_name@Base 3.4.3
 mfile_name_concat@Base 3.4.3
 mltmod_@Base 3.4.3
 mmalloca@Base 3.4.3
 nstrftime@Base 3.4.3
 num_processors@Base 3.4.3
 octave_bad_alloc_hook@Base 3.4.3
 octave_exception_state@Base 3.4.3
 octave_handle_signal@Base 3.4.3
 octave_interrupt_hook@Base 3.4.3
 octave_interrupt_immediately@Base 3.4.3
 octave_interrupt_state@Base 3.4.3
 octave_jump_to_enclosing_context@Base 3.4.3
 octave_restore_current_context@Base 3.4.3
 octave_restore_signal_mask@Base 3.4.3
 octave_rethrow_exception@Base 3.4.3
 octave_save_current_context@Base 3.4.3
 octave_save_signal_mask@Base 3.4.3
 octave_signal_caught@Base 3.4.3
 octave_signal_hook@Base 3.4.3
 octave_throw_bad_alloc@Base 3.4.3
 octave_throw_execution_exception@Base 3.4.3
 octave_throw_interrupt_exception@Base 3.4.3
 openat_proc_name@Base 3.4.3
 openat_restore_fail@Base 3.4.3
 openat_save_fail@Base 3.4.3
# Match symbols from Gnulib - they are not part of the API
 (optional=gnulibSymbols)path_search@Base 3.4.3
 pchim_@Base 3.4.3
 pchst_@Base 3.4.3
 phrtsd_@Base 3.4.3
 pipe_safer@Base 3.4.3
 prepj_@Base 3.4.3
 printf_fetchargs@Base 3.4.3
 printf_parse@Base 3.4.3
 program_name@Base 3.4.3
 qagi_@Base 3.4.3
 qagie_@Base 3.4.3
 qagp_@Base 3.4.3
 qagpe_@Base 3.4.3
 qelg_@Base 3.4.3
 qk15i_@Base 3.4.3
 qk21_@Base 3.4.3
 qpsrt_@Base 3.4.3
 qrgnin_@Base 3.4.3
 qrgnsn_@Base 3.4.3
 r1mach_@Base 3.4.3
 r9gmit_@Base 3.4.3
 r9lgic_@Base 3.4.3
 r9lgit_@Base 3.4.3
 r9lgmc_@Base 3.4.3
 ranf_@Base 3.4.3
 restore_cwd@Base 3.4.3
 rgnqsd_@Base 3.4.3
# Match symbols from Gnulib - they are not part of the API
 (regex|optional=gnulibSymbols)"^rpl_.*@Base" 3.4.3
 save_cwd@Base 3.4.3
 scfode_@Base 3.4.3
 sconv2i_@Base 3.4.3
 sconv2o_@Base 3.4.3
 sdot3_@Base 3.4.3
 set_cloexec_flag@Base 3.4.3
 set_liboctave_error_handler@Base 3.4.3
 set_liboctave_error_with_id_handler@Base 3.4.3
 set_liboctave_warning_handler@Base 3.4.3
 set_liboctave_warning_with_id_handler@Base 3.4.3
 set_program_name@Base 3.4.3
 setall_@Base 3.4.3
 setant_@Base 3.4.3
 setcgn_@Base 3.4.3
 setgmn_@Base 3.4.3
 setsd_@Base 3.4.3
 sewset_@Base 3.4.3
 sexchqz_@Base 3.4.3
 sexpo_@Base 3.4.3
 sgamma_@Base 3.4.3
 sintdy_@Base 3.4.3
 sls001_@Base 3.4.3
 slsode_@Base 3.4.3
 smatm3_@Base 3.4.3
 snorm_@Base 3.4.3
 solsy_@Base 3.4.3
 sprepj_@Base 3.4.3
 ssolsy_@Base 3.4.3
 sstode_@Base 3.4.3
 ssubsp_@Base 3.4.3
 stode_@Base 3.4.3
 strip_trailing_slashes@Base 3.4.3
 strmode@Base 3.4.3
 strnlen1@Base 3.4.3
 svnorm_@Base 3.4.3
 vasnprintf@Base 3.4.3
 vnorm_@Base 3.4.3
 xacosh_@Base 3.4.3
 xasinh_@Base 3.4.3
 xatanh_@Base 3.4.3
 xbetai_@Base 3.4.3
 xcdotc_@Base 3.4.3
 xcdotu_@Base 3.4.3
 xclange_@Base 3.4.3
 xdacosh_@Base 3.4.3
 xdasinh_@Base 3.4.3
 xdatanh_@Base 3.4.3
 xdbetai_@Base 3.4.3
 xddot_@Base 3.4.3
 xderf_@Base 3.4.3
 xderfc_@Base 3.4.3
 xdgami_@Base 3.4.3
 xdgamit_@Base 3.4.3
 xdgamma_@Base 3.4.3
 xdlamch_@Base 3.4.3
 xdlange_@Base 3.4.3
 xdnrm2_@Base 3.4.3
 xdznrm2_@Base 3.4.3
 xerbla_@Base 3.4.3
 xerclr_@Base 3.4.3
 xercnt_@Base 3.4.3
 xerf_@Base 3.4.3
 xerfc_@Base 3.4.3
 xerhlt_@Base 3.4.3
 xermsg_@Base 3.4.3
 xerprn_@Base 3.4.3
 xerror_@Base 3.4.3
 xerrwd_@Base 3.4.3
 xersve_@Base 3.4.3
 xgamma_@Base 3.4.3
 xgammainc_@Base 3.4.3
 xgetf_@Base 3.4.3
 xgetua_@Base 3.4.3
 xilaenv_@Base 3.4.3
 xscnrm2_@Base 3.4.3
 xsdot_@Base 3.4.3
 xsetf_@Base 3.4.3
 xsetua_@Base 3.4.3
 xsgammainc_@Base 3.4.3
 xslamch_@Base 3.4.3
 xslange_@Base 3.4.3
 xsnrm2_@Base 3.4.3
 xstopx_@Base 3.4.3
 xzabs_@Base 3.4.3
 xzdotc_@Base 3.4.3
 xzdotu_@Base 3.4.3
 xzexp_@Base 3.4.3
 xzlange_@Base 3.4.3
 xzlog_@Base 3.4.3
 xzsqrt_@Base 3.4.3
 zacai_@Base 3.4.3
 zacon_@Base 3.4.3
 zairy_@Base 3.4.3
 zasyi_@Base 3.4.3
 zbesh_@Base 3.4.3
 zbesi_@Base 3.4.3
 zbesj_@Base 3.4.3
 zbesk_@Base 3.4.3
 zbesy_@Base 3.4.3
 zbinu_@Base 3.4.3
 zbiry_@Base 3.4.3
 zbknu_@Base 3.4.3
 zbuni_@Base 3.4.3
 zbunk_@Base 3.4.3
 zconv2i_@Base 3.4.3
 zconv2o_@Base 3.4.3
 zdconv2i_@Base 3.4.3
 zdconv2o_@Base 3.4.3
 zdiv_@Base 3.4.3
 zdotc3_@Base 3.4.3
 zkscl_@Base 3.4.3
 zmatm3_@Base 3.4.3
 zmlri_@Base 3.4.3
 zmlt_@Base 3.4.3
 zrati_@Base 3.4.3
 zrcrot1_@Base 3.4.3
 zrcrot2_@Base 3.4.3
 zrsf2csf_@Base 3.4.3
 zs1s2_@Base 3.4.3
 zseri_@Base 3.4.3
 zshch_@Base 3.4.3
 zuchk_@Base 3.4.3
 zunhj_@Base 3.4.3
 zuni1_@Base 3.4.3
 zuni2_@Base 3.4.3
 zunik_@Base 3.4.3
 zunk1_@Base 3.4.3
 zunk2_@Base 3.4.3
 zuoik_@Base 3.4.3
 zwrsk_@Base 3.4.3
liboctave.so.0 liboctave0 #MINVER#
# not part of API (not in any .h file)
 (c++|regex|optional=notPartOfAPI)"mex::malloc\(.*\)@Base" 3.4.3
 _Z10bsxfun_addRK10intNDArrayI10octave_intIaEES4_@Base 3.4.3
 _Z10bsxfun_addRK10intNDArrayI10octave_intIhEES4_@Base 3.4.3
 _Z10bsxfun_addRK10intNDArrayI10octave_intIiEES4_@Base 3.4.3
 _Z10bsxfun_addRK10intNDArrayI10octave_intIjEES4_@Base 3.4.3
 _Z10bsxfun_addRK10intNDArrayI10octave_intIsEES4_@Base 3.4.3
 _Z10bsxfun_addRK10intNDArrayI10octave_intItEES4_@Base 3.4.3
 _Z10bsxfun_addRK12FloatNDArrayS1_@Base 3.4.3
 _Z10bsxfun_addRK14ComplexNDArrayS1_@Base 3.4.3
 _Z10bsxfun_addRK19FloatComplexNDArrayS1_@Base 3.4.3
 _Z10bsxfun_addRK7NDArrayS1_@Base 3.4.3
 _Z10bsxfun_andRK11boolNDArrayS1_@Base 3.4.3
 _Z10bsxfun_divRK10intNDArrayI10octave_intIaEES4_@Base 3.4.3
 _Z10bsxfun_divRK10intNDArrayI10octave_intIhEES4_@Base 3.4.3
 _Z10bsxfun_divRK10intNDArrayI10octave_intIiEES4_@Base 3.4.3
 _Z10bsxfun_divRK10intNDArrayI10octave_intIjEES4_@Base 3.4.3
 _Z10bsxfun_divRK10intNDArrayI10octave_intIsEES4_@Base 3.4.3
 _Z10bsxfun_divRK10intNDArrayI10octave_intItEES4_@Base 3.4.3
 _Z10bsxfun_divRK12FloatNDArrayS1_@Base 3.4.3
 _Z10bsxfun_divRK14ComplexNDArrayS1_@Base 3.4.3
 _Z10bsxfun_divRK19FloatComplexNDArrayS1_@Base 3.4.3
 _Z10bsxfun_divRK7NDArrayS1_@Base 3.4.3
 _Z10bsxfun_maxRK10intNDArrayI10octave_intIaEES4_@Base 3.4.3
 _Z10bsxfun_maxRK10intNDArrayI10octave_intIhEES4_@Base 3.4.3
 _Z10bsxfun_maxRK10intNDArrayI10octave_intIiEES4_@Base 3.4.3
 _Z10bsxfun_maxRK10intNDArrayI10octave_intIjEES4_@Base 3.4.3
 _Z10bsxfun_maxRK10intNDArrayI10octave_intIsEES4_@Base 3.4.3
 _Z10bsxfun_maxRK10intNDArrayI10octave_intItEES4_@Base 3.4.3
 _Z10bsxfun_maxRK12FloatNDArrayS1_@Base 3.4.3
 _Z10bsxfun_maxRK14ComplexNDArrayS1_@Base 3.4.3
 _Z10bsxfun_maxRK19FloatComplexNDArrayS1_@Base 3.4.3
 _Z10bsxfun_maxRK7NDArrayS1_@Base 3.4.3
 _Z10bsxfun_minRK10intNDArrayI10octave_intIaEES4_@Base 3.4.3
 _Z10bsxfun_minRK10intNDArrayI10octave_intIhEES4_@Base 3.4.3
 _Z10bsxfun_minRK10intNDArrayI10octave_intIiEES4_@Base 3.4.3
 _Z10bsxfun_minRK10intNDArrayI10octave_intIjEES4_@Base 3.4.3
 _Z10bsxfun_minRK10intNDArrayI10octave_intIsEES4_@Base 3.4.3
 _Z10bsxfun_minRK10intNDArrayI10octave_intItEES4_@Base 3.4.3
 _Z10bsxfun_minRK12FloatNDArrayS1_@Base 3.4.3
 _Z10bsxfun_minRK14ComplexNDArrayS1_@Base 3.4.3
 _Z10bsxfun_minRK19FloatComplexNDArrayS1_@Base 3.4.3
 _Z10bsxfun_minRK7NDArrayS1_@Base 3.4.3
 _Z10bsxfun_mulRK10intNDArrayI10octave_intIaEES4_@Base 3.4.3
 _Z10bsxfun_mulRK10intNDArrayI10octave_intIhEES4_@Base 3.4.3
 _Z10bsxfun_mulRK10intNDArrayI10octave_intIiEES4_@Base 3.4.3
 _Z10bsxfun_mulRK10intNDArrayI10octave_intIjEES4_@Base 3.4.3
 _Z10bsxfun_mulRK10intNDArrayI10octave_intIsEES4_@Base 3.4.3
 _Z10bsxfun_mulRK10intNDArrayI10octave_intItEES4_@Base 3.4.3
 _Z10bsxfun_mulRK12FloatNDArrayS1_@Base 3.4.3
 _Z10bsxfun_mulRK14ComplexNDArrayS1_@Base 3.4.3
 _Z10bsxfun_mulRK19FloatComplexNDArrayS1_@Base 3.4.3
 _Z10bsxfun_mulRK7NDArrayS1_@Base 3.4.3
 _Z10bsxfun_powRK12FloatNDArrayS1_@Base 3.4.3
 _Z10bsxfun_powRK14ComplexNDArrayRK7NDArray@Base 3.4.3
 _Z10bsxfun_powRK14ComplexNDArrayS1_@Base 3.4.3
 _Z10bsxfun_powRK19FloatComplexNDArrayRK12FloatNDArray@Base 3.4.3
 _Z10bsxfun_powRK19FloatComplexNDArrayS1_@Base 3.4.3
 _Z10bsxfun_powRK7NDArrayS1_@Base 3.4.3
 _Z10bsxfun_subRK10intNDArrayI10octave_intIaEES4_@Base 3.4.3
 _Z10bsxfun_subRK10intNDArrayI10octave_intIhEES4_@Base 3.4.3
 _Z10bsxfun_subRK10intNDArrayI10octave_intIiEES4_@Base 3.4.3
 _Z10bsxfun_subRK10intNDArrayI10octave_intIjEES4_@Base 3.4.3
 _Z10bsxfun_subRK10intNDArrayI10octave_intIsEES4_@Base 3.4.3
 _Z10bsxfun_subRK10intNDArrayI10octave_intItEES4_@Base 3.4.3
 _Z10bsxfun_subRK12FloatNDArrayS1_@Base 3.4.3
 _Z10bsxfun_subRK14ComplexNDArrayS1_@Base 3.4.3
 _Z10bsxfun_subRK19FloatComplexNDArrayS1_@Base 3.4.3
 _Z10bsxfun_subRK7NDArrayS1_@Base 3.4.3
 _Z10get_ra_idxiRK10dim_vector@Base 3.4.3
 _Z10product_eqI10octave_intIaEER6MArrayIT_ES5_RKS4_@Base 3.4.3
 _Z10product_eqI10octave_intIhEER6MArrayIT_ES5_RKS4_@Base 3.4.3
 _Z10product_eqI10octave_intIiEER6MArrayIT_ES5_RKS4_@Base 3.4.3
 _Z10product_eqI10octave_intIjEER6MArrayIT_ES5_RKS4_@Base 3.4.3
 _Z10product_eqI10octave_intIsEER6MArrayIT_ES5_RKS4_@Base 3.4.3
 _Z10product_eqI10octave_intItEER6MArrayIT_ES5_RKS4_@Base 3.4.3
 _Z10product_eqISt7complexIdEER6MArrayIT_ES5_RKS4_@Base 3.4.3
 _Z10product_eqISt7complexIfEER6MArrayIT_ES5_RKS4_@Base 3.4.3
 _Z10product_eqIdER6MArrayIT_ES3_RKS2_@Base 3.4.3
 _Z10product_eqIfER6MArrayIT_ES3_RKS2_@Base 3.4.3
 _Z10product_eqIiER6MArrayIT_ES3_RKS2_@Base 3.4.3
 _Z10product_eqIlER6MArrayIT_ES3_RKS2_@Base 3.4.3
 _Z10product_eqIsER6MArrayIT_ES3_RKS2_@Base 3.4.3
 _Z10swap_bytesILi2EEvPVvi@Base 3.4.3
 _Z10swap_bytesILi4EEvPVvi@Base 3.4.3
 _Z10swap_bytesILi8EEvPVvi@Base 3.4.3
 _Z10xisintegerd@Base 3.4.3
 _Z10xisintegerf@Base 3.4.3
 _Z11convolve_ndISt7complexIdES1_EvPKT_RK10dim_vectorS7_PKT0_S7_S7_PS2_S7_ib@Base 3.4.3
 _Z11convolve_ndISt7complexIdEdEvPKT_RK10dim_vectorS7_PKT0_S7_S7_PS2_S7_ib@Base 3.4.3
 _Z11convolve_ndISt7complexIfES1_EvPKT_RK10dim_vectorS7_PKT0_S7_S7_PS2_S7_ib@Base 3.4.3
 _Z11convolve_ndISt7complexIfEfEvPKT_RK10dim_vectorS7_PKT0_S7_S7_PS2_S7_ib@Base 3.4.3
 _Z11convolve_ndIddEvPKT_RK10dim_vectorS5_PKT0_S5_S5_PS0_S5_ib@Base 3.4.3
 _Z11convolve_ndIffEvPKT_RK10dim_vectorS5_PKT0_S5_S5_PS0_S5_ib@Base 3.4.3
 _Z11get_elt_idxRK5ArrayI10idx_vectorERKS_IiE@Base 3.4.3
 _Z11matrix_normI11FloatMatrixS0_8FloatSVDfET2_RKT_S2_T0_T1_@Base 3.4.3
 _Z11matrix_normI12SparseMatrix6MatrixdET1_RKT_S2_T0_@Base 3.4.3
 _Z11matrix_normI13ComplexMatrixS0_10ComplexSVDdET2_RKT_S2_T0_T1_@Base 3.4.3
 _Z11matrix_normI18FloatComplexMatrixS0_15FloatComplexSVDfET2_RKT_S2_T0_T1_@Base 3.4.3
 _Z11matrix_normI19SparseComplexMatrix13ComplexMatrixdET1_RKT_S2_T0_@Base 3.4.3
 _Z11matrix_normI6MatrixS0_3SVDdET2_RKT_S2_T0_T1_@Base 3.4.3
 _Z11octave_globRK13string_vector@Base 3.4.3
 _Z11octave_linkRKSsS0_@Base 3.4.3
 _Z11octave_linkRKSsS0_RSs@Base 3.4.3
 _Z11quotient_eqI10octave_intIaEER6MArrayIT_ES5_RKS4_@Base 3.4.3
 _Z11quotient_eqI10octave_intIhEER6MArrayIT_ES5_RKS4_@Base 3.4.3
 _Z11quotient_eqI10octave_intIiEER6MArrayIT_ES5_RKS4_@Base 3.4.3
 _Z11quotient_eqI10octave_intIjEER6MArrayIT_ES5_RKS4_@Base 3.4.3
 _Z11quotient_eqI10octave_intIsEER6MArrayIT_ES5_RKS4_@Base 3.4.3
 _Z11quotient_eqI10octave_intItEER6MArrayIT_ES5_RKS4_@Base 3.4.3
 _Z11quotient_eqISt7complexIdEER6MArrayIT_ES5_RKS4_@Base 3.4.3
 _Z11quotient_eqISt7complexIfEER6MArrayIT_ES5_RKS4_@Base 3.4.3
 _Z11quotient_eqIdER6MArrayIT_ES3_RKS2_@Base 3.4.3
 _Z11quotient_eqIfER6MArrayIT_ES3_RKS2_@Base 3.4.3
 _Z11quotient_eqIiER6MArrayIT_ES3_RKS2_@Base 3.4.3
 _Z11quotient_eqIlER6MArrayIT_ES3_RKS2_@Base 3.4.3
 _Z11quotient_eqIsER6MArrayIT_ES3_RKS2_@Base 3.4.3
 _Z11read_floatsRSiPf9save_typeibN13oct_mach_info12float_formatE@Base 3.4.3
 _Z11vector_normISt7complexIdEdET0_RK6MArrayIT_ES2_@Base 3.4.3
 _Z11vector_normISt7complexIfEfET0_RK6MArrayIT_ES2_@Base 3.4.3
 _Z11vector_normIddET0_RK6MArrayIT_ES0_@Base 3.4.3
 _Z11vector_normIffET0_RK6MArrayIT_ES0_@Base 3.4.3
# template instantiation
 (c++|regex|optional=templateInstantiation)"void column_norms<.*>\(.*\)@Base" 3.4.3
# template instantiation
 (c++|regex|optional=templateInstantiation)"MArray<.*> column_norms<.*>\(.*\)@Base" 3.4.3
 _Z12do_mul_dm_smI12SparseMatrix10DiagMatrixS0_ET_RKT0_RKT1_@Base 3.4.3
 _Z12do_mul_dm_smI19SparseComplexMatrix10DiagMatrixS0_ET_RKT0_RKT1_@Base 3.4.3
 _Z12do_mul_dm_smI19SparseComplexMatrix17ComplexDiagMatrix12SparseMatrixET_RKT0_RKT1_@Base 3.4.3
 _Z12do_mul_dm_smI19SparseComplexMatrix17ComplexDiagMatrixS0_ET_RKT0_RKT1_@Base 3.4.3
 _Z12do_mul_sm_dmI12SparseMatrixS0_10DiagMatrixET_RKT0_RKT1_@Base 3.4.3
 _Z12do_mul_sm_dmI19SparseComplexMatrix12SparseMatrix17ComplexDiagMatrixET_RKT0_RKT1_@Base 3.4.3
 _Z12do_mul_sm_dmI19SparseComplexMatrixS0_10DiagMatrixET_RKT0_RKT1_@Base 3.4.3
 _Z12do_mul_sm_dmI19SparseComplexMatrixS0_17ComplexDiagMatrixET_RKT0_RKT1_@Base 3.4.3
 _Z12do_mx_red_opI10octave_intIaES1_E5ArrayIT_ERKS2_IT0_EiPFvPKS5_PS3_iiiE@Base 3.4.3
 _Z12do_mx_red_opI10octave_intIhES1_E5ArrayIT_ERKS2_IT0_EiPFvPKS5_PS3_iiiE@Base 3.4.3
 _Z12do_mx_red_opI10octave_intIiES1_E5ArrayIT_ERKS2_IT0_EiPFvPKS5_PS3_iiiE@Base 3.4.3
 _Z12do_mx_red_opI10octave_intIjES1_E5ArrayIT_ERKS2_IT0_EiPFvPKS5_PS3_iiiE@Base 3.4.3
 _Z12do_mx_red_opI10octave_intIsES1_E5ArrayIT_ERKS2_IT0_EiPFvPKS5_PS3_iiiE@Base 3.4.3
 _Z12do_mx_red_opI10octave_intItES1_E5ArrayIT_ERKS2_IT0_EiPFvPKS5_PS3_iiiE@Base 3.4.3
 _Z12do_mx_red_opISt7complexIdES0_IfEE5ArrayIT_ERKS3_IT0_EiPFvPKS6_PS4_iiiE@Base 3.4.3
 _Z12do_mx_red_opISt7complexIdES1_E5ArrayIT_ERKS2_IT0_EiPFvPKS5_PS3_iiiE@Base 3.4.3
 _Z12do_mx_red_opISt7complexIfES1_E5ArrayIT_ERKS2_IT0_EiPFvPKS5_PS3_iiiE@Base 3.4.3
 _Z12do_mx_red_opIb10octave_intIaEE5ArrayIT_ERKS2_IT0_EiPFvPKS5_PS3_iiiE@Base 3.4.3
 _Z12do_mx_red_opIb10octave_intIhEE5ArrayIT_ERKS2_IT0_EiPFvPKS5_PS3_iiiE@Base 3.4.3
 _Z12do_mx_red_opIb10octave_intIiEE5ArrayIT_ERKS2_IT0_EiPFvPKS5_PS3_iiiE@Base 3.4.3
 _Z12do_mx_red_opIb10octave_intIjEE5ArrayIT_ERKS2_IT0_EiPFvPKS5_PS3_iiiE@Base 3.4.3
 _Z12do_mx_red_opIb10octave_intIsEE5ArrayIT_ERKS2_IT0_EiPFvPKS5_PS3_iiiE@Base 3.4.3
 _Z12do_mx_red_opIb10octave_intItEE5ArrayIT_ERKS2_IT0_EiPFvPKS5_PS3_iiiE@Base 3.4.3
 _Z12do_mx_red_opIbSt7complexIdEE5ArrayIT_ERKS2_IT0_EiPFvPKS5_PS3_iiiE@Base 3.4.3
 _Z12do_mx_red_opIbSt7complexIfEE5ArrayIT_ERKS2_IT0_EiPFvPKS5_PS3_iiiE@Base 3.4.3
 _Z12do_mx_red_opIbdE5ArrayIT_ERKS0_IT0_EiPFvPKS3_PS1_iiiE@Base 3.4.3
 _Z12do_mx_red_opIbfE5ArrayIT_ERKS0_IT0_EiPFvPKS3_PS1_iiiE@Base 3.4.3
 _Z12do_mx_red_opId10octave_intIaEE5ArrayIT_ERKS2_IT0_EiPFvPKS5_PS3_iiiE@Base 3.4.3
 _Z12do_mx_red_opId10octave_intIhEE5ArrayIT_ERKS2_IT0_EiPFvPKS5_PS3_iiiE@Base 3.4.3
 _Z12do_mx_red_opId10octave_intIiEE5ArrayIT_ERKS2_IT0_EiPFvPKS5_PS3_iiiE@Base 3.4.3
 _Z12do_mx_red_opId10octave_intIjEE5ArrayIT_ERKS2_IT0_EiPFvPKS5_PS3_iiiE@Base 3.4.3
 _Z12do_mx_red_opId10octave_intIsEE5ArrayIT_ERKS2_IT0_EiPFvPKS5_PS3_iiiE@Base 3.4.3
 _Z12do_mx_red_opId10octave_intItEE5ArrayIT_ERKS2_IT0_EiPFvPKS5_PS3_iiiE@Base 3.4.3
 _Z12do_mx_red_opIdSt7complexIdEE5ArrayIT_ERKS2_IT0_EiPFvPKS5_PS3_iiiE@Base 3.4.3
 _Z12do_mx_red_opIddE5ArrayIT_ERKS0_IT0_EiPFvPKS3_PS1_iiiE@Base 3.4.3
 _Z12do_mx_red_opIdfE5ArrayIT_ERKS0_IT0_EiPFvPKS3_PS1_iiiE@Base 3.4.3
 _Z12do_mx_red_opIfSt7complexIfEE5ArrayIT_ERKS2_IT0_EiPFvPKS5_PS3_iiiE@Base 3.4.3
 _Z12do_mx_red_opIffE5ArrayIT_ERKS0_IT0_EiPFvPKS3_PS1_iiiE@Base 3.4.3
 _Z12mx_el_not_orRK10intNDArrayI10octave_intIaEERK12FloatNDArray@Base 3.4.3
 _Z12mx_el_not_orRK10intNDArrayI10octave_intIaEERK7NDArray@Base 3.4.3
 _Z12mx_el_not_orRK10intNDArrayI10octave_intIaEERKS0_IhE@Base 3.4.3
 _Z12mx_el_not_orRK10intNDArrayI10octave_intIaEERKS0_IiE@Base 3.4.3
 _Z12mx_el_not_orRK10intNDArrayI10octave_intIaEERKS0_IjE@Base 3.4.3
 _Z12mx_el_not_orRK10intNDArrayI10octave_intIaEERKS0_IsE@Base 3.4.3
 _Z12mx_el_not_orRK10intNDArrayI10octave_intIaEERKS0_ItE@Base 3.4.3
 _Z12mx_el_not_orRK10intNDArrayI10octave_intIaEERKS1_@Base 3.4.3
 _Z12mx_el_not_orRK10intNDArrayI10octave_intIaEERKS_IS0_IhEE@Base 3.4.3
 _Z12mx_el_not_orRK10intNDArrayI10octave_intIaEERKS_IS0_IiEE@Base 3.4.3
 _Z12mx_el_not_orRK10intNDArrayI10octave_intIaEERKS_IS0_IjEE@Base 3.4.3
 _Z12mx_el_not_orRK10intNDArrayI10octave_intIaEERKS_IS0_IsEE@Base 3.4.3
 _Z12mx_el_not_orRK10intNDArrayI10octave_intIaEERKS_IS0_ItEE@Base 3.4.3
 _Z12mx_el_not_orRK10intNDArrayI10octave_intIaEERKd@Base 3.4.3
 _Z12mx_el_not_orRK10intNDArrayI10octave_intIaEERKf@Base 3.4.3
 _Z12mx_el_not_orRK10intNDArrayI10octave_intIaEES4_@Base 3.4.3
 _Z12mx_el_not_orRK10intNDArrayI10octave_intIhEERK12FloatNDArray@Base 3.4.3
 _Z12mx_el_not_orRK10intNDArrayI10octave_intIhEERK7NDArray@Base 3.4.3
 _Z12mx_el_not_orRK10intNDArrayI10octave_intIhEERKS0_IaE@Base 3.4.3
 _Z12mx_el_not_orRK10intNDArrayI10octave_intIhEERKS0_IiE@Base 3.4.3
 _Z12mx_el_not_orRK10intNDArrayI10octave_intIhEERKS0_IjE@Base 3.4.3
 _Z12mx_el_not_orRK10intNDArrayI10octave_intIhEERKS0_IsE@Base 3.4.3
 _Z12mx_el_not_orRK10intNDArrayI10octave_intIhEERKS0_ItE@Base 3.4.3
 _Z12mx_el_not_orRK10intNDArrayI10octave_intIhEERKS1_@Base 3.4.3
 _Z12mx_el_not_orRK10intNDArrayI10octave_intIhEERKS_IS0_IaEE@Base 3.4.3
 _Z12mx_el_not_orRK10intNDArrayI10octave_intIhEERKS_IS0_IiEE@Base 3.4.3
 _Z12mx_el_not_orRK10intNDArrayI10octave_intIhEERKS_IS0_IjEE@Base 3.4.3
 _Z12mx_el_not_orRK10intNDArrayI10octave_intIhEERKS_IS0_IsEE@Base 3.4.3
 _Z12mx_el_not_orRK10intNDArrayI10octave_intIhEERKS_IS0_ItEE@Base 3.4.3
 _Z12mx_el_not_orRK10intNDArrayI10octave_intIhEERKd@Base 3.4.3
 _Z12mx_el_not_orRK10intNDArrayI10octave_intIhEERKf@Base 3.4.3
 _Z12mx_el_not_orRK10intNDArrayI10octave_intIhEES4_@Base 3.4.3
 _Z12mx_el_not_orRK10intNDArrayI10octave_intIiEERK12FloatNDArray@Base 3.4.3
 _Z12mx_el_not_orRK10intNDArrayI10octave_intIiEERK7NDArray@Base 3.4.3
 _Z12mx_el_not_orRK10intNDArrayI10octave_intIiEERKS0_IaE@Base 3.4.3
 _Z12mx_el_not_orRK10intNDArrayI10octave_intIiEERKS0_IhE@Base 3.4.3
 _Z12mx_el_not_orRK10intNDArrayI10octave_intIiEERKS0_IjE@Base 3.4.3
 _Z12mx_el_not_orRK10intNDArrayI10octave_intIiEERKS0_IsE@Base 3.4.3
 _Z12mx_el_not_orRK10intNDArrayI10octave_intIiEERKS0_ItE@Base 3.4.3
 _Z12mx_el_not_orRK10intNDArrayI10octave_intIiEERKS1_@Base 3.4.3
 _Z12mx_el_not_orRK10intNDArrayI10octave_intIiEERKS_IS0_IaEE@Base 3.4.3
 _Z12mx_el_not_orRK10intNDArrayI10octave_intIiEERKS_IS0_IhEE@Base 3.4.3
 _Z12mx_el_not_orRK10intNDArrayI10octave_intIiEERKS_IS0_IjEE@Base 3.4.3
 _Z12mx_el_not_orRK10intNDArrayI10octave_intIiEERKS_IS0_IsEE@Base 3.4.3
 _Z12mx_el_not_orRK10intNDArrayI10octave_intIiEERKS_IS0_ItEE@Base 3.4.3
 _Z12mx_el_not_orRK10intNDArrayI10octave_intIiEERKd@Base 3.4.3
 _Z12mx_el_not_orRK10intNDArrayI10octave_intIiEERKf@Base 3.4.3
 _Z12mx_el_not_orRK10intNDArrayI10octave_intIiEES4_@Base 3.4.3
 _Z12mx_el_not_orRK10intNDArrayI10octave_intIjEERK12FloatNDArray@Base 3.4.3
 _Z12mx_el_not_orRK10intNDArrayI10octave_intIjEERK7NDArray@Base 3.4.3
 _Z12mx_el_not_orRK10intNDArrayI10octave_intIjEERKS0_IaE@Base 3.4.3
 _Z12mx_el_not_orRK10intNDArrayI10octave_intIjEERKS0_IhE@Base 3.4.3
 _Z12mx_el_not_orRK10intNDArrayI10octave_intIjEERKS0_IiE@Base 3.4.3
 _Z12mx_el_not_orRK10intNDArrayI10octave_intIjEERKS0_IsE@Base 3.4.3
 _Z12mx_el_not_orRK10intNDArrayI10octave_intIjEERKS0_ItE@Base 3.4.3
 _Z12mx_el_not_orRK10intNDArrayI10octave_intIjEERKS1_@Base 3.4.3
 _Z12mx_el_not_orRK10intNDArrayI10octave_intIjEERKS_IS0_IaEE@Base 3.4.3
 _Z12mx_el_not_orRK10intNDArrayI10octave_intIjEERKS_IS0_IhEE@Base 3.4.3
 _Z12mx_el_not_orRK10intNDArrayI10octave_intIjEERKS_IS0_IiEE@Base 3.4.3
 _Z12mx_el_not_orRK10intNDArrayI10octave_intIjEERKS_IS0_IsEE@Base 3.4.3
 _Z12mx_el_not_orRK10intNDArrayI10octave_intIjEERKS_IS0_ItEE@Base 3.4.3
 _Z12mx_el_not_orRK10intNDArrayI10octave_intIjEERKd@Base 3.4.3
 _Z12mx_el_not_orRK10intNDArrayI10octave_intIjEERKf@Base 3.4.3
 _Z12mx_el_not_orRK10intNDArrayI10octave_intIjEES4_@Base 3.4.3
 _Z12mx_el_not_orRK10intNDArrayI10octave_intIsEERK12FloatNDArray@Base 3.4.3
 _Z12mx_el_not_orRK10intNDArrayI10octave_intIsEERK7NDArray@Base 3.4.3
 _Z12mx_el_not_orRK10intNDArrayI10octave_intIsEERKS0_IaE@Base 3.4.3
 _Z12mx_el_not_orRK10intNDArrayI10octave_intIsEERKS0_IhE@Base 3.4.3
 _Z12mx_el_not_orRK10intNDArrayI10octave_intIsEERKS0_IiE@Base 3.4.3
 _Z12mx_el_not_orRK10intNDArrayI10octave_intIsEERKS0_IjE@Base 3.4.3
 _Z12mx_el_not_orRK10intNDArrayI10octave_intIsEERKS0_ItE@Base 3.4.3
 _Z12mx_el_not_orRK10intNDArrayI10octave_intIsEERKS1_@Base 3.4.3
 _Z12mx_el_not_orRK10intNDArrayI10octave_intIsEERKS_IS0_IaEE@Base 3.4.3
 _Z12mx_el_not_orRK10intNDArrayI10octave_intIsEERKS_IS0_IhEE@Base 3.4.3
 _Z12mx_el_not_orRK10intNDArrayI10octave_intIsEERKS_IS0_IiEE@Base 3.4.3
 _Z12mx_el_not_orRK10intNDArrayI10octave_intIsEERKS_IS0_IjEE@Base 3.4.3
 _Z12mx_el_not_orRK10intNDArrayI10octave_intIsEERKS_IS0_ItEE@Base 3.4.3
 _Z12mx_el_not_orRK10intNDArrayI10octave_intIsEERKd@Base 3.4.3
 _Z12mx_el_not_orRK10intNDArrayI10octave_intIsEERKf@Base 3.4.3
 _Z12mx_el_not_orRK10intNDArrayI10octave_intIsEES4_@Base 3.4.3
 _Z12mx_el_not_orRK10intNDArrayI10octave_intItEERK12FloatNDArray@Base 3.4.3
 _Z12mx_el_not_orRK10intNDArrayI10octave_intItEERK7NDArray@Base 3.4.3
 _Z12mx_el_not_orRK10intNDArrayI10octave_intItEERKS0_IaE@Base 3.4.3
 _Z12mx_el_not_orRK10intNDArrayI10octave_intItEERKS0_IhE@Base 3.4.3
 _Z12mx_el_not_orRK10intNDArrayI10octave_intItEERKS0_IiE@Base 3.4.3
 _Z12mx_el_not_orRK10intNDArrayI10octave_intItEERKS0_IjE@Base 3.4.3
 _Z12mx_el_not_orRK10intNDArrayI10octave_intItEERKS0_IsE@Base 3.4.3
 _Z12mx_el_not_orRK10intNDArrayI10octave_intItEERKS1_@Base 3.4.3
 _Z12mx_el_not_orRK10intNDArrayI10octave_intItEERKS_IS0_IaEE@Base 3.4.3
 _Z12mx_el_not_orRK10intNDArrayI10octave_intItEERKS_IS0_IhEE@Base 3.4.3
 _Z12mx_el_not_orRK10intNDArrayI10octave_intItEERKS_IS0_IiEE@Base 3.4.3
 _Z12mx_el_not_orRK10intNDArrayI10octave_intItEERKS_IS0_IjEE@Base 3.4.3
 _Z12mx_el_not_orRK10intNDArrayI10octave_intItEERKS_IS0_IsEE@Base 3.4.3
 _Z12mx_el_not_orRK10intNDArrayI10octave_intItEERKd@Base 3.4.3
 _Z12mx_el_not_orRK10intNDArrayI10octave_intItEERKf@Base 3.4.3
 _Z12mx_el_not_orRK10intNDArrayI10octave_intItEES4_@Base 3.4.3
 _Z12mx_el_not_orRK10octave_intIaERK10intNDArrayIS0_E@Base 3.4.3
 _Z12mx_el_not_orRK10octave_intIaERK10intNDArrayIS_IhEE@Base 3.4.3
 _Z12mx_el_not_orRK10octave_intIaERK10intNDArrayIS_IiEE@Base 3.4.3
 _Z12mx_el_not_orRK10octave_intIaERK10intNDArrayIS_IjEE@Base 3.4.3
 _Z12mx_el_not_orRK10octave_intIaERK10intNDArrayIS_IsEE@Base 3.4.3
 _Z12mx_el_not_orRK10octave_intIaERK10intNDArrayIS_ItEE@Base 3.4.3
 _Z12mx_el_not_orRK10octave_intIaERK12FloatNDArray@Base 3.4.3
 _Z12mx_el_not_orRK10octave_intIaERK7NDArray@Base 3.4.3
 _Z12mx_el_not_orRK10octave_intIhERK10intNDArrayIS0_E@Base 3.4.3
 _Z12mx_el_not_orRK10octave_intIhERK10intNDArrayIS_IaEE@Base 3.4.3
 _Z12mx_el_not_orRK10octave_intIhERK10intNDArrayIS_IiEE@Base 3.4.3
 _Z12mx_el_not_orRK10octave_intIhERK10intNDArrayIS_IjEE@Base 3.4.3
 _Z12mx_el_not_orRK10octave_intIhERK10intNDArrayIS_IsEE@Base 3.4.3
 _Z12mx_el_not_orRK10octave_intIhERK10intNDArrayIS_ItEE@Base 3.4.3
 _Z12mx_el_not_orRK10octave_intIhERK12FloatNDArray@Base 3.4.3
 _Z12mx_el_not_orRK10octave_intIhERK7NDArray@Base 3.4.3
 _Z12mx_el_not_orRK10octave_intIiERK10intNDArrayIS0_E@Base 3.4.3
 _Z12mx_el_not_orRK10octave_intIiERK10intNDArrayIS_IaEE@Base 3.4.3
 _Z12mx_el_not_orRK10octave_intIiERK10intNDArrayIS_IhEE@Base 3.4.3
 _Z12mx_el_not_orRK10octave_intIiERK10intNDArrayIS_IjEE@Base 3.4.3
 _Z12mx_el_not_orRK10octave_intIiERK10intNDArrayIS_IsEE@Base 3.4.3
 _Z12mx_el_not_orRK10octave_intIiERK10intNDArrayIS_ItEE@Base 3.4.3
 _Z12mx_el_not_orRK10octave_intIiERK12FloatNDArray@Base 3.4.3
 _Z12mx_el_not_orRK10octave_intIiERK7NDArray@Base 3.4.3
 _Z12mx_el_not_orRK10octave_intIjERK10intNDArrayIS0_E@Base 3.4.3
 _Z12mx_el_not_orRK10octave_intIjERK10intNDArrayIS_IaEE@Base 3.4.3
 _Z12mx_el_not_orRK10octave_intIjERK10intNDArrayIS_IhEE@Base 3.4.3
 _Z12mx_el_not_orRK10octave_intIjERK10intNDArrayIS_IiEE@Base 3.4.3
 _Z12mx_el_not_orRK10octave_intIjERK10intNDArrayIS_IsEE@Base 3.4.3
 _Z12mx_el_not_orRK10octave_intIjERK10intNDArrayIS_ItEE@Base 3.4.3
 _Z12mx_el_not_orRK10octave_intIjERK12FloatNDArray@Base 3.4.3
 _Z12mx_el_not_orRK10octave_intIjERK7NDArray@Base 3.4.3
 _Z12mx_el_not_orRK10octave_intIsERK10intNDArrayIS0_E@Base 3.4.3
 _Z12mx_el_not_orRK10octave_intIsERK10intNDArrayIS_IaEE@Base 3.4.3
 _Z12mx_el_not_orRK10octave_intIsERK10intNDArrayIS_IhEE@Base 3.4.3
 _Z12mx_el_not_orRK10octave_intIsERK10intNDArrayIS_IiEE@Base 3.4.3
 _Z12mx_el_not_orRK10octave_intIsERK10intNDArrayIS_IjEE@Base 3.4.3
 _Z12mx_el_not_orRK10octave_intIsERK10intNDArrayIS_ItEE@Base 3.4.3
 _Z12mx_el_not_orRK10octave_intIsERK12FloatNDArray@Base 3.4.3
 _Z12mx_el_not_orRK10octave_intIsERK7NDArray@Base 3.4.3
 _Z12mx_el_not_orRK10octave_intItERK10intNDArrayIS0_E@Base 3.4.3
 _Z12mx_el_not_orRK10octave_intItERK10intNDArrayIS_IaEE@Base 3.4.3
 _Z12mx_el_not_orRK10octave_intItERK10intNDArrayIS_IhEE@Base 3.4.3
 _Z12mx_el_not_orRK10octave_intItERK10intNDArrayIS_IiEE@Base 3.4.3
 _Z12mx_el_not_orRK10octave_intItERK10intNDArrayIS_IjEE@Base 3.4.3
 _Z12mx_el_not_orRK10octave_intItERK10intNDArrayIS_IsEE@Base 3.4.3
 _Z12mx_el_not_orRK10octave_intItERK12FloatNDArray@Base 3.4.3
 _Z12mx_el_not_orRK10octave_intItERK7NDArray@Base 3.4.3
 _Z12mx_el_not_orRK11boolNDArrayRKb@Base 3.4.3
 _Z12mx_el_not_orRK11boolNDArrayS1_@Base 3.4.3
 _Z12mx_el_not_orRK11charNDArrayRKc@Base 3.4.3
 _Z12mx_el_not_orRK11charNDArrayS1_@Base 3.4.3
 _Z12mx_el_not_orRK12FloatNDArrayRK10intNDArrayI10octave_intIaEE@Base 3.4.3
 _Z12mx_el_not_orRK12FloatNDArrayRK10intNDArrayI10octave_intIhEE@Base 3.4.3
 _Z12mx_el_not_orRK12FloatNDArrayRK10intNDArrayI10octave_intIiEE@Base 3.4.3
 _Z12mx_el_not_orRK12FloatNDArrayRK10intNDArrayI10octave_intIjEE@Base 3.4.3
 _Z12mx_el_not_orRK12FloatNDArrayRK10intNDArrayI10octave_intIsEE@Base 3.4.3
 _Z12mx_el_not_orRK12FloatNDArrayRK10intNDArrayI10octave_intItEE@Base 3.4.3
 _Z12mx_el_not_orRK12FloatNDArrayRK10octave_intIaE@Base 3.4.3
 _Z12mx_el_not_orRK12FloatNDArrayRK10octave_intIhE@Base 3.4.3
 _Z12mx_el_not_orRK12FloatNDArrayRK10octave_intIiE@Base 3.4.3
 _Z12mx_el_not_orRK12FloatNDArrayRK10octave_intIjE@Base 3.4.3
 _Z12mx_el_not_orRK12FloatNDArrayRK10octave_intIsE@Base 3.4.3
 _Z12mx_el_not_orRK12FloatNDArrayRK10octave_intItE@Base 3.4.3
 _Z12mx_el_not_orRK12FloatNDArrayRK19FloatComplexNDArray@Base 3.4.3
 _Z12mx_el_not_orRK12FloatNDArrayRKSt7complexIfE@Base 3.4.3
 _Z12mx_el_not_orRK12FloatNDArrayRKf@Base 3.4.3
 _Z12mx_el_not_orRK12FloatNDArrayS1_@Base 3.4.3
 _Z12mx_el_not_orRK14ComplexNDArrayRK7NDArray@Base 3.4.3
 _Z12mx_el_not_orRK14ComplexNDArrayRKSt7complexIdE@Base 3.4.3
 _Z12mx_el_not_orRK14ComplexNDArrayRKd@Base 3.4.3
 _Z12mx_el_not_orRK14ComplexNDArrayS1_@Base 3.4.3
 _Z12mx_el_not_orRK19FloatComplexNDArrayRK12FloatNDArray@Base 3.4.3
 _Z12mx_el_not_orRK19FloatComplexNDArrayRKSt7complexIfE@Base 3.4.3
 _Z12mx_el_not_orRK19FloatComplexNDArrayRKf@Base 3.4.3
 _Z12mx_el_not_orRK19FloatComplexNDArrayS1_@Base 3.4.3
 _Z12mx_el_not_orRK7NDArrayRK10intNDArrayI10octave_intIaEE@Base 3.4.3
 _Z12mx_el_not_orRK7NDArrayRK10intNDArrayI10octave_intIhEE@Base 3.4.3
 _Z12mx_el_not_orRK7NDArrayRK10intNDArrayI10octave_intIiEE@Base 3.4.3
 _Z12mx_el_not_orRK7NDArrayRK10intNDArrayI10octave_intIjEE@Base 3.4.3
 _Z12mx_el_not_orRK7NDArrayRK10intNDArrayI10octave_intIsEE@Base 3.4.3
 _Z12mx_el_not_orRK7NDArrayRK10intNDArrayI10octave_intItEE@Base 3.4.3
 _Z12mx_el_not_orRK7NDArrayRK10octave_intIaE@Base 3.4.3
 _Z12mx_el_not_orRK7NDArrayRK10octave_intIhE@Base 3.4.3
 _Z12mx_el_not_orRK7NDArrayRK10octave_intIiE@Base 3.4.3
 _Z12mx_el_not_orRK7NDArrayRK10octave_intIjE@Base 3.4.3
 _Z12mx_el_not_orRK7NDArrayRK10octave_intIsE@Base 3.4.3
 _Z12mx_el_not_orRK7NDArrayRK10octave_intItE@Base 3.4.3
 _Z12mx_el_not_orRK7NDArrayRK14ComplexNDArray@Base 3.4.3
 _Z12mx_el_not_orRK7NDArrayRKSt7complexIdE@Base 3.4.3
 _Z12mx_el_not_orRK7NDArrayRKd@Base 3.4.3
 _Z12mx_el_not_orRK7NDArrayS1_@Base 3.4.3
 _Z12mx_el_not_orRKSt7complexIdERK14ComplexNDArray@Base 3.4.3
 _Z12mx_el_not_orRKSt7complexIdERK7NDArray@Base 3.4.3
 _Z12mx_el_not_orRKSt7complexIfERK12FloatNDArray@Base 3.4.3
 _Z12mx_el_not_orRKSt7complexIfERK19FloatComplexNDArray@Base 3.4.3
 _Z12mx_el_not_orRKbRK11boolNDArray@Base 3.4.3
 _Z12mx_el_not_orRKcRK11charNDArray@Base 3.4.3
 _Z12mx_el_not_orRKdRK10intNDArrayI10octave_intIaEE@Base 3.4.3
 _Z12mx_el_not_orRKdRK10intNDArrayI10octave_intIhEE@Base 3.4.3
 _Z12mx_el_not_orRKdRK10intNDArrayI10octave_intIiEE@Base 3.4.3
 _Z12mx_el_not_orRKdRK10intNDArrayI10octave_intIjEE@Base 3.4.3
 _Z12mx_el_not_orRKdRK10intNDArrayI10octave_intIsEE@Base 3.4.3
 _Z12mx_el_not_orRKdRK10intNDArrayI10octave_intItEE@Base 3.4.3
 _Z12mx_el_not_orRKdRK14ComplexNDArray@Base 3.4.3
 _Z12mx_el_not_orRKdRK7NDArray@Base 3.4.3
 _Z12mx_el_not_orRKfRK10intNDArrayI10octave_intIaEE@Base 3.4.3
 _Z12mx_el_not_orRKfRK10intNDArrayI10octave_intIhEE@Base 3.4.3
 _Z12mx_el_not_orRKfRK10intNDArrayI10octave_intIiEE@Base 3.4.3
 _Z12mx_el_not_orRKfRK10intNDArrayI10octave_intIjEE@Base 3.4.3
 _Z12mx_el_not_orRKfRK10intNDArrayI10octave_intIsEE@Base 3.4.3
 _Z12mx_el_not_orRKfRK10intNDArrayI10octave_intItEE@Base 3.4.3
 _Z12mx_el_not_orRKfRK12FloatNDArray@Base 3.4.3
 _Z12mx_el_not_orRKfRK19FloatComplexNDArray@Base 3.4.3
 _Z12mx_el_or_notRK10intNDArrayI10octave_intIaEERK12FloatNDArray@Base 3.4.3
 _Z12mx_el_or_notRK10intNDArrayI10octave_intIaEERK7NDArray@Base 3.4.3
 _Z12mx_el_or_notRK10intNDArrayI10octave_intIaEERKS0_IhE@Base 3.4.3
 _Z12mx_el_or_notRK10intNDArrayI10octave_intIaEERKS0_IiE@Base 3.4.3
 _Z12mx_el_or_notRK10intNDArrayI10octave_intIaEERKS0_IjE@Base 3.4.3
 _Z12mx_el_or_notRK10intNDArrayI10octave_intIaEERKS0_IsE@Base 3.4.3
 _Z12mx_el_or_notRK10intNDArrayI10octave_intIaEERKS0_ItE@Base 3.4.3
 _Z12mx_el_or_notRK10intNDArrayI10octave_intIaEERKS1_@Base 3.4.3
 _Z12mx_el_or_notRK10intNDArrayI10octave_intIaEERKS_IS0_IhEE@Base 3.4.3
 _Z12mx_el_or_notRK10intNDArrayI10octave_intIaEERKS_IS0_IiEE@Base 3.4.3
 _Z12mx_el_or_notRK10intNDArrayI10octave_intIaEERKS_IS0_IjEE@Base 3.4.3
 _Z12mx_el_or_notRK10intNDArrayI10octave_intIaEERKS_IS0_IsEE@Base 3.4.3
 _Z12mx_el_or_notRK10intNDArrayI10octave_intIaEERKS_IS0_ItEE@Base 3.4.3
 _Z12mx_el_or_notRK10intNDArrayI10octave_intIaEERKd@Base 3.4.3
 _Z12mx_el_or_notRK10intNDArrayI10octave_intIaEERKf@Base 3.4.3
 _Z12mx_el_or_notRK10intNDArrayI10octave_intIaEES4_@Base 3.4.3
 _Z12mx_el_or_notRK10intNDArrayI10octave_intIhEERK12FloatNDArray@Base 3.4.3
 _Z12mx_el_or_notRK10intNDArrayI10octave_intIhEERK7NDArray@Base 3.4.3
 _Z12mx_el_or_notRK10intNDArrayI10octave_intIhEERKS0_IaE@Base 3.4.3
 _Z12mx_el_or_notRK10intNDArrayI10octave_intIhEERKS0_IiE@Base 3.4.3
 _Z12mx_el_or_notRK10intNDArrayI10octave_intIhEERKS0_IjE@Base 3.4.3
 _Z12mx_el_or_notRK10intNDArrayI10octave_intIhEERKS0_IsE@Base 3.4.3
 _Z12mx_el_or_notRK10intNDArrayI10octave_intIhEERKS0_ItE@Base 3.4.3
 _Z12mx_el_or_notRK10intNDArrayI10octave_intIhEERKS1_@Base 3.4.3
 _Z12mx_el_or_notRK10intNDArrayI10octave_intIhEERKS_IS0_IaEE@Base 3.4.3
 _Z12mx_el_or_notRK10intNDArrayI10octave_intIhEERKS_IS0_IiEE@Base 3.4.3
 _Z12mx_el_or_notRK10intNDArrayI10octave_intIhEERKS_IS0_IjEE@Base 3.4.3
 _Z12mx_el_or_notRK10intNDArrayI10octave_intIhEERKS_IS0_IsEE@Base 3.4.3
 _Z12mx_el_or_notRK10intNDArrayI10octave_intIhEERKS_IS0_ItEE@Base 3.4.3
 _Z12mx_el_or_notRK10intNDArrayI10octave_intIhEERKd@Base 3.4.3
 _Z12mx_el_or_notRK10intNDArrayI10octave_intIhEERKf@Base 3.4.3
 _Z12mx_el_or_notRK10intNDArrayI10octave_intIhEES4_@Base 3.4.3
 _Z12mx_el_or_notRK10intNDArrayI10octave_intIiEERK12FloatNDArray@Base 3.4.3
 _Z12mx_el_or_notRK10intNDArrayI10octave_intIiEERK7NDArray@Base 3.4.3
 _Z12mx_el_or_notRK10intNDArrayI10octave_intIiEERKS0_IaE@Base 3.4.3
 _Z12mx_el_or_notRK10intNDArrayI10octave_intIiEERKS0_IhE@Base 3.4.3
 _Z12mx_el_or_notRK10intNDArrayI10octave_intIiEERKS0_IjE@Base 3.4.3
 _Z12mx_el_or_notRK10intNDArrayI10octave_intIiEERKS0_IsE@Base 3.4.3
 _Z12mx_el_or_notRK10intNDArrayI10octave_intIiEERKS0_ItE@Base 3.4.3
 _Z12mx_el_or_notRK10intNDArrayI10octave_intIiEERKS1_@Base 3.4.3
 _Z12mx_el_or_notRK10intNDArrayI10octave_intIiEERKS_IS0_IaEE@Base 3.4.3
 _Z12mx_el_or_notRK10intNDArrayI10octave_intIiEERKS_IS0_IhEE@Base 3.4.3
 _Z12mx_el_or_notRK10intNDArrayI10octave_intIiEERKS_IS0_IjEE@Base 3.4.3
 _Z12mx_el_or_notRK10intNDArrayI10octave_intIiEERKS_IS0_IsEE@Base 3.4.3
 _Z12mx_el_or_notRK10intNDArrayI10octave_intIiEERKS_IS0_ItEE@Base 3.4.3
 _Z12mx_el_or_notRK10intNDArrayI10octave_intIiEERKd@Base 3.4.3
 _Z12mx_el_or_notRK10intNDArrayI10octave_intIiEERKf@Base 3.4.3
 _Z12mx_el_or_notRK10intNDArrayI10octave_intIiEES4_@Base 3.4.3
 _Z12mx_el_or_notRK10intNDArrayI10octave_intIjEERK12FloatNDArray@Base 3.4.3
 _Z12mx_el_or_notRK10intNDArrayI10octave_intIjEERK7NDArray@Base 3.4.3
 _Z12mx_el_or_notRK10intNDArrayI10octave_intIjEERKS0_IaE@Base 3.4.3
 _Z12mx_el_or_notRK10intNDArrayI10octave_intIjEERKS0_IhE@Base 3.4.3
 _Z12mx_el_or_notRK10intNDArrayI10octave_intIjEERKS0_IiE@Base 3.4.3
 _Z12mx_el_or_notRK10intNDArrayI10octave_intIjEERKS0_IsE@Base 3.4.3
 _Z12mx_el_or_notRK10intNDArrayI10octave_intIjEERKS0_ItE@Base 3.4.3
 _Z12mx_el_or_notRK10intNDArrayI10octave_intIjEERKS1_@Base 3.4.3
 _Z12mx_el_or_notRK10intNDArrayI10octave_intIjEERKS_IS0_IaEE@Base 3.4.3
 _Z12mx_el_or_notRK10intNDArrayI10octave_intIjEERKS_IS0_IhEE@Base 3.4.3
 _Z12mx_el_or_notRK10intNDArrayI10octave_intIjEERKS_IS0_IiEE@Base 3.4.3
 _Z12mx_el_or_notRK10intNDArrayI10octave_intIjEERKS_IS0_IsEE@Base 3.4.3
 _Z12mx_el_or_notRK10intNDArrayI10octave_intIjEERKS_IS0_ItEE@Base 3.4.3
 _Z12mx_el_or_notRK10intNDArrayI10octave_intIjEERKd@Base 3.4.3
 _Z12mx_el_or_notRK10intNDArrayI10octave_intIjEERKf@Base 3.4.3
 _Z12mx_el_or_notRK10intNDArrayI10octave_intIjEES4_@Base 3.4.3
 _Z12mx_el_or_notRK10intNDArrayI10octave_intIsEERK12FloatNDArray@Base 3.4.3
 _Z12mx_el_or_notRK10intNDArrayI10octave_intIsEERK7NDArray@Base 3.4.3
 _Z12mx_el_or_notRK10intNDArrayI10octave_intIsEERKS0_IaE@Base 3.4.3
 _Z12mx_el_or_notRK10intNDArrayI10octave_intIsEERKS0_IhE@Base 3.4.3
 _Z12mx_el_or_notRK10intNDArrayI10octave_intIsEERKS0_IiE@Base 3.4.3
 _Z12mx_el_or_notRK10intNDArrayI10octave_intIsEERKS0_IjE@Base 3.4.3
 _Z12mx_el_or_notRK10intNDArrayI10octave_intIsEERKS0_ItE@Base 3.4.3
 _Z12mx_el_or_notRK10intNDArrayI10octave_intIsEERKS1_@Base 3.4.3
 _Z12mx_el_or_notRK10intNDArrayI10octave_intIsEERKS_IS0_IaEE@Base 3.4.3
 _Z12mx_el_or_notRK10intNDArrayI10octave_intIsEERKS_IS0_IhEE@Base 3.4.3
 _Z12mx_el_or_notRK10intNDArrayI10octave_intIsEERKS_IS0_IiEE@Base 3.4.3
 _Z12mx_el_or_notRK10intNDArrayI10octave_intIsEERKS_IS0_IjEE@Base 3.4.3
 _Z12mx_el_or_notRK10intNDArrayI10octave_intIsEERKS_IS0_ItEE@Base 3.4.3
 _Z12mx_el_or_notRK10intNDArrayI10octave_intIsEERKd@Base 3.4.3
 _Z12mx_el_or_notRK10intNDArrayI10octave_intIsEERKf@Base 3.4.3
 _Z12mx_el_or_notRK10intNDArrayI10octave_intIsEES4_@Base 3.4.3
 _Z12mx_el_or_notRK10intNDArrayI10octave_intItEERK12FloatNDArray@Base 3.4.3
 _Z12mx_el_or_notRK10intNDArrayI10octave_intItEERK7NDArray@Base 3.4.3
 _Z12mx_el_or_notRK10intNDArrayI10octave_intItEERKS0_IaE@Base 3.4.3
 _Z12mx_el_or_notRK10intNDArrayI10octave_intItEERKS0_IhE@Base 3.4.3
 _Z12mx_el_or_notRK10intNDArrayI10octave_intItEERKS0_IiE@Base 3.4.3
 _Z12mx_el_or_notRK10intNDArrayI10octave_intItEERKS0_IjE@Base 3.4.3
 _Z12mx_el_or_notRK10intNDArrayI10octave_intItEERKS0_IsE@Base 3.4.3
 _Z12mx_el_or_notRK10intNDArrayI10octave_intItEERKS1_@Base 3.4.3
 _Z12mx_el_or_notRK10intNDArrayI10octave_intItEERKS_IS0_IaEE@Base 3.4.3
 _Z12mx_el_or_notRK10intNDArrayI10octave_intItEERKS_IS0_IhEE@Base 3.4.3
 _Z12mx_el_or_notRK10intNDArrayI10octave_intItEERKS_IS0_IiEE@Base 3.4.3
 _Z12mx_el_or_notRK10intNDArrayI10octave_intItEERKS_IS0_IjEE@Base 3.4.3
 _Z12mx_el_or_notRK10intNDArrayI10octave_intItEERKS_IS0_IsEE@Base 3.4.3
 _Z12mx_el_or_notRK10intNDArrayI10octave_intItEERKd@Base 3.4.3
 _Z12mx_el_or_notRK10intNDArrayI10octave_intItEERKf@Base 3.4.3
 _Z12mx_el_or_notRK10intNDArrayI10octave_intItEES4_@Base 3.4.3
 _Z12mx_el_or_notRK10octave_intIaERK10intNDArrayIS0_E@Base 3.4.3
 _Z12mx_el_or_notRK10octave_intIaERK10intNDArrayIS_IhEE@Base 3.4.3
 _Z12mx_el_or_notRK10octave_intIaERK10intNDArrayIS_IiEE@Base 3.4.3
 _Z12mx_el_or_notRK10octave_intIaERK10intNDArrayIS_IjEE@Base 3.4.3
 _Z12mx_el_or_notRK10octave_intIaERK10intNDArrayIS_IsEE@Base 3.4.3
 _Z12mx_el_or_notRK10octave_intIaERK10intNDArrayIS_ItEE@Base 3.4.3
 _Z12mx_el_or_notRK10octave_intIaERK12FloatNDArray@Base 3.4.3
 _Z12mx_el_or_notRK10octave_intIaERK7NDArray@Base 3.4.3
 _Z12mx_el_or_notRK10octave_intIhERK10intNDArrayIS0_E@Base 3.4.3
 _Z12mx_el_or_notRK10octave_intIhERK10intNDArrayIS_IaEE@Base 3.4.3
 _Z12mx_el_or_notRK10octave_intIhERK10intNDArrayIS_IiEE@Base 3.4.3
 _Z12mx_el_or_notRK10octave_intIhERK10intNDArrayIS_IjEE@Base 3.4.3
 _Z12mx_el_or_notRK10octave_intIhERK10intNDArrayIS_IsEE@Base 3.4.3
 _Z12mx_el_or_notRK10octave_intIhERK10intNDArrayIS_ItEE@Base 3.4.3
 _Z12mx_el_or_notRK10octave_intIhERK12FloatNDArray@Base 3.4.3
 _Z12mx_el_or_notRK10octave_intIhERK7NDArray@Base 3.4.3
 _Z12mx_el_or_notRK10octave_intIiERK10intNDArrayIS0_E@Base 3.4.3
 _Z12mx_el_or_notRK10octave_intIiERK10intNDArrayIS_IaEE@Base 3.4.3
 _Z12mx_el_or_notRK10octave_intIiERK10intNDArrayIS_IhEE@Base 3.4.3
 _Z12mx_el_or_notRK10octave_intIiERK10intNDArrayIS_IjEE@Base 3.4.3
 _Z12mx_el_or_notRK10octave_intIiERK10intNDArrayIS_IsEE@Base 3.4.3
 _Z12mx_el_or_notRK10octave_intIiERK10intNDArrayIS_ItEE@Base 3.4.3
 _Z12mx_el_or_notRK10octave_intIiERK12FloatNDArray@Base 3.4.3
 _Z12mx_el_or_notRK10octave_intIiERK7NDArray@Base 3.4.3
 _Z12mx_el_or_notRK10octave_intIjERK10intNDArrayIS0_E@Base 3.4.3
 _Z12mx_el_or_notRK10octave_intIjERK10intNDArrayIS_IaEE@Base 3.4.3
 _Z12mx_el_or_notRK10octave_intIjERK10intNDArrayIS_IhEE@Base 3.4.3
 _Z12mx_el_or_notRK10octave_intIjERK10intNDArrayIS_IiEE@Base 3.4.3
 _Z12mx_el_or_notRK10octave_intIjERK10intNDArrayIS_IsEE@Base 3.4.3
 _Z12mx_el_or_notRK10octave_intIjERK10intNDArrayIS_ItEE@Base 3.4.3
 _Z12mx_el_or_notRK10octave_intIjERK12FloatNDArray@Base 3.4.3
 _Z12mx_el_or_notRK10octave_intIjERK7NDArray@Base 3.4.3
 _Z12mx_el_or_notRK10octave_intIsERK10intNDArrayIS0_E@Base 3.4.3
 _Z12mx_el_or_notRK10octave_intIsERK10intNDArrayIS_IaEE@Base 3.4.3
 _Z12mx_el_or_notRK10octave_intIsERK10intNDArrayIS_IhEE@Base 3.4.3
 _Z12mx_el_or_notRK10octave_intIsERK10intNDArrayIS_IiEE@Base 3.4.3
 _Z12mx_el_or_notRK10octave_intIsERK10intNDArrayIS_IjEE@Base 3.4.3
 _Z12mx_el_or_notRK10octave_intIsERK10intNDArrayIS_ItEE@Base 3.4.3
 _Z12mx_el_or_notRK10octave_intIsERK12FloatNDArray@Base 3.4.3
 _Z12mx_el_or_notRK10octave_intIsERK7NDArray@Base 3.4.3
 _Z12mx_el_or_notRK10octave_intItERK10intNDArrayIS0_E@Base 3.4.3
 _Z12mx_el_or_notRK10octave_intItERK10intNDArrayIS_IaEE@Base 3.4.3
 _Z12mx_el_or_notRK10octave_intItERK10intNDArrayIS_IhEE@Base 3.4.3
 _Z12mx_el_or_notRK10octave_intItERK10intNDArrayIS_IiEE@Base 3.4.3
 _Z12mx_el_or_notRK10octave_intItERK10intNDArrayIS_IjEE@Base 3.4.3
 _Z12mx_el_or_notRK10octave_intItERK10intNDArrayIS_IsEE@Base 3.4.3
 _Z12mx_el_or_notRK10octave_intItERK12FloatNDArray@Base 3.4.3
 _Z12mx_el_or_notRK10octave_intItERK7NDArray@Base 3.4.3
 _Z12mx_el_or_notRK11boolNDArrayRKb@Base 3.4.3
 _Z12mx_el_or_notRK11boolNDArrayS1_@Base 3.4.3
 _Z12mx_el_or_notRK11charNDArrayRKc@Base 3.4.3
 _Z12mx_el_or_notRK11charNDArrayS1_@Base 3.4.3
 _Z12mx_el_or_notRK12FloatNDArrayRK10intNDArrayI10octave_intIaEE@Base 3.4.3
 _Z12mx_el_or_notRK12FloatNDArrayRK10intNDArrayI10octave_intIhEE@Base 3.4.3
 _Z12mx_el_or_notRK12FloatNDArrayRK10intNDArrayI10octave_intIiEE@Base 3.4.3
 _Z12mx_el_or_notRK12FloatNDArrayRK10intNDArrayI10octave_intIjEE@Base 3.4.3
 _Z12mx_el_or_notRK12FloatNDArrayRK10intNDArrayI10octave_intIsEE@Base 3.4.3
 _Z12mx_el_or_notRK12FloatNDArrayRK10intNDArrayI10octave_intItEE@Base 3.4.3
 _Z12mx_el_or_notRK12FloatNDArrayRK10octave_intIaE@Base 3.4.3
 _Z12mx_el_or_notRK12FloatNDArrayRK10octave_intIhE@Base 3.4.3
 _Z12mx_el_or_notRK12FloatNDArrayRK10octave_intIiE@Base 3.4.3
 _Z12mx_el_or_notRK12FloatNDArrayRK10octave_intIjE@Base 3.4.3
 _Z12mx_el_or_notRK12FloatNDArrayRK10octave_intIsE@Base 3.4.3
 _Z12mx_el_or_notRK12FloatNDArrayRK10octave_intItE@Base 3.4.3
 _Z12mx_el_or_notRK12FloatNDArrayRK19FloatComplexNDArray@Base 3.4.3
 _Z12mx_el_or_notRK12FloatNDArrayRKSt7complexIfE@Base 3.4.3
 _Z12mx_el_or_notRK12FloatNDArrayRKf@Base 3.4.3
 _Z12mx_el_or_notRK12FloatNDArrayS1_@Base 3.4.3
 _Z12mx_el_or_notRK14ComplexNDArrayRK7NDArray@Base 3.4.3
 _Z12mx_el_or_notRK14ComplexNDArrayRKSt7complexIdE@Base 3.4.3
 _Z12mx_el_or_notRK14ComplexNDArrayRKd@Base 3.4.3
 _Z12mx_el_or_notRK14ComplexNDArrayS1_@Base 3.4.3
 _Z12mx_el_or_notRK19FloatComplexNDArrayRK12FloatNDArray@Base 3.4.3
 _Z12mx_el_or_notRK19FloatComplexNDArrayRKSt7complexIfE@Base 3.4.3
 _Z12mx_el_or_notRK19FloatComplexNDArrayRKf@Base 3.4.3
 _Z12mx_el_or_notRK19FloatComplexNDArrayS1_@Base 3.4.3
 _Z12mx_el_or_notRK7NDArrayRK10intNDArrayI10octave_intIaEE@Base 3.4.3
 _Z12mx_el_or_notRK7NDArrayRK10intNDArrayI10octave_intIhEE@Base 3.4.3
 _Z12mx_el_or_notRK7NDArrayRK10intNDArrayI10octave_intIiEE@Base 3.4.3
 _Z12mx_el_or_notRK7NDArrayRK10intNDArrayI10octave_intIjEE@Base 3.4.3
 _Z12mx_el_or_notRK7NDArrayRK10intNDArrayI10octave_intIsEE@Base 3.4.3
 _Z12mx_el_or_notRK7NDArrayRK10intNDArrayI10octave_intItEE@Base 3.4.3
 _Z12mx_el_or_notRK7NDArrayRK10octave_intIaE@Base 3.4.3
 _Z12mx_el_or_notRK7NDArrayRK10octave_intIhE@Base 3.4.3
 _Z12mx_el_or_notRK7NDArrayRK10octave_intIiE@Base 3.4.3
 _Z12mx_el_or_notRK7NDArrayRK10octave_intIjE@Base 3.4.3
 _Z12mx_el_or_notRK7NDArrayRK10octave_intIsE@Base 3.4.3
 _Z12mx_el_or_notRK7NDArrayRK10octave_intItE@Base 3.4.3
 _Z12mx_el_or_notRK7NDArrayRK14ComplexNDArray@Base 3.4.3
 _Z12mx_el_or_notRK7NDArrayRKSt7complexIdE@Base 3.4.3
 _Z12mx_el_or_notRK7NDArrayRKd@Base 3.4.3
 _Z12mx_el_or_notRK7NDArrayS1_@Base 3.4.3
 _Z12mx_el_or_notRKSt7complexIdERK14ComplexNDArray@Base 3.4.3
 _Z12mx_el_or_notRKSt7complexIdERK7NDArray@Base 3.4.3
 _Z12mx_el_or_notRKSt7complexIfERK12FloatNDArray@Base 3.4.3
 _Z12mx_el_or_notRKSt7complexIfERK19FloatComplexNDArray@Base 3.4.3
 _Z12mx_el_or_notRKbRK11boolNDArray@Base 3.4.3
 _Z12mx_el_or_notRKcRK11charNDArray@Base 3.4.3
 _Z12mx_el_or_notRKdRK10intNDArrayI10octave_intIaEE@Base 3.4.3
 _Z12mx_el_or_notRKdRK10intNDArrayI10octave_intIhEE@Base 3.4.3
 _Z12mx_el_or_notRKdRK10intNDArrayI10octave_intIiEE@Base 3.4.3
 _Z12mx_el_or_notRKdRK10intNDArrayI10octave_intIjEE@Base 3.4.3
 _Z12mx_el_or_notRKdRK10intNDArrayI10octave_intIsEE@Base 3.4.3
 _Z12mx_el_or_notRKdRK10intNDArrayI10octave_intItEE@Base 3.4.3
 _Z12mx_el_or_notRKdRK14ComplexNDArray@Base 3.4.3
 _Z12mx_el_or_notRKdRK7NDArray@Base 3.4.3
 _Z12mx_el_or_notRKfRK10intNDArrayI10octave_intIaEE@Base 3.4.3
 _Z12mx_el_or_notRKfRK10intNDArrayI10octave_intIhEE@Base 3.4.3
 _Z12mx_el_or_notRKfRK10intNDArrayI10octave_intIiEE@Base 3.4.3
 _Z12mx_el_or_notRKfRK10intNDArrayI10octave_intIjEE@Base 3.4.3
 _Z12mx_el_or_notRKfRK10intNDArrayI10octave_intIsEE@Base 3.4.3
 _Z12mx_el_or_notRKfRK10intNDArrayI10octave_intItEE@Base 3.4.3
 _Z12mx_el_or_notRKfRK12FloatNDArray@Base 3.4.3
 _Z12mx_el_or_notRKfRK19FloatComplexNDArray@Base 3.4.3
 _Z12oct_md5_fileSs@Base 3.4.3
 _Z12octave_chdirRKSs@Base 3.4.3
 _Z12octave_fcntliil@Base 3.4.3
 _Z12octave_fcntliilRSs@Base 3.4.3
 _Z12octave_fgetlP8_IO_FILE@Base 3.4.3
 _Z12octave_fgetlP8_IO_FILERb@Base 3.4.3
 _Z12octave_fgetsP8_IO_FILE@Base 3.4.3
 _Z12octave_fgetsP8_IO_FILERb@Base 3.4.3
 _Z12octave_is_NARKSt7complexIdE@Base 3.4.3
 _Z12octave_is_NARKSt7complexIfE@Base 3.4.3
 _Z12octave_is_NAd@Base 3.4.3
 _Z12octave_is_NAf@Base 3.4.3
 (arch=!kfreebsd-i386 !kfreebsd-amd64)_Z12octave_mkdirRKSsj@Base 3.4.3
 (arch=!kfreebsd-i386 !kfreebsd-amd64)_Z12octave_mkdirRKSsjRSs@Base 3.4.3
 (arch=kfreebsd-i386 kfreebsd-amd64)_Z12octave_mkdirRKSst@Base 3.4.3
 (arch=kfreebsd-i386 kfreebsd-amd64)_Z12octave_mkdirRKSstRSs@Base 3.4.3
 _Z12octave_rmdirRKSs@Base 3.4.3
 _Z12octave_rmdirRKSsRSs@Base 3.4.3
 (arch=!kfreebsd-i386 !kfreebsd-amd64)_Z12octave_umaskj@Base 3.4.3
 (arch=kfreebsd-i386 kfreebsd-amd64)_Z12octave_umaskt@Base 3.4.3
 _Z12read_doublesRSiPd9save_typeibN13oct_mach_info12float_formatE@Base 3.4.3
 _Z12write_floatsRSoPKf9save_typei@Base 3.4.3
 _Z13compute_indexRK5ArrayIiERK10dim_vector@Base 3.4.3
 _Z13compute_indexiRK10dim_vector@Base 3.4.3
 _Z13compute_indexiiRK10dim_vector@Base 3.4.3
 _Z13compute_indexiiiRK10dim_vector@Base 3.4.3
 _Z13conv_to_arrayPK10idx_vectori@Base 3.4.3
 _Z13mx_el_and_notRK10intNDArrayI10octave_intIaEERK12FloatNDArray@Base 3.4.3
 _Z13mx_el_and_notRK10intNDArrayI10octave_intIaEERK7NDArray@Base 3.4.3
 _Z13mx_el_and_notRK10intNDArrayI10octave_intIaEERKS0_IhE@Base 3.4.3
 _Z13mx_el_and_notRK10intNDArrayI10octave_intIaEERKS0_IiE@Base 3.4.3
 _Z13mx_el_and_notRK10intNDArrayI10octave_intIaEERKS0_IjE@Base 3.4.3
 _Z13mx_el_and_notRK10intNDArrayI10octave_intIaEERKS0_IsE@Base 3.4.3
 _Z13mx_el_and_notRK10intNDArrayI10octave_intIaEERKS0_ItE@Base 3.4.3
 _Z13mx_el_and_notRK10intNDArrayI10octave_intIaEERKS1_@Base 3.4.3
 _Z13mx_el_and_notRK10intNDArrayI10octave_intIaEERKS_IS0_IhEE@Base 3.4.3
 _Z13mx_el_and_notRK10intNDArrayI10octave_intIaEERKS_IS0_IiEE@Base 3.4.3
 _Z13mx_el_and_notRK10intNDArrayI10octave_intIaEERKS_IS0_IjEE@Base 3.4.3
 _Z13mx_el_and_notRK10intNDArrayI10octave_intIaEERKS_IS0_IsEE@Base 3.4.3
 _Z13mx_el_and_notRK10intNDArrayI10octave_intIaEERKS_IS0_ItEE@Base 3.4.3
 _Z13mx_el_and_notRK10intNDArrayI10octave_intIaEERKd@Base 3.4.3
 _Z13mx_el_and_notRK10intNDArrayI10octave_intIaEERKf@Base 3.4.3
 _Z13mx_el_and_notRK10intNDArrayI10octave_intIaEES4_@Base 3.4.3
 _Z13mx_el_and_notRK10intNDArrayI10octave_intIhEERK12FloatNDArray@Base 3.4.3
 _Z13mx_el_and_notRK10intNDArrayI10octave_intIhEERK7NDArray@Base 3.4.3
 _Z13mx_el_and_notRK10intNDArrayI10octave_intIhEERKS0_IaE@Base 3.4.3
 _Z13mx_el_and_notRK10intNDArrayI10octave_intIhEERKS0_IiE@Base 3.4.3
 _Z13mx_el_and_notRK10intNDArrayI10octave_intIhEERKS0_IjE@Base 3.4.3
 _Z13mx_el_and_notRK10intNDArrayI10octave_intIhEERKS0_IsE@Base 3.4.3
 _Z13mx_el_and_notRK10intNDArrayI10octave_intIhEERKS0_ItE@Base 3.4.3
 _Z13mx_el_and_notRK10intNDArrayI10octave_intIhEERKS1_@Base 3.4.3
 _Z13mx_el_and_notRK10intNDArrayI10octave_intIhEERKS_IS0_IaEE@Base 3.4.3
 _Z13mx_el_and_notRK10intNDArrayI10octave_intIhEERKS_IS0_IiEE@Base 3.4.3
 _Z13mx_el_and_notRK10intNDArrayI10octave_intIhEERKS_IS0_IjEE@Base 3.4.3
 _Z13mx_el_and_notRK10intNDArrayI10octave_intIhEERKS_IS0_IsEE@Base 3.4.3
 _Z13mx_el_and_notRK10intNDArrayI10octave_intIhEERKS_IS0_ItEE@Base 3.4.3
 _Z13mx_el_and_notRK10intNDArrayI10octave_intIhEERKd@Base 3.4.3
 _Z13mx_el_and_notRK10intNDArrayI10octave_intIhEERKf@Base 3.4.3
 _Z13mx_el_and_notRK10intNDArrayI10octave_intIhEES4_@Base 3.4.3
 _Z13mx_el_and_notRK10intNDArrayI10octave_intIiEERK12FloatNDArray@Base 3.4.3
 _Z13mx_el_and_notRK10intNDArrayI10octave_intIiEERK7NDArray@Base 3.4.3
 _Z13mx_el_and_notRK10intNDArrayI10octave_intIiEERKS0_IaE@Base 3.4.3
 _Z13mx_el_and_notRK10intNDArrayI10octave_intIiEERKS0_IhE@Base 3.4.3
 _Z13mx_el_and_notRK10intNDArrayI10octave_intIiEERKS0_IjE@Base 3.4.3
 _Z13mx_el_and_notRK10intNDArrayI10octave_intIiEERKS0_IsE@Base 3.4.3
 _Z13mx_el_and_notRK10intNDArrayI10octave_intIiEERKS0_ItE@Base 3.4.3
 _Z13mx_el_and_notRK10intNDArrayI10octave_intIiEERKS1_@Base 3.4.3
 _Z13mx_el_and_notRK10intNDArrayI10octave_intIiEERKS_IS0_IaEE@Base 3.4.3
 _Z13mx_el_and_notRK10intNDArrayI10octave_intIiEERKS_IS0_IhEE@Base 3.4.3
 _Z13mx_el_and_notRK10intNDArrayI10octave_intIiEERKS_IS0_IjEE@Base 3.4.3
 _Z13mx_el_and_notRK10intNDArrayI10octave_intIiEERKS_IS0_IsEE@Base 3.4.3
 _Z13mx_el_and_notRK10intNDArrayI10octave_intIiEERKS_IS0_ItEE@Base 3.4.3
 _Z13mx_el_and_notRK10intNDArrayI10octave_intIiEERKd@Base 3.4.3
 _Z13mx_el_and_notRK10intNDArrayI10octave_intIiEERKf@Base 3.4.3
 _Z13mx_el_and_notRK10intNDArrayI10octave_intIiEES4_@Base 3.4.3
 _Z13mx_el_and_notRK10intNDArrayI10octave_intIjEERK12FloatNDArray@Base 3.4.3
 _Z13mx_el_and_notRK10intNDArrayI10octave_intIjEERK7NDArray@Base 3.4.3
 _Z13mx_el_and_notRK10intNDArrayI10octave_intIjEERKS0_IaE@Base 3.4.3
 _Z13mx_el_and_notRK10intNDArrayI10octave_intIjEERKS0_IhE@Base 3.4.3
 _Z13mx_el_and_notRK10intNDArrayI10octave_intIjEERKS0_IiE@Base 3.4.3
 _Z13mx_el_and_notRK10intNDArrayI10octave_intIjEERKS0_IsE@Base 3.4.3
 _Z13mx_el_and_notRK10intNDArrayI10octave_intIjEERKS0_ItE@Base 3.4.3
 _Z13mx_el_and_notRK10intNDArrayI10octave_intIjEERKS1_@Base 3.4.3
 _Z13mx_el_and_notRK10intNDArrayI10octave_intIjEERKS_IS0_IaEE@Base 3.4.3
 _Z13mx_el_and_notRK10intNDArrayI10octave_intIjEERKS_IS0_IhEE@Base 3.4.3
 _Z13mx_el_and_notRK10intNDArrayI10octave_intIjEERKS_IS0_IiEE@Base 3.4.3
 _Z13mx_el_and_notRK10intNDArrayI10octave_intIjEERKS_IS0_IsEE@Base 3.4.3
 _Z13mx_el_and_notRK10intNDArrayI10octave_intIjEERKS_IS0_ItEE@Base 3.4.3
 _Z13mx_el_and_notRK10intNDArrayI10octave_intIjEERKd@Base 3.4.3
 _Z13mx_el_and_notRK10intNDArrayI10octave_intIjEERKf@Base 3.4.3
 _Z13mx_el_and_notRK10intNDArrayI10octave_intIjEES4_@Base 3.4.3
 _Z13mx_el_and_notRK10intNDArrayI10octave_intIsEERK12FloatNDArray@Base 3.4.3
 _Z13mx_el_and_notRK10intNDArrayI10octave_intIsEERK7NDArray@Base 3.4.3
 _Z13mx_el_and_notRK10intNDArrayI10octave_intIsEERKS0_IaE@Base 3.4.3
 _Z13mx_el_and_notRK10intNDArrayI10octave_intIsEERKS0_IhE@Base 3.4.3
 _Z13mx_el_and_notRK10intNDArrayI10octave_intIsEERKS0_IiE@Base 3.4.3
 _Z13mx_el_and_notRK10intNDArrayI10octave_intIsEERKS0_IjE@Base 3.4.3
 _Z13mx_el_and_notRK10intNDArrayI10octave_intIsEERKS0_ItE@Base 3.4.3
 _Z13mx_el_and_notRK10intNDArrayI10octave_intIsEERKS1_@Base 3.4.3
 _Z13mx_el_and_notRK10intNDArrayI10octave_intIsEERKS_IS0_IaEE@Base 3.4.3
 _Z13mx_el_and_notRK10intNDArrayI10octave_intIsEERKS_IS0_IhEE@Base 3.4.3
 _Z13mx_el_and_notRK10intNDArrayI10octave_intIsEERKS_IS0_IiEE@Base 3.4.3
 _Z13mx_el_and_notRK10intNDArrayI10octave_intIsEERKS_IS0_IjEE@Base 3.4.3
 _Z13mx_el_and_notRK10intNDArrayI10octave_intIsEERKS_IS0_ItEE@Base 3.4.3
 _Z13mx_el_and_notRK10intNDArrayI10octave_intIsEERKd@Base 3.4.3
 _Z13mx_el_and_notRK10intNDArrayI10octave_intIsEERKf@Base 3.4.3
 _Z13mx_el_and_notRK10intNDArrayI10octave_intIsEES4_@Base 3.4.3
 _Z13mx_el_and_notRK10intNDArrayI10octave_intItEERK12FloatNDArray@Base 3.4.3
 _Z13mx_el_and_notRK10intNDArrayI10octave_intItEERK7NDArray@Base 3.4.3
 _Z13mx_el_and_notRK10intNDArrayI10octave_intItEERKS0_IaE@Base 3.4.3
 _Z13mx_el_and_notRK10intNDArrayI10octave_intItEERKS0_IhE@Base 3.4.3
 _Z13mx_el_and_notRK10intNDArrayI10octave_intItEERKS0_IiE@Base 3.4.3
 _Z13mx_el_and_notRK10intNDArrayI10octave_intItEERKS0_IjE@Base 3.4.3
 _Z13mx_el_and_notRK10intNDArrayI10octave_intItEERKS0_IsE@Base 3.4.3
 _Z13mx_el_and_notRK10intNDArrayI10octave_intItEERKS1_@Base 3.4.3
 _Z13mx_el_and_notRK10intNDArrayI10octave_intItEERKS_IS0_IaEE@Base 3.4.3
 _Z13mx_el_and_notRK10intNDArrayI10octave_intItEERKS_IS0_IhEE@Base 3.4.3
 _Z13mx_el_and_notRK10intNDArrayI10octave_intItEERKS_IS0_IiEE@Base 3.4.3
 _Z13mx_el_and_notRK10intNDArrayI10octave_intItEERKS_IS0_IjEE@Base 3.4.3
 _Z13mx_el_and_notRK10intNDArrayI10octave_intItEERKS_IS0_IsEE@Base 3.4.3
 _Z13mx_el_and_notRK10intNDArrayI10octave_intItEERKd@Base 3.4.3
 _Z13mx_el_and_notRK10intNDArrayI10octave_intItEERKf@Base 3.4.3
 _Z13mx_el_and_notRK10intNDArrayI10octave_intItEES4_@Base 3.4.3
 _Z13mx_el_and_notRK10octave_intIaERK10intNDArrayIS0_E@Base 3.4.3
 _Z13mx_el_and_notRK10octave_intIaERK10intNDArrayIS_IhEE@Base 3.4.3
 _Z13mx_el_and_notRK10octave_intIaERK10intNDArrayIS_IiEE@Base 3.4.3
 _Z13mx_el_and_notRK10octave_intIaERK10intNDArrayIS_IjEE@Base 3.4.3
 _Z13mx_el_and_notRK10octave_intIaERK10intNDArrayIS_IsEE@Base 3.4.3
 _Z13mx_el_and_notRK10octave_intIaERK10intNDArrayIS_ItEE@Base 3.4.3
 _Z13mx_el_and_notRK10octave_intIaERK12FloatNDArray@Base 3.4.3
 _Z13mx_el_and_notRK10octave_intIaERK7NDArray@Base 3.4.3
 _Z13mx_el_and_notRK10octave_intIhERK10intNDArrayIS0_E@Base 3.4.3
 _Z13mx_el_and_notRK10octave_intIhERK10intNDArrayIS_IaEE@Base 3.4.3
 _Z13mx_el_and_notRK10octave_intIhERK10intNDArrayIS_IiEE@Base 3.4.3
 _Z13mx_el_and_notRK10octave_intIhERK10intNDArrayIS_IjEE@Base 3.4.3
 _Z13mx_el_and_notRK10octave_intIhERK10intNDArrayIS_IsEE@Base 3.4.3
 _Z13mx_el_and_notRK10octave_intIhERK10intNDArrayIS_ItEE@Base 3.4.3
 _Z13mx_el_and_notRK10octave_intIhERK12FloatNDArray@Base 3.4.3
 _Z13mx_el_and_notRK10octave_intIhERK7NDArray@Base 3.4.3
 _Z13mx_el_and_notRK10octave_intIiERK10intNDArrayIS0_E@Base 3.4.3
 _Z13mx_el_and_notRK10octave_intIiERK10intNDArrayIS_IaEE@Base 3.4.3
 _Z13mx_el_and_notRK10octave_intIiERK10intNDArrayIS_IhEE@Base 3.4.3
 _Z13mx_el_and_notRK10octave_intIiERK10intNDArrayIS_IjEE@Base 3.4.3
 _Z13mx_el_and_notRK10octave_intIiERK10intNDArrayIS_IsEE@Base 3.4.3
 _Z13mx_el_and_notRK10octave_intIiERK10intNDArrayIS_ItEE@Base 3.4.3
 _Z13mx_el_and_notRK10octave_intIiERK12FloatNDArray@Base 3.4.3
 _Z13mx_el_and_notRK10octave_intIiERK7NDArray@Base 3.4.3
 _Z13mx_el_and_notRK10octave_intIjERK10intNDArrayIS0_E@Base 3.4.3
 _Z13mx_el_and_notRK10octave_intIjERK10intNDArrayIS_IaEE@Base 3.4.3
 _Z13mx_el_and_notRK10octave_intIjERK10intNDArrayIS_IhEE@Base 3.4.3
 _Z13mx_el_and_notRK10octave_intIjERK10intNDArrayIS_IiEE@Base 3.4.3
 _Z13mx_el_and_notRK10octave_intIjERK10intNDArrayIS_IsEE@Base 3.4.3
 _Z13mx_el_and_notRK10octave_intIjERK10intNDArrayIS_ItEE@Base 3.4.3
 _Z13mx_el_and_notRK10octave_intIjERK12FloatNDArray@Base 3.4.3
 _Z13mx_el_and_notRK10octave_intIjERK7NDArray@Base 3.4.3
 _Z13mx_el_and_notRK10octave_intIsERK10intNDArrayIS0_E@Base 3.4.3
 _Z13mx_el_and_notRK10octave_intIsERK10intNDArrayIS_IaEE@Base 3.4.3
 _Z13mx_el_and_notRK10octave_intIsERK10intNDArrayIS_IhEE@Base 3.4.3
 _Z13mx_el_and_notRK10octave_intIsERK10intNDArrayIS_IiEE@Base 3.4.3
 _Z13mx_el_and_notRK10octave_intIsERK10intNDArrayIS_IjEE@Base 3.4.3
 _Z13mx_el_and_notRK10octave_intIsERK10intNDArrayIS_ItEE@Base 3.4.3
 _Z13mx_el_and_notRK10octave_intIsERK12FloatNDArray@Base 3.4.3
 _Z13mx_el_and_notRK10octave_intIsERK7NDArray@Base 3.4.3
 _Z13mx_el_and_notRK10octave_intItERK10intNDArrayIS0_E@Base 3.4.3
 _Z13mx_el_and_notRK10octave_intItERK10intNDArrayIS_IaEE@Base 3.4.3
 _Z13mx_el_and_notRK10octave_intItERK10intNDArrayIS_IhEE@Base 3.4.3
 _Z13mx_el_and_notRK10octave_intItERK10intNDArrayIS_IiEE@Base 3.4.3
 _Z13mx_el_and_notRK10octave_intItERK10intNDArrayIS_IjEE@Base 3.4.3
 _Z13mx_el_and_notRK10octave_intItERK10intNDArrayIS_IsEE@Base 3.4.3
 _Z13mx_el_and_notRK10octave_intItERK12FloatNDArray@Base 3.4.3
 _Z13mx_el_and_notRK10octave_intItERK7NDArray@Base 3.4.3
 _Z13mx_el_and_notRK11boolNDArrayRKb@Base 3.4.3
 _Z13mx_el_and_notRK11boolNDArrayS1_@Base 3.4.3
 _Z13mx_el_and_notRK11charNDArrayRKc@Base 3.4.3
 _Z13mx_el_and_notRK11charNDArrayS1_@Base 3.4.3
 _Z13mx_el_and_notRK12FloatNDArrayRK10intNDArrayI10octave_intIaEE@Base 3.4.3
 _Z13mx_el_and_notRK12FloatNDArrayRK10intNDArrayI10octave_intIhEE@Base 3.4.3
 _Z13mx_el_and_notRK12FloatNDArrayRK10intNDArrayI10octave_intIiEE@Base 3.4.3
 _Z13mx_el_and_notRK12FloatNDArrayRK10intNDArrayI10octave_intIjEE@Base 3.4.3
 _Z13mx_el_and_notRK12FloatNDArrayRK10intNDArrayI10octave_intIsEE@Base 3.4.3
 _Z13mx_el_and_notRK12FloatNDArrayRK10intNDArrayI10octave_intItEE@Base 3.4.3
 _Z13mx_el_and_notRK12FloatNDArrayRK10octave_intIaE@Base 3.4.3
 _Z13mx_el_and_notRK12FloatNDArrayRK10octave_intIhE@Base 3.4.3
 _Z13mx_el_and_notRK12FloatNDArrayRK10octave_intIiE@Base 3.4.3
 _Z13mx_el_and_notRK12FloatNDArrayRK10octave_intIjE@Base 3.4.3
 _Z13mx_el_and_notRK12FloatNDArrayRK10octave_intIsE@Base 3.4.3
 _Z13mx_el_and_notRK12FloatNDArrayRK10octave_intItE@Base 3.4.3
 _Z13mx_el_and_notRK12FloatNDArrayRK19FloatComplexNDArray@Base 3.4.3
 _Z13mx_el_and_notRK12FloatNDArrayRKSt7complexIfE@Base 3.4.3
 _Z13mx_el_and_notRK12FloatNDArrayRKf@Base 3.4.3
 _Z13mx_el_and_notRK12FloatNDArrayS1_@Base 3.4.3
 _Z13mx_el_and_notRK14ComplexNDArrayRK7NDArray@Base 3.4.3
 _Z13mx_el_and_notRK14ComplexNDArrayRKSt7complexIdE@Base 3.4.3
 _Z13mx_el_and_notRK14ComplexNDArrayRKd@Base 3.4.3
 _Z13mx_el_and_notRK14ComplexNDArrayS1_@Base 3.4.3
 _Z13mx_el_and_notRK19FloatComplexNDArrayRK12FloatNDArray@Base 3.4.3
 _Z13mx_el_and_notRK19FloatComplexNDArrayRKSt7complexIfE@Base 3.4.3
 _Z13mx_el_and_notRK19FloatComplexNDArrayRKf@Base 3.4.3
 _Z13mx_el_and_notRK19FloatComplexNDArrayS1_@Base 3.4.3
 _Z13mx_el_and_notRK7NDArrayRK10intNDArrayI10octave_intIaEE@Base 3.4.3
 _Z13mx_el_and_notRK7NDArrayRK10intNDArrayI10octave_intIhEE@Base 3.4.3
 _Z13mx_el_and_notRK7NDArrayRK10intNDArrayI10octave_intIiEE@Base 3.4.3
 _Z13mx_el_and_notRK7NDArrayRK10intNDArrayI10octave_intIjEE@Base 3.4.3
 _Z13mx_el_and_notRK7NDArrayRK10intNDArrayI10octave_intIsEE@Base 3.4.3
 _Z13mx_el_and_notRK7NDArrayRK10intNDArrayI10octave_intItEE@Base 3.4.3
 _Z13mx_el_and_notRK7NDArrayRK10octave_intIaE@Base 3.4.3
 _Z13mx_el_and_notRK7NDArrayRK10octave_intIhE@Base 3.4.3
 _Z13mx_el_and_notRK7NDArrayRK10octave_intIiE@Base 3.4.3
 _Z13mx_el_and_notRK7NDArrayRK10octave_intIjE@Base 3.4.3
 _Z13mx_el_and_notRK7NDArrayRK10octave_intIsE@Base 3.4.3
 _Z13mx_el_and_notRK7NDArrayRK10octave_intItE@Base 3.4.3
 _Z13mx_el_and_notRK7NDArrayRK14ComplexNDArray@Base 3.4.3
 _Z13mx_el_and_notRK7NDArrayRKSt7complexIdE@Base 3.4.3
 _Z13mx_el_and_notRK7NDArrayRKd@Base 3.4.3
 _Z13mx_el_and_notRK7NDArrayS1_@Base 3.4.3
 _Z13mx_el_and_notRKSt7complexIdERK14ComplexNDArray@Base 3.4.3
 _Z13mx_el_and_notRKSt7complexIdERK7NDArray@Base 3.4.3
 _Z13mx_el_and_notRKSt7complexIfERK12FloatNDArray@Base 3.4.3
 _Z13mx_el_and_notRKSt7complexIfERK19FloatComplexNDArray@Base 3.4.3
 _Z13mx_el_and_notRKbRK11boolNDArray@Base 3.4.3
 _Z13mx_el_and_notRKcRK11charNDArray@Base 3.4.3
 _Z13mx_el_and_notRKdRK10intNDArrayI10octave_intIaEE@Base 3.4.3
 _Z13mx_el_and_notRKdRK10intNDArrayI10octave_intIhEE@Base 3.4.3
 _Z13mx_el_and_notRKdRK10intNDArrayI10octave_intIiEE@Base 3.4.3
 _Z13mx_el_and_notRKdRK10intNDArrayI10octave_intIjEE@Base 3.4.3
 _Z13mx_el_and_notRKdRK10intNDArrayI10octave_intIsEE@Base 3.4.3
 _Z13mx_el_and_notRKdRK10intNDArrayI10octave_intItEE@Base 3.4.3
 _Z13mx_el_and_notRKdRK14ComplexNDArray@Base 3.4.3
 _Z13mx_el_and_notRKdRK7NDArray@Base 3.4.3
 _Z13mx_el_and_notRKfRK10intNDArrayI10octave_intIaEE@Base 3.4.3
 _Z13mx_el_and_notRKfRK10intNDArrayI10octave_intIhEE@Base 3.4.3
 _Z13mx_el_and_notRKfRK10intNDArrayI10octave_intIiEE@Base 3.4.3
 _Z13mx_el_and_notRKfRK10intNDArrayI10octave_intIjEE@Base 3.4.3
 _Z13mx_el_and_notRKfRK10intNDArrayI10octave_intIsEE@Base 3.4.3
 _Z13mx_el_and_notRKfRK10intNDArrayI10octave_intItEE@Base 3.4.3
 _Z13mx_el_and_notRKfRK12FloatNDArray@Base 3.4.3
 _Z13mx_el_and_notRKfRK19FloatComplexNDArray@Base 3.4.3
 _Z13mx_el_not_andRK10intNDArrayI10octave_intIaEERK12FloatNDArray@Base 3.4.3
 _Z13mx_el_not_andRK10intNDArrayI10octave_intIaEERK7NDArray@Base 3.4.3
 _Z13mx_el_not_andRK10intNDArrayI10octave_intIaEERKS0_IhE@Base 3.4.3
 _Z13mx_el_not_andRK10intNDArrayI10octave_intIaEERKS0_IiE@Base 3.4.3
 _Z13mx_el_not_andRK10intNDArrayI10octave_intIaEERKS0_IjE@Base 3.4.3
 _Z13mx_el_not_andRK10intNDArrayI10octave_intIaEERKS0_IsE@Base 3.4.3
 _Z13mx_el_not_andRK10intNDArrayI10octave_intIaEERKS0_ItE@Base 3.4.3
 _Z13mx_el_not_andRK10intNDArrayI10octave_intIaEERKS1_@Base 3.4.3
 _Z13mx_el_not_andRK10intNDArrayI10octave_intIaEERKS_IS0_IhEE@Base 3.4.3
 _Z13mx_el_not_andRK10intNDArrayI10octave_intIaEERKS_IS0_IiEE@Base 3.4.3
 _Z13mx_el_not_andRK10intNDArrayI10octave_intIaEERKS_IS0_IjEE@Base 3.4.3
 _Z13mx_el_not_andRK10intNDArrayI10octave_intIaEERKS_IS0_IsEE@Base 3.4.3
 _Z13mx_el_not_andRK10intNDArrayI10octave_intIaEERKS_IS0_ItEE@Base 3.4.3
 _Z13mx_el_not_andRK10intNDArrayI10octave_intIaEERKd@Base 3.4.3
 _Z13mx_el_not_andRK10intNDArrayI10octave_intIaEERKf@Base 3.4.3
 _Z13mx_el_not_andRK10intNDArrayI10octave_intIaEES4_@Base 3.4.3
 _Z13mx_el_not_andRK10intNDArrayI10octave_intIhEERK12FloatNDArray@Base 3.4.3
 _Z13mx_el_not_andRK10intNDArrayI10octave_intIhEERK7NDArray@Base 3.4.3
 _Z13mx_el_not_andRK10intNDArrayI10octave_intIhEERKS0_IaE@Base 3.4.3
 _Z13mx_el_not_andRK10intNDArrayI10octave_intIhEERKS0_IiE@Base 3.4.3
 _Z13mx_el_not_andRK10intNDArrayI10octave_intIhEERKS0_IjE@Base 3.4.3
 _Z13mx_el_not_andRK10intNDArrayI10octave_intIhEERKS0_IsE@Base 3.4.3
 _Z13mx_el_not_andRK10intNDArrayI10octave_intIhEERKS0_ItE@Base 3.4.3
 _Z13mx_el_not_andRK10intNDArrayI10octave_intIhEERKS1_@Base 3.4.3
 _Z13mx_el_not_andRK10intNDArrayI10octave_intIhEERKS_IS0_IaEE@Base 3.4.3
 _Z13mx_el_not_andRK10intNDArrayI10octave_intIhEERKS_IS0_IiEE@Base 3.4.3
 _Z13mx_el_not_andRK10intNDArrayI10octave_intIhEERKS_IS0_IjEE@Base 3.4.3
 _Z13mx_el_not_andRK10intNDArrayI10octave_intIhEERKS_IS0_IsEE@Base 3.4.3
 _Z13mx_el_not_andRK10intNDArrayI10octave_intIhEERKS_IS0_ItEE@Base 3.4.3
 _Z13mx_el_not_andRK10intNDArrayI10octave_intIhEERKd@Base 3.4.3
 _Z13mx_el_not_andRK10intNDArrayI10octave_intIhEERKf@Base 3.4.3
 _Z13mx_el_not_andRK10intNDArrayI10octave_intIhEES4_@Base 3.4.3
 _Z13mx_el_not_andRK10intNDArrayI10octave_intIiEERK12FloatNDArray@Base 3.4.3
 _Z13mx_el_not_andRK10intNDArrayI10octave_intIiEERK7NDArray@Base 3.4.3
 _Z13mx_el_not_andRK10intNDArrayI10octave_intIiEERKS0_IaE@Base 3.4.3
 _Z13mx_el_not_andRK10intNDArrayI10octave_intIiEERKS0_IhE@Base 3.4.3
 _Z13mx_el_not_andRK10intNDArrayI10octave_intIiEERKS0_IjE@Base 3.4.3
 _Z13mx_el_not_andRK10intNDArrayI10octave_intIiEERKS0_IsE@Base 3.4.3
 _Z13mx_el_not_andRK10intNDArrayI10octave_intIiEERKS0_ItE@Base 3.4.3
 _Z13mx_el_not_andRK10intNDArrayI10octave_intIiEERKS1_@Base 3.4.3
 _Z13mx_el_not_andRK10intNDArrayI10octave_intIiEERKS_IS0_IaEE@Base 3.4.3
 _Z13mx_el_not_andRK10intNDArrayI10octave_intIiEERKS_IS0_IhEE@Base 3.4.3
 _Z13mx_el_not_andRK10intNDArrayI10octave_intIiEERKS_IS0_IjEE@Base 3.4.3
 _Z13mx_el_not_andRK10intNDArrayI10octave_intIiEERKS_IS0_IsEE@Base 3.4.3
 _Z13mx_el_not_andRK10intNDArrayI10octave_intIiEERKS_IS0_ItEE@Base 3.4.3
 _Z13mx_el_not_andRK10intNDArrayI10octave_intIiEERKd@Base 3.4.3
 _Z13mx_el_not_andRK10intNDArrayI10octave_intIiEERKf@Base 3.4.3
 _Z13mx_el_not_andRK10intNDArrayI10octave_intIiEES4_@Base 3.4.3
 _Z13mx_el_not_andRK10intNDArrayI10octave_intIjEERK12FloatNDArray@Base 3.4.3
 _Z13mx_el_not_andRK10intNDArrayI10octave_intIjEERK7NDArray@Base 3.4.3
 _Z13mx_el_not_andRK10intNDArrayI10octave_intIjEERKS0_IaE@Base 3.4.3
 _Z13mx_el_not_andRK10intNDArrayI10octave_intIjEERKS0_IhE@Base 3.4.3
 _Z13mx_el_not_andRK10intNDArrayI10octave_intIjEERKS0_IiE@Base 3.4.3
 _Z13mx_el_not_andRK10intNDArrayI10octave_intIjEERKS0_IsE@Base 3.4.3
 _Z13mx_el_not_andRK10intNDArrayI10octave_intIjEERKS0_ItE@Base 3.4.3
 _Z13mx_el_not_andRK10intNDArrayI10octave_intIjEERKS1_@Base 3.4.3
 _Z13mx_el_not_andRK10intNDArrayI10octave_intIjEERKS_IS0_IaEE@Base 3.4.3
 _Z13mx_el_not_andRK10intNDArrayI10octave_intIjEERKS_IS0_IhEE@Base 3.4.3
 _Z13mx_el_not_andRK10intNDArrayI10octave_intIjEERKS_IS0_IiEE@Base 3.4.3
 _Z13mx_el_not_andRK10intNDArrayI10octave_intIjEERKS_IS0_IsEE@Base 3.4.3
 _Z13mx_el_not_andRK10intNDArrayI10octave_intIjEERKS_IS0_ItEE@Base 3.4.3
 _Z13mx_el_not_andRK10intNDArrayI10octave_intIjEERKd@Base 3.4.3
 _Z13mx_el_not_andRK10intNDArrayI10octave_intIjEERKf@Base 3.4.3
 _Z13mx_el_not_andRK10intNDArrayI10octave_intIjEES4_@Base 3.4.3
 _Z13mx_el_not_andRK10intNDArrayI10octave_intIsEERK12FloatNDArray@Base 3.4.3
 _Z13mx_el_not_andRK10intNDArrayI10octave_intIsEERK7NDArray@Base 3.4.3
 _Z13mx_el_not_andRK10intNDArrayI10octave_intIsEERKS0_IaE@Base 3.4.3
 _Z13mx_el_not_andRK10intNDArrayI10octave_intIsEERKS0_IhE@Base 3.4.3
 _Z13mx_el_not_andRK10intNDArrayI10octave_intIsEERKS0_IiE@Base 3.4.3
 _Z13mx_el_not_andRK10intNDArrayI10octave_intIsEERKS0_IjE@Base 3.4.3
 _Z13mx_el_not_andRK10intNDArrayI10octave_intIsEERKS0_ItE@Base 3.4.3
 _Z13mx_el_not_andRK10intNDArrayI10octave_intIsEERKS1_@Base 3.4.3
 _Z13mx_el_not_andRK10intNDArrayI10octave_intIsEERKS_IS0_IaEE@Base 3.4.3
 _Z13mx_el_not_andRK10intNDArrayI10octave_intIsEERKS_IS0_IhEE@Base 3.4.3
 _Z13mx_el_not_andRK10intNDArrayI10octave_intIsEERKS_IS0_IiEE@Base 3.4.3
 _Z13mx_el_not_andRK10intNDArrayI10octave_intIsEERKS_IS0_IjEE@Base 3.4.3
 _Z13mx_el_not_andRK10intNDArrayI10octave_intIsEERKS_IS0_ItEE@Base 3.4.3
 _Z13mx_el_not_andRK10intNDArrayI10octave_intIsEERKd@Base 3.4.3
 _Z13mx_el_not_andRK10intNDArrayI10octave_intIsEERKf@Base 3.4.3
 _Z13mx_el_not_andRK10intNDArrayI10octave_intIsEES4_@Base 3.4.3
 _Z13mx_el_not_andRK10intNDArrayI10octave_intItEERK12FloatNDArray@Base 3.4.3
 _Z13mx_el_not_andRK10intNDArrayI10octave_intItEERK7NDArray@Base 3.4.3
 _Z13mx_el_not_andRK10intNDArrayI10octave_intItEERKS0_IaE@Base 3.4.3
 _Z13mx_el_not_andRK10intNDArrayI10octave_intItEERKS0_IhE@Base 3.4.3
 _Z13mx_el_not_andRK10intNDArrayI10octave_intItEERKS0_IiE@Base 3.4.3
 _Z13mx_el_not_andRK10intNDArrayI10octave_intItEERKS0_IjE@Base 3.4.3
 _Z13mx_el_not_andRK10intNDArrayI10octave_intItEERKS0_IsE@Base 3.4.3
 _Z13mx_el_not_andRK10intNDArrayI10octave_intItEERKS1_@Base 3.4.3
 _Z13mx_el_not_andRK10intNDArrayI10octave_intItEERKS_IS0_IaEE@Base 3.4.3
 _Z13mx_el_not_andRK10intNDArrayI10octave_intItEERKS_IS0_IhEE@Base 3.4.3
 _Z13mx_el_not_andRK10intNDArrayI10octave_intItEERKS_IS0_IiEE@Base 3.4.3
 _Z13mx_el_not_andRK10intNDArrayI10octave_intItEERKS_IS0_IjEE@Base 3.4.3
 _Z13mx_el_not_andRK10intNDArrayI10octave_intItEERKS_IS0_IsEE@Base 3.4.3
 _Z13mx_el_not_andRK10intNDArrayI10octave_intItEERKd@Base 3.4.3
 _Z13mx_el_not_andRK10intNDArrayI10octave_intItEERKf@Base 3.4.3
 _Z13mx_el_not_andRK10intNDArrayI10octave_intItEES4_@Base 3.4.3
 _Z13mx_el_not_andRK10octave_intIaERK10intNDArrayIS0_E@Base 3.4.3
 _Z13mx_el_not_andRK10octave_intIaERK10intNDArrayIS_IhEE@Base 3.4.3
 _Z13mx_el_not_andRK10octave_intIaERK10intNDArrayIS_IiEE@Base 3.4.3
 _Z13mx_el_not_andRK10octave_intIaERK10intNDArrayIS_IjEE@Base 3.4.3
 _Z13mx_el_not_andRK10octave_intIaERK10intNDArrayIS_IsEE@Base 3.4.3
 _Z13mx_el_not_andRK10octave_intIaERK10intNDArrayIS_ItEE@Base 3.4.3
 _Z13mx_el_not_andRK10octave_intIaERK12FloatNDArray@Base 3.4.3
 _Z13mx_el_not_andRK10octave_intIaERK7NDArray@Base 3.4.3
 _Z13mx_el_not_andRK10octave_intIhERK10intNDArrayIS0_E@Base 3.4.3
 _Z13mx_el_not_andRK10octave_intIhERK10intNDArrayIS_IaEE@Base 3.4.3
 _Z13mx_el_not_andRK10octave_intIhERK10intNDArrayIS_IiEE@Base 3.4.3
 _Z13mx_el_not_andRK10octave_intIhERK10intNDArrayIS_IjEE@Base 3.4.3
 _Z13mx_el_not_andRK10octave_intIhERK10intNDArrayIS_IsEE@Base 3.4.3
 _Z13mx_el_not_andRK10octave_intIhERK10intNDArrayIS_ItEE@Base 3.4.3
 _Z13mx_el_not_andRK10octave_intIhERK12FloatNDArray@Base 3.4.3
 _Z13mx_el_not_andRK10octave_intIhERK7NDArray@Base 3.4.3
 _Z13mx_el_not_andRK10octave_intIiERK10intNDArrayIS0_E@Base 3.4.3
 _Z13mx_el_not_andRK10octave_intIiERK10intNDArrayIS_IaEE@Base 3.4.3
 _Z13mx_el_not_andRK10octave_intIiERK10intNDArrayIS_IhEE@Base 3.4.3
 _Z13mx_el_not_andRK10octave_intIiERK10intNDArrayIS_IjEE@Base 3.4.3
 _Z13mx_el_not_andRK10octave_intIiERK10intNDArrayIS_IsEE@Base 3.4.3
 _Z13mx_el_not_andRK10octave_intIiERK10intNDArrayIS_ItEE@Base 3.4.3
 _Z13mx_el_not_andRK10octave_intIiERK12FloatNDArray@Base 3.4.3
 _Z13mx_el_not_andRK10octave_intIiERK7NDArray@Base 3.4.3
 _Z13mx_el_not_andRK10octave_intIjERK10intNDArrayIS0_E@Base 3.4.3
 _Z13mx_el_not_andRK10octave_intIjERK10intNDArrayIS_IaEE@Base 3.4.3
 _Z13mx_el_not_andRK10octave_intIjERK10intNDArrayIS_IhEE@Base 3.4.3
 _Z13mx_el_not_andRK10octave_intIjERK10intNDArrayIS_IiEE@Base 3.4.3
 _Z13mx_el_not_andRK10octave_intIjERK10intNDArrayIS_IsEE@Base 3.4.3
 _Z13mx_el_not_andRK10octave_intIjERK10intNDArrayIS_ItEE@Base 3.4.3
 _Z13mx_el_not_andRK10octave_intIjERK12FloatNDArray@Base 3.4.3
 _Z13mx_el_not_andRK10octave_intIjERK7NDArray@Base 3.4.3
 _Z13mx_el_not_andRK10octave_intIsERK10intNDArrayIS0_E@Base 3.4.3
 _Z13mx_el_not_andRK10octave_intIsERK10intNDArrayIS_IaEE@Base 3.4.3
 _Z13mx_el_not_andRK10octave_intIsERK10intNDArrayIS_IhEE@Base 3.4.3
 _Z13mx_el_not_andRK10octave_intIsERK10intNDArrayIS_IiEE@Base 3.4.3
 _Z13mx_el_not_andRK10octave_intIsERK10intNDArrayIS_IjEE@Base 3.4.3
 _Z13mx_el_not_andRK10octave_intIsERK10intNDArrayIS_ItEE@Base 3.4.3
 _Z13mx_el_not_andRK10octave_intIsERK12FloatNDArray@Base 3.4.3
 _Z13mx_el_not_andRK10octave_intIsERK7NDArray@Base 3.4.3
 _Z13mx_el_not_andRK10octave_intItERK10intNDArrayIS0_E@Base 3.4.3
 _Z13mx_el_not_andRK10octave_intItERK10intNDArrayIS_IaEE@Base 3.4.3
 _Z13mx_el_not_andRK10octave_intItERK10intNDArrayIS_IhEE@Base 3.4.3
 _Z13mx_el_not_andRK10octave_intItERK10intNDArrayIS_IiEE@Base 3.4.3
 _Z13mx_el_not_andRK10octave_intItERK10intNDArrayIS_IjEE@Base 3.4.3
 _Z13mx_el_not_andRK10octave_intItERK10intNDArrayIS_IsEE@Base 3.4.3
 _Z13mx_el_not_andRK10octave_intItERK12FloatNDArray@Base 3.4.3
 _Z13mx_el_not_andRK10octave_intItERK7NDArray@Base 3.4.3
 _Z13mx_el_not_andRK11boolNDArrayRKb@Base 3.4.3
 _Z13mx_el_not_andRK11boolNDArrayS1_@Base 3.4.3
 _Z13mx_el_not_andRK11charNDArrayRKc@Base 3.4.3
 _Z13mx_el_not_andRK11charNDArrayS1_@Base 3.4.3
 _Z13mx_el_not_andRK12FloatNDArrayRK10intNDArrayI10octave_intIaEE@Base 3.4.3
 _Z13mx_el_not_andRK12FloatNDArrayRK10intNDArrayI10octave_intIhEE@Base 3.4.3
 _Z13mx_el_not_andRK12FloatNDArrayRK10intNDArrayI10octave_intIiEE@Base 3.4.3
 _Z13mx_el_not_andRK12FloatNDArrayRK10intNDArrayI10octave_intIjEE@Base 3.4.3
 _Z13mx_el_not_andRK12FloatNDArrayRK10intNDArrayI10octave_intIsEE@Base 3.4.3
 _Z13mx_el_not_andRK12FloatNDArrayRK10intNDArrayI10octave_intItEE@Base 3.4.3
 _Z13mx_el_not_andRK12FloatNDArrayRK10octave_intIaE@Base 3.4.3
 _Z13mx_el_not_andRK12FloatNDArrayRK10octave_intIhE@Base 3.4.3
 _Z13mx_el_not_andRK12FloatNDArrayRK10octave_intIiE@Base 3.4.3
 _Z13mx_el_not_andRK12FloatNDArrayRK10octave_intIjE@Base 3.4.3
 _Z13mx_el_not_andRK12FloatNDArrayRK10octave_intIsE@Base 3.4.3
 _Z13mx_el_not_andRK12FloatNDArrayRK10octave_intItE@Base 3.4.3
 _Z13mx_el_not_andRK12FloatNDArrayRK19FloatComplexNDArray@Base 3.4.3
 _Z13mx_el_not_andRK12FloatNDArrayRKSt7complexIfE@Base 3.4.3
 _Z13mx_el_not_andRK12FloatNDArrayRKf@Base 3.4.3
 _Z13mx_el_not_andRK12FloatNDArrayS1_@Base 3.4.3
 _Z13mx_el_not_andRK14ComplexNDArrayRK7NDArray@Base 3.4.3
 _Z13mx_el_not_andRK14ComplexNDArrayRKSt7complexIdE@Base 3.4.3
 _Z13mx_el_not_andRK14ComplexNDArrayRKd@Base 3.4.3
 _Z13mx_el_not_andRK14ComplexNDArrayS1_@Base 3.4.3
 _Z13mx_el_not_andRK19FloatComplexNDArrayRK12FloatNDArray@Base 3.4.3
 _Z13mx_el_not_andRK19FloatComplexNDArrayRKSt7complexIfE@Base 3.4.3
 _Z13mx_el_not_andRK19FloatComplexNDArrayRKf@Base 3.4.3
 _Z13mx_el_not_andRK19FloatComplexNDArrayS1_@Base 3.4.3
 _Z13mx_el_not_andRK7NDArrayRK10intNDArrayI10octave_intIaEE@Base 3.4.3
 _Z13mx_el_not_andRK7NDArrayRK10intNDArrayI10octave_intIhEE@Base 3.4.3
 _Z13mx_el_not_andRK7NDArrayRK10intNDArrayI10octave_intIiEE@Base 3.4.3
 _Z13mx_el_not_andRK7NDArrayRK10intNDArrayI10octave_intIjEE@Base 3.4.3
 _Z13mx_el_not_andRK7NDArrayRK10intNDArrayI10octave_intIsEE@Base 3.4.3
 _Z13mx_el_not_andRK7NDArrayRK10intNDArrayI10octave_intItEE@Base 3.4.3
 _Z13mx_el_not_andRK7NDArrayRK10octave_intIaE@Base 3.4.3
 _Z13mx_el_not_andRK7NDArrayRK10octave_intIhE@Base 3.4.3
 _Z13mx_el_not_andRK7NDArrayRK10octave_intIiE@Base 3.4.3
 _Z13mx_el_not_andRK7NDArrayRK10octave_intIjE@Base 3.4.3
 _Z13mx_el_not_andRK7NDArrayRK10octave_intIsE@Base 3.4.3
 _Z13mx_el_not_andRK7NDArrayRK10octave_intItE@Base 3.4.3
 _Z13mx_el_not_andRK7NDArrayRK14ComplexNDArray@Base 3.4.3
 _Z13mx_el_not_andRK7NDArrayRKSt7complexIdE@Base 3.4.3
 _Z13mx_el_not_andRK7NDArrayRKd@Base 3.4.3
 _Z13mx_el_not_andRK7NDArrayS1_@Base 3.4.3
 _Z13mx_el_not_andRKSt7complexIdERK14ComplexNDArray@Base 3.4.3
 _Z13mx_el_not_andRKSt7complexIdERK7NDArray@Base 3.4.3
 _Z13mx_el_not_andRKSt7complexIfERK12FloatNDArray@Base 3.4.3
 _Z13mx_el_not_andRKSt7complexIfERK19FloatComplexNDArray@Base 3.4.3
 _Z13mx_el_not_andRKbRK11boolNDArray@Base 3.4.3
 _Z13mx_el_not_andRKcRK11charNDArray@Base 3.4.3
 _Z13mx_el_not_andRKdRK10intNDArrayI10octave_intIaEE@Base 3.4.3
 _Z13mx_el_not_andRKdRK10intNDArrayI10octave_intIhEE@Base 3.4.3
 _Z13mx_el_not_andRKdRK10intNDArrayI10octave_intIiEE@Base 3.4.3
 _Z13mx_el_not_andRKdRK10intNDArrayI10octave_intIjEE@Base 3.4.3
 _Z13mx_el_not_andRKdRK10intNDArrayI10octave_intIsEE@Base 3.4.3
 _Z13mx_el_not_andRKdRK10intNDArrayI10octave_intItEE@Base 3.4.3
 _Z13mx_el_not_andRKdRK14ComplexNDArray@Base 3.4.3
 _Z13mx_el_not_andRKdRK7NDArray@Base 3.4.3
 _Z13mx_el_not_andRKfRK10intNDArrayI10octave_intIaEE@Base 3.4.3
 _Z13mx_el_not_andRKfRK10intNDArrayI10octave_intIhEE@Base 3.4.3
 _Z13mx_el_not_andRKfRK10intNDArrayI10octave_intIiEE@Base 3.4.3
 _Z13mx_el_not_andRKfRK10intNDArrayI10octave_intIjEE@Base 3.4.3
 _Z13mx_el_not_andRKfRK10intNDArrayI10octave_intIsEE@Base 3.4.3
 _Z13mx_el_not_andRKfRK10intNDArrayI10octave_intItEE@Base 3.4.3
 _Z13mx_el_not_andRKfRK12FloatNDArray@Base 3.4.3
 _Z13mx_el_not_andRKfRK19FloatComplexNDArray@Base 3.4.3
# not part of API (private function)
 (c++|regex|optional=notPartOfAPI)"void mx_inline_all<.*@Base" 3.4.3
# not part of API (private function)
 (c++|regex|optional=notPartOfAPI)"void mx_inline_any<.*@Base" 3.4.3
# not part of API (private function)
 (c++|regex|optional=notPartOfAPI)"void mx_inline_div2<.*@Base" 3.4.3
# not part of API (private function)
 (c++|regex|optional=notPartOfAPI)"void mx_inline_max<.*@Base" 3.4.3
# not part of API (private function)
 (c++|regex|optional=notPartOfAPI)"void mx_inline_min<.*@Base" 3.4.3
 _Z13mx_inline_sumI10octave_intIaEEvPKT_PS2_iii@Base 3.4.3
 _Z13mx_inline_sumI10octave_intIhEEvPKT_PS2_iii@Base 3.4.3
 _Z13mx_inline_sumI10octave_intIiEEvPKT_PS2_iii@Base 3.4.3
 _Z13mx_inline_sumI10octave_intIjEEvPKT_PS2_iii@Base 3.4.3
 _Z13mx_inline_sumI10octave_intIsEEvPKT_PS2_iii@Base 3.4.3
 _Z13mx_inline_sumI10octave_intItEEvPKT_PS2_iii@Base 3.4.3
 _Z13mx_inline_sumISt7complexIdEEvPKT_PS2_iii@Base 3.4.3
 _Z13mx_inline_sumISt7complexIfEEvPKT_PS2_iii@Base 3.4.3
 _Z13mx_inline_sumIdEvPKT_PS0_iii@Base 3.4.3
 _Z13mx_inline_sumIfEvPKT_PS0_iii@Base 3.4.3
 _Z13octave_getcwdv@Base 3.4.3
 (arch=!kfreebsd-i386 !kfreebsd-amd64)_Z13octave_mkfifoRKSsj@Base 3.4.3
 (arch=!kfreebsd-i386 !kfreebsd-amd64)_Z13octave_mkfifoRKSsjRSs@Base 3.4.3
 (arch=kfreebsd-i386 kfreebsd-amd64)_Z13octave_mkfifoRKSst@Base 3.4.3
 (arch=kfreebsd-i386 kfreebsd-amd64)_Z13octave_mkfifoRKSstRSs@Base 3.4.3
 _Z13octave_putenvRKSsS0_@Base 3.4.3
 _Z13octave_renameRKSsS0_@Base 3.4.3
 _Z13octave_renameRKSsS0_RSs@Base 3.4.3
 _Z13octave_unlinkRKSs@Base 3.4.3
 _Z13octave_unlinkRKSsRSs@Base 3.4.3
 _Z13write_doublesRSoPKd9save_typei@Base 3.4.3
 _Z14any_orig_emptyRK5ArrayI10idx_vectorE@Base 3.4.3
# inline method in the header file => always available!
 (c++|regex|optional=inlineMethod)"^void fill_or_memset<.*>\(.*\)@Base" 3.4.3
# inline method in the header file => always available!
 (c++|regex|optional=inlineMethod)"^fill_or_memset\(.*\)@Base" 3.4.3
 _Z14get_scalar_idxR5ArrayIiER10dim_vector@Base 3.4.3
# not part of API (private function)
 (c++|regex|optional=notPartOfAPI)"void mx_inline_add2<.*@Base" 3.4.3
 _Z14mx_inline_diffI10octave_intIaEEvPKT_PS2_ii@Base 3.4.3
 _Z14mx_inline_diffI10octave_intIaEEvPKT_PS2_iii@Base 3.4.3
 _Z14mx_inline_diffI10octave_intIaEEvPKT_PS2_iiii@Base 3.4.3
 _Z14mx_inline_diffI10octave_intIhEEvPKT_PS2_ii@Base 3.4.3
 _Z14mx_inline_diffI10octave_intIhEEvPKT_PS2_iii@Base 3.4.3
 _Z14mx_inline_diffI10octave_intIhEEvPKT_PS2_iiii@Base 3.4.3
 _Z14mx_inline_diffI10octave_intIiEEvPKT_PS2_ii@Base 3.4.3
 _Z14mx_inline_diffI10octave_intIiEEvPKT_PS2_iii@Base 3.4.3
 _Z14mx_inline_diffI10octave_intIiEEvPKT_PS2_iiii@Base 3.4.3
 _Z14mx_inline_diffI10octave_intIjEEvPKT_PS2_ii@Base 3.4.3
 _Z14mx_inline_diffI10octave_intIjEEvPKT_PS2_iii@Base 3.4.3
 _Z14mx_inline_diffI10octave_intIjEEvPKT_PS2_iiii@Base 3.4.3
 _Z14mx_inline_diffI10octave_intIsEEvPKT_PS2_ii@Base 3.4.3
 _Z14mx_inline_diffI10octave_intIsEEvPKT_PS2_iii@Base 3.4.3
 _Z14mx_inline_diffI10octave_intIsEEvPKT_PS2_iiii@Base 3.4.3
 _Z14mx_inline_diffI10octave_intItEEvPKT_PS2_ii@Base 3.4.3
 _Z14mx_inline_diffI10octave_intItEEvPKT_PS2_iii@Base 3.4.3
 _Z14mx_inline_diffI10octave_intItEEvPKT_PS2_iiii@Base 3.4.3
 _Z14mx_inline_diffISt7complexIdEEvPKT_PS2_ii@Base 3.4.3
 _Z14mx_inline_diffISt7complexIdEEvPKT_PS2_iii@Base 3.4.3
 _Z14mx_inline_diffISt7complexIdEEvPKT_PS2_iiii@Base 3.4.3
 _Z14mx_inline_diffISt7complexIfEEvPKT_PS2_ii@Base 3.4.3
 _Z14mx_inline_diffISt7complexIfEEvPKT_PS2_iii@Base 3.4.3
 _Z14mx_inline_diffISt7complexIfEEvPKT_PS2_iiii@Base 3.4.3
 _Z14mx_inline_diffIdEvPKT_PS0_ii@Base 3.4.3
 _Z14mx_inline_diffIdEvPKT_PS0_iii@Base 3.4.3
 _Z14mx_inline_diffIdEvPKT_PS0_iiii@Base 3.4.3
 _Z14mx_inline_diffIfEvPKT_PS0_ii@Base 3.4.3
 _Z14mx_inline_diffIfEvPKT_PS0_iii@Base 3.4.3
 _Z14mx_inline_diffIfEvPKT_PS0_iiii@Base 3.4.3
 _Z14mx_inline_dsumI10octave_intIaEEvPKT_PN20subst_template_paramISt7complexS2_dE4typeEiii@Base 3.4.3
 _Z14mx_inline_dsumI10octave_intIhEEvPKT_PN20subst_template_paramISt7complexS2_dE4typeEiii@Base 3.4.3
 _Z14mx_inline_dsumI10octave_intIiEEvPKT_PN20subst_template_paramISt7complexS2_dE4typeEiii@Base 3.4.3
 _Z14mx_inline_dsumI10octave_intIjEEvPKT_PN20subst_template_paramISt7complexS2_dE4typeEiii@Base 3.4.3
 _Z14mx_inline_dsumI10octave_intIsEEvPKT_PN20subst_template_paramISt7complexS2_dE4typeEiii@Base 3.4.3
 _Z14mx_inline_dsumI10octave_intItEEvPKT_PN20subst_template_paramISt7complexS2_dE4typeEiii@Base 3.4.3
 _Z14mx_inline_dsumISt7complexIfEEvPKT_PN20subst_template_paramIS0_S2_dE4typeEiii@Base 3.4.3
 _Z14mx_inline_dsumIfEvPKT_PN20subst_template_paramISt7complexS0_dE4typeEiii@Base 3.4.3
# not part of API (private function)
 (c++|regex|optional=notPartOfAPI)"void mx_inline_mul2<.*@Base" 3.4.3
 _Z14mx_inline_prodISt7complexIdEEvPKT_PS2_iii@Base 3.4.3
 _Z14mx_inline_prodISt7complexIfEEvPKT_PS2_iii@Base 3.4.3
 _Z14mx_inline_prodIdEvPKT_PS0_iii@Base 3.4.3
 _Z14mx_inline_prodIfEvPKT_PS0_iii@Base 3.4.3
# not part of API (private function)
 (c++|regex|optional=notPartOfAPI)"void mx_inline_sub2<.*@Base" 3.4.3
 _Z14mx_inline_xsumISt7complexIdEEvPKT_PS2_ii@Base 3.4.3
 _Z14mx_inline_xsumISt7complexIdEEvPKT_PS2_iii@Base 3.4.3
 _Z14mx_inline_xsumIdEvPKT_PS0_iii@Base 3.4.3
 _Z14octave_fnmatchRK13string_vectorRKSsi@Base 3.4.3
 _Z14octave_symlinkRKSsS0_@Base 3.4.3
 _Z14octave_symlinkRKSsS0_RSs@Base 3.4.3
 _Z14octave_tempnamRKSsS0_@Base 3.4.3
 _Z14octave_tempnamRKSsS0_RSs@Base 3.4.3
 _Z14xnegative_signd@Base 3.4.3
 _Z14xnegative_signf@Base 3.4.3
 _Z15SparseCholErroriPKciS0_@Base 3.4.3
 _Z15SparseCholErroriPciS_@Base 3.4.3
 _Z15SparseCholPrintPKcz@Base 3.4.3
 _Z15all_colon_equivRK5ArrayI10idx_vectorERK10dim_vector@Base 3.4.3
# not part of API (private function)
 (c++|regex|optional=notPartOfAPI)"Array<.*> do_mx_minmax_op<.*@Base" 3.4.3
 _Z15increment_indexR5ArrayIiERK10dim_vectori@Base 3.4.3
 _Z15index_in_boundsRK5ArrayIiERK10dim_vector@Base 3.4.3
 _Z15mx_el_or_assignR11boolNDArrayRKS_@Base 3.4.3
 _Z15mx_inline_countIiEvPKbPT_iii@Base 3.4.3
 _Z15mx_inline_sumsqIdEvPKSt7complexIT_EPS1_iii@Base 3.4.3
 _Z15mx_inline_sumsqIdEvPKT_PS0_iii@Base 3.4.3
 _Z15mx_inline_sumsqIfEvPKSt7complexIT_EPS1_iii@Base 3.4.3
 _Z15mx_inline_sumsqIfEvPKT_PS0_iii@Base 3.4.3
 _Z15octave_readlinkRKSsRSs@Base 3.4.3
 _Z15octave_readlinkRKSsRSsS1_@Base 3.4.3
 _Z15safe_comparator8sortmodeRK5ArrayI10idx_vectorEb@Base 3.4.3
 _Z15safe_comparator8sortmodeRK5ArrayIPvEb@Base 3.4.3
 _Z15safe_comparator8sortmodeRK5ArrayISt7complexIdEEb@Base 3.4.3
 _Z15safe_comparator8sortmodeRK5ArrayISt7complexIfEEb@Base 3.4.3
 _Z15safe_comparator8sortmodeRK5ArrayIdEb@Base 3.4.3
 _Z15safe_comparator8sortmodeRK5ArrayIfEb@Base 3.4.3
 _Z15xis_one_or_zerod@Base 3.4.3
 _Z15xis_one_or_zerof@Base 3.4.3
 _Z16mx_el_and_assignR11boolNDArrayRKS_@Base 3.4.3
# not part of API (private function)
 (c++|regex|optional=notPartOfAPI)"void mx_inline_cummax<.*@Base" 3.4.3
# not part of API (private function)
 (c++|regex|optional=notPartOfAPI)"void mx_inline_cummin<.*@Base" 3.4.3
 _Z16mx_inline_cumsumI10octave_intIaEEvPKT_PS2_iii@Base 3.4.3
 _Z16mx_inline_cumsumI10octave_intIhEEvPKT_PS2_iii@Base 3.4.3
 _Z16mx_inline_cumsumI10octave_intIiEEvPKT_PS2_iii@Base 3.4.3
 _Z16mx_inline_cumsumI10octave_intIjEEvPKT_PS2_iii@Base 3.4.3
 _Z16mx_inline_cumsumI10octave_intIsEEvPKT_PS2_iii@Base 3.4.3
 _Z16mx_inline_cumsumI10octave_intItEEvPKT_PS2_iii@Base 3.4.3
 _Z16mx_inline_cumsumISt7complexIdEEvPKT_PS2_iii@Base 3.4.3
 _Z16mx_inline_cumsumISt7complexIfEEvPKT_PS2_iii@Base 3.4.3
 _Z16mx_inline_cumsumIdEvPKT_PS0_iii@Base 3.4.3
 _Z16mx_inline_cumsumIfEvPKT_PS0_iii@Base 3.4.3
 _Z17conv_to_int_arrayRK5ArrayI10idx_vectorE@Base 3.4.3
 _Z17matrix_real_probeIdEN10MatrixType11matrix_typeERK6MArrayIT_E@Base 3.4.3
 _Z17matrix_real_probeIfEN10MatrixType11matrix_typeERK6MArrayIT_E@Base 3.4.3
 _Z17mx_inline_cumprodISt7complexIdEEvPKT_PS2_iii@Base 3.4.3
 _Z17mx_inline_cumprodISt7complexIfEEvPKT_PS2_iii@Base 3.4.3
 _Z17mx_inline_cumprodIdEvPKT_PS0_iii@Base 3.4.3
 _Z17mx_inline_cumprodIfEvPKT_PS0_iii@Base 3.4.3
 _Z17octave_read_valueISt7complexIdEET_RSi@Base 3.4.3
 _Z17octave_read_valueISt7complexIfEET_RSi@Base 3.4.3
 _Z17octave_read_valueIbET_RSi@Base 3.4.3
 _Z17octave_read_valueIdET_RSi@Base 3.4.3
 _Z17octave_read_valueIfET_RSi@Base 3.4.3
 _Z17sparse_indices_okPiS_iii@Base 3.4.3
 _Z17vector_equivalentRK10dim_vector@Base 3.4.3
 _Z17zero_dims_inquireRK10idx_vectorS1_RK10dim_vector@Base 3.4.3
 _Z17zero_dims_inquireRK5ArrayI10idx_vectorERK10dim_vector@Base 3.4.3
 _Z18do_mx_cumminmax_opI10octave_intIaEE5ArrayIT_ERKS4_RS2_IiEiPFvPKS3_PS3_PiiiiE@Base 3.4.3
 _Z18do_mx_cumminmax_opI10octave_intIhEE5ArrayIT_ERKS4_RS2_IiEiPFvPKS3_PS3_PiiiiE@Base 3.4.3
 _Z18do_mx_cumminmax_opI10octave_intIiEE5ArrayIT_ERKS4_RS2_IiEiPFvPKS3_PS3_PiiiiE@Base 3.4.3
 _Z18do_mx_cumminmax_opI10octave_intIjEE5ArrayIT_ERKS4_RS2_IiEiPFvPKS3_PS3_PiiiiE@Base 3.4.3
 _Z18do_mx_cumminmax_opI10octave_intIsEE5ArrayIT_ERKS4_RS2_IiEiPFvPKS3_PS3_PiiiiE@Base 3.4.3
 _Z18do_mx_cumminmax_opI10octave_intItEE5ArrayIT_ERKS4_RS2_IiEiPFvPKS3_PS3_PiiiiE@Base 3.4.3
 _Z18do_mx_cumminmax_opISt7complexIdEE5ArrayIT_ERKS4_RS2_IiEiPFvPKS3_PS3_PiiiiE@Base 3.4.3
 _Z18do_mx_cumminmax_opISt7complexIfEE5ArrayIT_ERKS4_RS2_IiEiPFvPKS3_PS3_PiiiiE@Base 3.4.3
 _Z18do_mx_cumminmax_opIdE5ArrayIT_ERKS2_RS0_IiEiPFvPKS1_PS1_PiiiiE@Base 3.4.3
 _Z18do_mx_cumminmax_opIfE5ArrayIT_ERKS2_RS0_IiEiPFvPKS1_PS1_PiiiiE@Base 3.4.3
 _Z18get_extent_tripletRK10dim_vectorRiS2_S2_S2_@Base 3.4.3
 _Z18inner_do_add_sm_dmI12SparseMatrixS0_10DiagMatrix12identity_valIdES3_ET_RKT0_RKT1_T2_T3_@Base 3.4.3
 _Z18inner_do_add_sm_dmI12SparseMatrixS0_10DiagMatrix12identity_valIdESt6negateIdEET_RKT0_RKT1_T2_T3_@Base 3.4.3
 _Z18inner_do_add_sm_dmI12SparseMatrixS0_10DiagMatrixSt6negateIdE12identity_valIdEET_RKT0_RKT1_T2_T3_@Base 3.4.3
 _Z18inner_do_add_sm_dmI19SparseComplexMatrix12SparseMatrix17ComplexDiagMatrix12identity_valIdES3_ISt7complexIdEEET_RKT0_RKT1_T2_T3_@Base 3.4.3
 _Z18inner_do_add_sm_dmI19SparseComplexMatrix12SparseMatrix17ComplexDiagMatrix12identity_valIdESt6negateISt7complexIdEEET_RKT0_RKT1_T2_T3_@Base 3.4.3
 _Z18inner_do_add_sm_dmI19SparseComplexMatrix12SparseMatrix17ComplexDiagMatrixSt6negateIdE12identity_valISt7complexIdEEET_RKT0_RKT1_T2_T3_@Base 3.4.3
 _Z18inner_do_add_sm_dmI19SparseComplexMatrixS0_10DiagMatrix12identity_valISt7complexIdEES2_IdEET_RKT0_RKT1_T2_T3_@Base 3.4.3
 _Z18inner_do_add_sm_dmI19SparseComplexMatrixS0_10DiagMatrix12identity_valISt7complexIdEESt6negateIdEET_RKT0_RKT1_T2_T3_@Base 3.4.3
 _Z18inner_do_add_sm_dmI19SparseComplexMatrixS0_10DiagMatrixSt6negateISt7complexIdEE12identity_valIdEET_RKT0_RKT1_T2_T3_@Base 3.4.3
 _Z18inner_do_add_sm_dmI19SparseComplexMatrixS0_17ComplexDiagMatrix12identity_valISt7complexIdEES5_ET_RKT0_RKT1_T2_T3_@Base 3.4.3
 _Z18inner_do_add_sm_dmI19SparseComplexMatrixS0_17ComplexDiagMatrix12identity_valISt7complexIdEESt6negateIS4_EET_RKT0_RKT1_T2_T3_@Base 3.4.3
 _Z18inner_do_add_sm_dmI19SparseComplexMatrixS0_17ComplexDiagMatrixSt6negateISt7complexIdEE12identity_valIS4_EET_RKT0_RKT1_T2_T3_@Base 3.4.3
 _Z18mx_inline_cumcountIdEvPKbPT_iii@Base 3.4.3
 _Z18octave_write_floatRSof@Base 3.4.3
 _Z18read_sparse_matrixISt7complexIdEERSiS2_R6SparseIT_EPFS4_S2_E@Base 3.4.3
 _Z18read_sparse_matrixIbERSiS0_R6SparseIT_EPFS2_S0_E@Base 3.4.3
 _Z18read_sparse_matrixIdERSiS0_R6SparseIT_EPFS2_S0_E@Base 3.4.3
 _Z19gripe_invalid_indexv@Base 3.4.3
 _Z19gripe_nonconformantPKcRK10dim_vectorS3_@Base 3.4.3
 _Z19gripe_nonconformantPKcii@Base 3.4.3
 _Z19gripe_nonconformantPKciiii@Base 3.4.3
 _Z19octave_is_NaN_or_NARKSt7complexIdE@Base 3.4.3
 _Z19octave_is_NaN_or_NARKSt7complexIfE@Base 3.4.3
 _Z19octave_is_NaN_or_NAd@Base 3.4.3
 _Z19octave_is_NaN_or_NAf@Base 3.4.3
 _Z19octave_write_doubleRSod@Base 3.4.3
 _Z20gripe_invalid_resizev@Base 3.4.3
 _Z20matrix_complex_probeIdEN10MatrixType11matrix_typeERK6MArrayISt7complexIT_EE@Base 3.4.3
 _Z20matrix_complex_probeIfEN10MatrixType11matrix_typeERK6MArrayISt7complexIT_EE@Base 3.4.3
 _Z20octave_write_complexRSoRKSt7complexIdE@Base 3.4.3
 _Z20xtoo_large_for_floatd@Base 3.4.3
 _Z21xis_int_or_inf_or_nand@Base 3.4.3
 _Z21xis_int_or_inf_or_nanf@Base 3.4.3
 _Z22octave_idx_vector_compP22octave_idx_vector_sortS0_@Base 3.4.3
 _Z22octave_recursive_rmdirRKSs@Base 3.4.3
 _Z22octave_recursive_rmdirRKSsRSs@Base 3.4.3
 _Z22permute_vector_comparePKvS0_@Base 3.4.3
 _Z24gripe_index_out_of_rangeiiii@Base 3.4.3
 _Z24octave_sparse_sidxl_compP23octave_sparse_sort_idxlS0_@Base 3.4.3
 _Z24octinternal_do_mul_pm_smI12SparseMatrixET_RK10PermMatrixRKS1_@Base 3.4.3
 _Z24octinternal_do_mul_pm_smI19SparseComplexMatrixET_RK10PermMatrixRKS1_@Base 3.4.3
 _Z24octinternal_do_mul_sm_pmI12SparseMatrixET_RKS1_RK10PermMatrix@Base 3.4.3
 _Z24octinternal_do_mul_sm_pmI19SparseComplexMatrixET_RKS1_RK10PermMatrix@Base 3.4.3
 _Z24sparse_ascending_compareISt7complexIdEEbN9ref_paramIT_E4typeES5_@Base 3.4.3
 _Z24sparse_ascending_compareIbEbN9ref_paramIT_E4typeES3_@Base 3.4.3
 _Z24sparse_ascending_compareIdEbN9ref_paramIT_E4typeES3_@Base 3.4.3
 _Z25sparse_descending_compareISt7complexIdEEbN9ref_paramIT_E4typeES5_@Base 3.4.3
 _Z25sparse_descending_compareIbEbN9ref_paramIT_E4typeES3_@Base 3.4.3
 _Z25sparse_descending_compareIdEbN9ref_paramIT_E4typeES3_@Base 3.4.3
 _Z26do_float_format_conversionPviN13oct_mach_info12float_formatES1_@Base 3.4.3
 _Z26octave_write_float_complexRSoRKSt7complexIfE@Base 3.4.3
 _Z27do_double_format_conversionPviN13oct_mach_info12float_formatES1_@Base 3.4.3
 _Z27octinternal_do_mul_colpm_smI12SparseMatrixET_PKiRKS1_@Base 3.4.3
 _Z27octinternal_do_mul_colpm_smI19SparseComplexMatrixET_PKiRKS1_@Base 3.4.3
 _Z27octinternal_do_mul_sm_colpmI12SparseMatrixET_RKS1_PKi@Base 3.4.3
 _Z27octinternal_do_mul_sm_colpmI19SparseComplexMatrixET_RKS1_PKi@Base 3.4.3
 _Z27octinternal_do_mul_sm_rowpmI12SparseMatrixET_RKS1_PKi@Base 3.4.3
 _Z27octinternal_do_mul_sm_rowpmI19SparseComplexMatrixET_RKS1_PKi@Base 3.4.3
 _Z28gripe_del_index_out_of_rangebii@Base 3.4.3
 _Z29gripe_invalid_assignment_sizev@Base 3.4.3
 _Z29octave_canonicalize_file_nameRKSs@Base 3.4.3
 _Z29octave_canonicalize_file_nameRKSsRSs@Base 3.4.3
 _Z31gripe_nan_to_logical_conversionv@Base 3.4.3
 _Z33gripe_nan_to_character_conversionv@Base 3.4.3
 _Z35gripe_assignment_dimension_mismatchv@Base 3.4.3
 _Z3max10octave_intIaERK10intNDArrayIS0_E@Base 3.4.3
 _Z3max10octave_intIhERK10intNDArrayIS0_E@Base 3.4.3
 _Z3max10octave_intIiERK10intNDArrayIS0_E@Base 3.4.3
 _Z3max10octave_intIjERK10intNDArrayIS0_E@Base 3.4.3
 _Z3max10octave_intIsERK10intNDArrayIS0_E@Base 3.4.3
 _Z3max10octave_intItERK10intNDArrayIS0_E@Base 3.4.3
 _Z3maxRK10intNDArrayI10octave_intIaEES1_@Base 3.4.3
 _Z3maxRK10intNDArrayI10octave_intIaEES4_@Base 3.4.3
 _Z3maxRK10intNDArrayI10octave_intIhEES1_@Base 3.4.3
 _Z3maxRK10intNDArrayI10octave_intIhEES4_@Base 3.4.3
 _Z3maxRK10intNDArrayI10octave_intIiEES1_@Base 3.4.3
 _Z3maxRK10intNDArrayI10octave_intIiEES4_@Base 3.4.3
 _Z3maxRK10intNDArrayI10octave_intIjEES1_@Base 3.4.3
 _Z3maxRK10intNDArrayI10octave_intIjEES4_@Base 3.4.3
 _Z3maxRK10intNDArrayI10octave_intIsEES1_@Base 3.4.3
 _Z3maxRK10intNDArrayI10octave_intIsEES4_@Base 3.4.3
 _Z3maxRK10intNDArrayI10octave_intItEES1_@Base 3.4.3
 _Z3maxRK10intNDArrayI10octave_intItEES4_@Base 3.4.3
 _Z3maxRK11FloatMatrixS1_@Base 3.4.3
 _Z3maxRK11FloatMatrixf@Base 3.4.3
 _Z3maxRK12FloatNDArrayS1_@Base 3.4.3
 _Z3maxRK12FloatNDArrayf@Base 3.4.3
 _Z3maxRK12SparseMatrixS1_@Base 3.4.3
 _Z3maxRK12SparseMatrixd@Base 3.4.3
 _Z3maxRK13ComplexMatrixRKSt7complexIdE@Base 3.4.3
 _Z3maxRK13ComplexMatrixS1_@Base 3.4.3
 _Z3maxRK14ComplexNDArrayS1_@Base 3.4.3
 _Z3maxRK14ComplexNDArraySt7complexIdE@Base 3.4.3
 _Z3maxRK18FloatComplexMatrixRKSt7complexIfE@Base 3.4.3
 _Z3maxRK18FloatComplexMatrixS1_@Base 3.4.3
 _Z3maxRK19FloatComplexNDArrayS1_@Base 3.4.3
 _Z3maxRK19FloatComplexNDArraySt7complexIfE@Base 3.4.3
 _Z3maxRK19SparseComplexMatrixRKSt7complexIdE@Base 3.4.3
 _Z3maxRK19SparseComplexMatrixS1_@Base 3.4.3
 _Z3maxRK6MatrixS1_@Base 3.4.3
 _Z3maxRK6Matrixd@Base 3.4.3
 _Z3maxRK7NDArrayS1_@Base 3.4.3
 _Z3maxRK7NDArrayd@Base 3.4.3
 _Z3maxRKSt7complexIdERK13ComplexMatrix@Base 3.4.3
 _Z3maxRKSt7complexIdERK19SparseComplexMatrix@Base 3.4.3
 _Z3maxRKSt7complexIfERK18FloatComplexMatrix@Base 3.4.3
 _Z3maxSt7complexIdERK14ComplexNDArray@Base 3.4.3
 _Z3maxSt7complexIfERK19FloatComplexNDArray@Base 3.4.3
 _Z3maxdRK12SparseMatrix@Base 3.4.3
 _Z3maxdRK6Matrix@Base 3.4.3
 _Z3maxdRK7NDArray@Base 3.4.3
 _Z3maxfRK11FloatMatrix@Base 3.4.3
 _Z3maxfRK12FloatNDArray@Base 3.4.3
 _Z3min10octave_intIaERK10intNDArrayIS0_E@Base 3.4.3
 _Z3min10octave_intIhERK10intNDArrayIS0_E@Base 3.4.3
 _Z3min10octave_intIiERK10intNDArrayIS0_E@Base 3.4.3
 _Z3min10octave_intIjERK10intNDArrayIS0_E@Base 3.4.3
 _Z3min10octave_intIsERK10intNDArrayIS0_E@Base 3.4.3
 _Z3min10octave_intItERK10intNDArrayIS0_E@Base 3.4.3
 _Z3minRK10intNDArrayI10octave_intIaEES1_@Base 3.4.3
 _Z3minRK10intNDArrayI10octave_intIaEES4_@Base 3.4.3
 _Z3minRK10intNDArrayI10octave_intIhEES1_@Base 3.4.3
 _Z3minRK10intNDArrayI10octave_intIhEES4_@Base 3.4.3
 _Z3minRK10intNDArrayI10octave_intIiEES1_@Base 3.4.3
 _Z3minRK10intNDArrayI10octave_intIiEES4_@Base 3.4.3
 _Z3minRK10intNDArrayI10octave_intIjEES1_@Base 3.4.3
 _Z3minRK10intNDArrayI10octave_intIjEES4_@Base 3.4.3
 _Z3minRK10intNDArrayI10octave_intIsEES1_@Base 3.4.3
 _Z3minRK10intNDArrayI10octave_intIsEES4_@Base 3.4.3
 _Z3minRK10intNDArrayI10octave_intItEES1_@Base 3.4.3
 _Z3minRK10intNDArrayI10octave_intItEES4_@Base 3.4.3
 _Z3minRK11FloatMatrixS1_@Base 3.4.3
 _Z3minRK11FloatMatrixf@Base 3.4.3
 _Z3minRK12FloatNDArrayS1_@Base 3.4.3
 _Z3minRK12FloatNDArrayf@Base 3.4.3
 _Z3minRK12SparseMatrixS1_@Base 3.4.3
 _Z3minRK12SparseMatrixd@Base 3.4.3
 _Z3minRK13ComplexMatrixRKSt7complexIdE@Base 3.4.3
 _Z3minRK13ComplexMatrixS1_@Base 3.4.3
 _Z3minRK14ComplexNDArrayS1_@Base 3.4.3
 _Z3minRK14ComplexNDArraySt7complexIdE@Base 3.4.3
 _Z3minRK18FloatComplexMatrixRKSt7complexIfE@Base 3.4.3
 _Z3minRK18FloatComplexMatrixS1_@Base 3.4.3
 _Z3minRK19FloatComplexNDArrayS1_@Base 3.4.3
 _Z3minRK19FloatComplexNDArraySt7complexIfE@Base 3.4.3
 _Z3minRK19SparseComplexMatrixRKSt7complexIdE@Base 3.4.3
 _Z3minRK19SparseComplexMatrixS1_@Base 3.4.3
 _Z3minRK6MatrixS1_@Base 3.4.3
 _Z3minRK6Matrixd@Base 3.4.3
 _Z3minRK7NDArrayS1_@Base 3.4.3
 _Z3minRK7NDArrayd@Base 3.4.3
 _Z3minRKSt7complexIdERK13ComplexMatrix@Base 3.4.3
 _Z3minRKSt7complexIdERK19SparseComplexMatrix@Base 3.4.3
 _Z3minRKSt7complexIfERK18FloatComplexMatrix@Base 3.4.3
 _Z3minSt7complexIdERK14ComplexNDArray@Base 3.4.3
 _Z3minSt7complexIfERK19FloatComplexNDArray@Base 3.4.3
 _Z3mindRK12SparseMatrix@Base 3.4.3
 _Z3mindRK6Matrix@Base 3.4.3
 _Z3mindRK7NDArray@Base 3.4.3
 _Z3minfRK11FloatMatrix@Base 3.4.3
 _Z3minfRK12FloatNDArray@Base 3.4.3
 _Z3powIaE10octave_intIT_ERKS2_RKd@Base 3.4.3
 _Z3powIaE10octave_intIT_ERKS2_S4_@Base 3.4.3
 _Z3powIaE10octave_intIT_ERKdRKS2_@Base 3.4.3
 _Z3powIhE10octave_intIT_ERKS2_RKd@Base 3.4.3
 _Z3powIhE10octave_intIT_ERKS2_S4_@Base 3.4.3
 _Z3powIhE10octave_intIT_ERKdRKS2_@Base 3.4.3
 _Z3powIiE10octave_intIT_ERKS2_RKd@Base 3.4.3
 _Z3powIiE10octave_intIT_ERKS2_S4_@Base 3.4.3
 _Z3powIiE10octave_intIT_ERKdRKS2_@Base 3.4.3
 _Z3powIjE10octave_intIT_ERKS2_RKd@Base 3.4.3
 _Z3powIjE10octave_intIT_ERKS2_S4_@Base 3.4.3
 _Z3powIjE10octave_intIT_ERKdRKS2_@Base 3.4.3
 _Z3powIsE10octave_intIT_ERKS2_RKd@Base 3.4.3
 _Z3powIsE10octave_intIT_ERKS2_S4_@Base 3.4.3
 _Z3powIsE10octave_intIT_ERKdRKS2_@Base 3.4.3
 _Z3powItE10octave_intIT_ERKS2_RKd@Base 3.4.3
 _Z3powItE10octave_intIT_ERKS2_S4_@Base 3.4.3
 _Z3powItE10octave_intIT_ERKdRKS2_@Base 3.4.3
 _Z4NINTd@Base 3.4.3
 _Z4NINTf@Base 3.4.3
 _Z4acosRKSt7complexIdE@Base 3.4.3
 _Z4acosRKSt7complexIfE@Base 3.4.3
 _Z4airyRK13ComplexMatrixbbR5ArrayIiE@Base 3.4.3
 _Z4airyRK14ComplexNDArraybbR5ArrayIiE@Base 3.4.3
 _Z4airyRK18FloatComplexMatrixbbR5ArrayIiE@Base 3.4.3
 _Z4airyRK19FloatComplexNDArraybbR5ArrayIiE@Base 3.4.3
 _Z4airyRKSt7complexIdEbbRi@Base 3.4.3
 _Z4airyRKSt7complexIfEbbRi@Base 3.4.3
 _Z4asinRKSt7complexIdE@Base 3.4.3
 _Z4asinRKSt7complexIfE@Base 3.4.3
 _Z4atanRKSt7complexIdE@Base 3.4.3
 _Z4atanRKSt7complexIfE@Base 3.4.3
 _Z4biryRK13ComplexMatrixbbR5ArrayIiE@Base 3.4.3
 _Z4biryRK14ComplexNDArraybbR5ArrayIiE@Base 3.4.3
 _Z4biryRK18FloatComplexMatrixbbR5ArrayIiE@Base 3.4.3
 _Z4biryRK19FloatComplexNDArraybbR5ArrayIiE@Base 3.4.3
 _Z4biryRKSt7complexIdEbbRi@Base 3.4.3
 _Z4biryRKSt7complexIfEbbRi@Base 3.4.3
 _Z4conjRK13ComplexMatrix@Base 3.4.3
 _Z4conjRK14ComplexNDArray@Base 3.4.3
 _Z4conjRK16ComplexRowVector@Base 3.4.3
 _Z4conjRK17ComplexDiagMatrix@Base 3.4.3
 _Z4conjRK18FloatComplexMatrix@Base 3.4.3
 _Z4conjRK19ComplexColumnVector@Base 3.4.3
 _Z4conjRK19FloatComplexNDArray@Base 3.4.3
 _Z4conjRK19SparseComplexMatrix@Base 3.4.3
 _Z4conjRK21FloatComplexRowVector@Base 3.4.3
 _Z4conjRK22FloatComplexDiagMatrix@Base 3.4.3
 _Z4conjRK24FloatComplexColumnVector@Base 3.4.3
 _Z4imagRK13ComplexMatrix@Base 3.4.3
 _Z4imagRK14ComplexNDArray@Base 3.4.3
 _Z4imagRK16ComplexRowVector@Base 3.4.3
 _Z4imagRK17ComplexDiagMatrix@Base 3.4.3
 _Z4imagRK18FloatComplexMatrix@Base 3.4.3
 _Z4imagRK19ComplexColumnVector@Base 3.4.3
 _Z4imagRK19FloatComplexNDArray@Base 3.4.3
 _Z4imagRK19SparseComplexMatrix@Base 3.4.3
 _Z4imagRK21FloatComplexRowVector@Base 3.4.3
 _Z4imagRK22FloatComplexDiagMatrix@Base 3.4.3
 _Z4imagRK24FloatComplexColumnVector@Base 3.4.3
 _Z4powfIaE10octave_intIT_ERKS2_RKf@Base 3.4.3
 _Z4powfIaE10octave_intIT_ERKfRKS2_@Base 3.4.3
 _Z4powfIhE10octave_intIT_ERKS2_RKf@Base 3.4.3
 _Z4powfIhE10octave_intIT_ERKfRKS2_@Base 3.4.3
 _Z4powfIiE10octave_intIT_ERKS2_RKf@Base 3.4.3
 _Z4powfIiE10octave_intIT_ERKfRKS2_@Base 3.4.3
 _Z4powfIjE10octave_intIT_ERKS2_RKf@Base 3.4.3
 _Z4powfIjE10octave_intIT_ERKfRKS2_@Base 3.4.3
 _Z4powfIsE10octave_intIT_ERKS2_RKf@Base 3.4.3
 _Z4powfIsE10octave_intIT_ERKfRKS2_@Base 3.4.3
 _Z4powfItE10octave_intIT_ERKS2_RKf@Base 3.4.3
 _Z4powfItE10octave_intIT_ERKfRKS2_@Base 3.4.3
 _Z4realRK13ComplexMatrix@Base 3.4.3
 _Z4realRK14ComplexNDArray@Base 3.4.3
 _Z4realRK16ComplexRowVector@Base 3.4.3
 _Z4realRK17ComplexDiagMatrix@Base 3.4.3
 _Z4realRK18FloatComplexMatrix@Base 3.4.3
 _Z4realRK19ComplexColumnVector@Base 3.4.3
 _Z4realRK19FloatComplexNDArray@Base 3.4.3
 _Z4realRK19SparseComplexMatrix@Base 3.4.3
 _Z4realRK21FloatComplexRowVector@Base 3.4.3
 _Z4realRK22FloatComplexDiagMatrix@Base 3.4.3
 _Z4realRK24FloatComplexColumnVector@Base 3.4.3
 _Z4xmaxRKSt7complexIdES2_@Base 3.4.3
 _Z4xmaxRKSt7complexIfES2_@Base 3.4.3
 _Z4xminRKSt7complexIdES2_@Base 3.4.3
 _Z4xminRKSt7complexIfES2_@Base 3.4.3
 _Z5acoshRKSt7complexIdE@Base 3.4.3
 _Z5acoshRKSt7complexIfE@Base 3.4.3
 _Z5asinhRKSt7complexIdE@Base 3.4.3
 _Z5asinhRKSt7complexIfE@Base 3.4.3
 _Z5atan2RK12SparseMatrixRKd@Base 3.4.3
 _Z5atan2RK12SparseMatrixS1_@Base 3.4.3
 _Z5atan2RKdRK12SparseMatrix@Base 3.4.3
 _Z5atanhRKSt7complexIdE@Base 3.4.3
 _Z5atanhRKSt7complexIfE@Base 3.4.3
 _Z5convnRK11FloatMatrixRK17FloatColumnVectorRK14FloatRowVector10convn_type@Base 3.4.3
 _Z5convnRK11FloatMatrixS1_10convn_type@Base 3.4.3
 _Z5convnRK12FloatNDArrayS1_10convn_type@Base 3.4.3
 _Z5convnRK13ComplexMatrixRK12ColumnVectorRK9RowVector10convn_type@Base 3.4.3
 _Z5convnRK13ComplexMatrixRK19ComplexColumnVectorRK16ComplexRowVector10convn_type@Base 3.4.3
 _Z5convnRK13ComplexMatrixRK6Matrix10convn_type@Base 3.4.3
 _Z5convnRK13ComplexMatrixS1_10convn_type@Base 3.4.3
 _Z5convnRK14ComplexNDArrayRK7NDArray10convn_type@Base 3.4.3
 _Z5convnRK14ComplexNDArrayS1_10convn_type@Base 3.4.3
 _Z5convnRK18FloatComplexMatrixRK11FloatMatrix10convn_type@Base 3.4.3
 _Z5convnRK18FloatComplexMatrixRK17FloatColumnVectorRK14FloatRowVector10convn_type@Base 3.4.3
 _Z5convnRK18FloatComplexMatrixRK24FloatComplexColumnVectorRK21FloatComplexRowVector10convn_type@Base 3.4.3
 _Z5convnRK18FloatComplexMatrixS1_10convn_type@Base 3.4.3
 _Z5convnRK19FloatComplexNDArrayRK12FloatNDArray10convn_type@Base 3.4.3
 _Z5convnRK19FloatComplexNDArrayS1_10convn_type@Base 3.4.3
 _Z5convnRK6MatrixRK12ColumnVectorRK9RowVector10convn_type@Base 3.4.3
 _Z5convnRK6MatrixS1_10convn_type@Base 3.4.3
 _Z5convnRK7NDArrayS1_10convn_type@Base 3.4.3
 _Z5erfcxd@Base 3.4.3
 _Z5erfcxf@Base 3.4.3
 _Z5expm1RKSt7complexIdE@Base 3.4.3
 _Z5expm1RKSt7complexIfE@Base 3.4.3
 _Z5log1pRKSt7complexIdE@Base 3.4.3
 _Z5log1pRKSt7complexIfE@Base 3.4.3
 _Z5xexp2d@Base 3.4.3
 _Z5xexp2f@Base 3.4.3
 _Z5xgemmRK11FloatMatrixS1_15blas_trans_typeS2_@Base 3.4.3
 _Z5xgemmRK13ComplexMatrixS1_15blas_trans_typeS2_@Base 3.4.3
 _Z5xgemmRK18FloatComplexMatrixS1_15blas_trans_typeS2_@Base 3.4.3
 _Z5xgemmRK6MatrixS1_15blas_trans_typeS2_@Base 3.4.3
 _Z5xlog2RKSt7complexIdE@Base 3.4.3
 _Z5xlog2RKSt7complexIdERi@Base 3.4.3
 _Z5xlog2RKSt7complexIfE@Base 3.4.3
 _Z5xlog2RKSt7complexIfERi@Base 3.4.3
 _Z5xlog2d@Base 3.4.3
 _Z5xlog2dRi@Base 3.4.3
 _Z5xlog2f@Base 3.4.3
 _Z5xlog2fRi@Base 3.4.3
 _Z5xnormRK11FloatMatrixf@Base 3.4.3
 _Z5xnormRK12ColumnVectord@Base 3.4.3
 _Z5xnormRK12SparseMatrixd@Base 3.4.3
 _Z5xnormRK13ComplexMatrixd@Base 3.4.3
 _Z5xnormRK14FloatRowVectorf@Base 3.4.3
 _Z5xnormRK16ComplexRowVectord@Base 3.4.3
 _Z5xnormRK17FloatColumnVectorf@Base 3.4.3
 _Z5xnormRK18FloatComplexMatrixf@Base 3.4.3
 _Z5xnormRK19ComplexColumnVectord@Base 3.4.3
 _Z5xnormRK19SparseComplexMatrixd@Base 3.4.3
 _Z5xnormRK21FloatComplexRowVectorf@Base 3.4.3
 _Z5xnormRK24FloatComplexColumnVectorf@Base 3.4.3
 _Z5xnormRK6Matrixd@Base 3.4.3
 _Z5xnormRK9RowVectord@Base 3.4.3
 _Z6GivensRKSt7complexIdES2_@Base 3.4.3
 _Z6GivensRKSt7complexIfES2_@Base 3.4.3
 _Z6Givensdd@Base 3.4.3
 _Z6Givensff@Base 3.4.3
 _Z6all_okRK5ArrayI10idx_vectorE@Base 3.4.3
 _Z6concatR7NDArrayR14ComplexNDArrayRK5ArrayIiE@Base 3.4.3
 _Z6concatR7NDArrayR19FloatComplexNDArrayRK5ArrayIiE@Base 3.4.3
 _Z6dual_pI11FloatMatrixfET_RKS1_T0_S4_@Base 3.4.3
 _Z6dual_pI13ComplexMatrixdET_RKS1_T0_S4_@Base 3.4.3
 _Z6dual_pI18FloatComplexMatrixfET_RKS1_T0_S4_@Base 3.4.3
 _Z6dual_pI6MatrixdET_RKS1_T0_S4_@Base 3.4.3
 _Z6erfinvd@Base 3.4.3
 _Z6erfinvf@Base 3.4.3
 _Z6freezeR5ArrayI10idx_vectorERK10dim_vectori@Base 3.4.3
 _Z6highamI11FloatMatrixS0_fET1_RKT_S1_S1_iRT0_@Base 3.4.3
 _Z6highamI12SparseMatrix6MatrixdET1_RKT_S2_S2_iRT0_@Base 3.4.3
 _Z6highamI13ComplexMatrixS0_dET1_RKT_S1_S1_iRT0_@Base 3.4.3
 _Z6highamI18FloatComplexMatrixS0_fET1_RKT_S1_S1_iRT0_@Base 3.4.3
 _Z6highamI19SparseComplexMatrix13ComplexMatrixdET1_RKT_S2_S2_iRT0_@Base 3.4.3
 _Z6highamI6MatrixS0_dET1_RKT_S1_S1_iRT0_@Base 3.4.3
 _Z6rc_logd@Base 3.4.3
 _Z6rc_logf@Base 3.4.3
 _Z6signumd@Base 3.4.3
 _Z6signumf@Base 3.4.3
 _Z6xfloord@Base 3.4.3
 _Z6xgammad@Base 3.4.3
 _Z6xgammaf@Base 3.4.3
 _Z6xroundd@Base 3.4.3
 _Z6xroundf@Base 3.4.3
 _Z6xtruncd@Base 3.4.3
 _Z6xtruncf@Base 3.4.3
 _Z7NINTbigd@Base 3.4.3
 _Z7NINTbigf@Base 3.4.3
 _Z7besseliRK11FloatMatrixRK18FloatComplexMatrixbR5ArrayIiE@Base 3.4.3
 _Z7besseliRK11FloatMatrixRKSt7complexIfEbR5ArrayIiE@Base 3.4.3
 _Z7besseliRK12FloatNDArrayRK19FloatComplexNDArraybR5ArrayIiE@Base 3.4.3
 _Z7besseliRK12FloatNDArrayRKSt7complexIfEbR5ArrayIiE@Base 3.4.3
 _Z7besseliRK14FloatRowVectorRK24FloatComplexColumnVectorbR5ArrayIiE@Base 3.4.3
 _Z7besseliRK6MatrixRK13ComplexMatrixbR5ArrayIiE@Base 3.4.3
 _Z7besseliRK6MatrixRKSt7complexIdEbR5ArrayIiE@Base 3.4.3
 _Z7besseliRK7NDArrayRK14ComplexNDArraybR5ArrayIiE@Base 3.4.3
 _Z7besseliRK7NDArrayRKSt7complexIdEbR5ArrayIiE@Base 3.4.3
 _Z7besseliRK9RowVectorRK19ComplexColumnVectorbR5ArrayIiE@Base 3.4.3
 _Z7besselidRK13ComplexMatrixbR5ArrayIiE@Base 3.4.3
 _Z7besselidRK14ComplexNDArraybR5ArrayIiE@Base 3.4.3
 _Z7besselidRKSt7complexIdEbRi@Base 3.4.3
 _Z7besselifRK18FloatComplexMatrixbR5ArrayIiE@Base 3.4.3
 _Z7besselifRK19FloatComplexNDArraybR5ArrayIiE@Base 3.4.3
 _Z7besselifRKSt7complexIfEbRi@Base 3.4.3
 _Z7besseljRK11FloatMatrixRK18FloatComplexMatrixbR5ArrayIiE@Base 3.4.3
 _Z7besseljRK11FloatMatrixRKSt7complexIfEbR5ArrayIiE@Base 3.4.3
 _Z7besseljRK12FloatNDArrayRK19FloatComplexNDArraybR5ArrayIiE@Base 3.4.3
 _Z7besseljRK12FloatNDArrayRKSt7complexIfEbR5ArrayIiE@Base 3.4.3
 _Z7besseljRK14FloatRowVectorRK24FloatComplexColumnVectorbR5ArrayIiE@Base 3.4.3
 _Z7besseljRK6MatrixRK13ComplexMatrixbR5ArrayIiE@Base 3.4.3
 _Z7besseljRK6MatrixRKSt7complexIdEbR5ArrayIiE@Base 3.4.3
 _Z7besseljRK7NDArrayRK14ComplexNDArraybR5ArrayIiE@Base 3.4.3
 _Z7besseljRK7NDArrayRKSt7complexIdEbR5ArrayIiE@Base 3.4.3
 _Z7besseljRK9RowVectorRK19ComplexColumnVectorbR5ArrayIiE@Base 3.4.3
 _Z7besseljdRK13ComplexMatrixbR5ArrayIiE@Base 3.4.3
 _Z7besseljdRK14ComplexNDArraybR5ArrayIiE@Base 3.4.3
 _Z7besseljdRKSt7complexIdEbRi@Base 3.4.3
 _Z7besseljfRK18FloatComplexMatrixbR5ArrayIiE@Base 3.4.3
 _Z7besseljfRK19FloatComplexNDArraybR5ArrayIiE@Base 3.4.3
 _Z7besseljfRKSt7complexIfEbRi@Base 3.4.3
 _Z7besselkRK11FloatMatrixRK18FloatComplexMatrixbR5ArrayIiE@Base 3.4.3
 _Z7besselkRK11FloatMatrixRKSt7complexIfEbR5ArrayIiE@Base 3.4.3
 _Z7besselkRK12FloatNDArrayRK19FloatComplexNDArraybR5ArrayIiE@Base 3.4.3
 _Z7besselkRK12FloatNDArrayRKSt7complexIfEbR5ArrayIiE@Base 3.4.3
 _Z7besselkRK14FloatRowVectorRK24FloatComplexColumnVectorbR5ArrayIiE@Base 3.4.3
 _Z7besselkRK6MatrixRK13ComplexMatrixbR5ArrayIiE@Base 3.4.3
 _Z7besselkRK6MatrixRKSt7complexIdEbR5ArrayIiE@Base 3.4.3
 _Z7besselkRK7NDArrayRK14ComplexNDArraybR5ArrayIiE@Base 3.4.3
 _Z7besselkRK7NDArrayRKSt7complexIdEbR5ArrayIiE@Base 3.4.3
 _Z7besselkRK9RowVectorRK19ComplexColumnVectorbR5ArrayIiE@Base 3.4.3
 _Z7besselkdRK13ComplexMatrixbR5ArrayIiE@Base 3.4.3
 _Z7besselkdRK14ComplexNDArraybR5ArrayIiE@Base 3.4.3
 _Z7besselkdRKSt7complexIdEbRi@Base 3.4.3
 _Z7besselkfRK18FloatComplexMatrixbR5ArrayIiE@Base 3.4.3
 _Z7besselkfRK19FloatComplexNDArraybR5ArrayIiE@Base 3.4.3
 _Z7besselkfRKSt7complexIfEbRi@Base 3.4.3
 _Z7besselyRK11FloatMatrixRK18FloatComplexMatrixbR5ArrayIiE@Base 3.4.3
 _Z7besselyRK11FloatMatrixRKSt7complexIfEbR5ArrayIiE@Base 3.4.3
 _Z7besselyRK12FloatNDArrayRK19FloatComplexNDArraybR5ArrayIiE@Base 3.4.3
 _Z7besselyRK12FloatNDArrayRKSt7complexIfEbR5ArrayIiE@Base 3.4.3
 _Z7besselyRK14FloatRowVectorRK24FloatComplexColumnVectorbR5ArrayIiE@Base 3.4.3
 _Z7besselyRK6MatrixRK13ComplexMatrixbR5ArrayIiE@Base 3.4.3
 _Z7besselyRK6MatrixRKSt7complexIdEbR5ArrayIiE@Base 3.4.3
 _Z7besselyRK7NDArrayRK14ComplexNDArraybR5ArrayIiE@Base 3.4.3
 _Z7besselyRK7NDArrayRKSt7complexIdEbR5ArrayIiE@Base 3.4.3
 _Z7besselyRK9RowVectorRK19ComplexColumnVectorbR5ArrayIiE@Base 3.4.3
 _Z7besselydRK13ComplexMatrixbR5ArrayIiE@Base 3.4.3
 _Z7besselydRK14ComplexNDArraybR5ArrayIiE@Base 3.4.3
 _Z7besselydRKSt7complexIdEbRi@Base 3.4.3
 _Z7besselyfRK18FloatComplexMatrixbR5ArrayIiE@Base 3.4.3
 _Z7besselyfRK19FloatComplexNDArraybR5ArrayIiE@Base 3.4.3
 _Z7besselyfRKSt7complexIfEbRi@Base 3.4.3
 _Z7betaincRK11FloatMatrixS1_S1_@Base 3.4.3
 _Z7betaincRK11FloatMatrixS1_f@Base 3.4.3
 _Z7betaincRK11FloatMatrixfS1_@Base 3.4.3
 _Z7betaincRK11FloatMatrixff@Base 3.4.3
 _Z7betaincRK12FloatNDArrayS1_S1_@Base 3.4.3
 _Z7betaincRK12FloatNDArrayS1_f@Base 3.4.3
 _Z7betaincRK12FloatNDArrayfS1_@Base 3.4.3
 _Z7betaincRK12FloatNDArrayff@Base 3.4.3
 _Z7betaincRK6MatrixS1_S1_@Base 3.4.3
 _Z7betaincRK6MatrixS1_d@Base 3.4.3
 _Z7betaincRK6MatrixdS1_@Base 3.4.3
 _Z7betaincRK6Matrixdd@Base 3.4.3
 _Z7betaincRK7NDArrayS1_S1_@Base 3.4.3
 _Z7betaincRK7NDArrayS1_d@Base 3.4.3
 _Z7betaincRK7NDArraydS1_@Base 3.4.3
 _Z7betaincRK7NDArraydd@Base 3.4.3
 _Z7betaincdRK6MatrixS1_@Base 3.4.3
 _Z7betaincdRK6Matrixd@Base 3.4.3
 _Z7betaincdRK7NDArrayS1_@Base 3.4.3
 _Z7betaincdRK7NDArrayd@Base 3.4.3
 _Z7betaincddRK6Matrix@Base 3.4.3
 _Z7betaincddRK7NDArray@Base 3.4.3
 _Z7betaincddd@Base 3.4.3
 _Z7betaincfRK11FloatMatrixS1_@Base 3.4.3
 _Z7betaincfRK11FloatMatrixf@Base 3.4.3
 _Z7betaincfRK12FloatNDArrayS1_@Base 3.4.3
 _Z7betaincfRK12FloatNDArrayf@Base 3.4.3
 _Z7betaincffRK11FloatMatrix@Base 3.4.3
 _Z7betaincffRK12FloatNDArray@Base 3.4.3
 _Z7betaincfff@Base 3.4.3
 _Z7dmsolveI12SparseMatrixS0_S0_ET_RKT0_RKT1_Ri@Base 3.4.3
 _Z7dmsolveI13ComplexMatrix12SparseMatrixS0_ET_RKT0_RKT1_Ri@Base 3.4.3
 _Z7dmsolveI13ComplexMatrix19SparseComplexMatrix6MatrixET_RKT0_RKT1_Ri@Base 3.4.3
 _Z7dmsolveI13ComplexMatrix19SparseComplexMatrixS0_ET_RKT0_RKT1_Ri@Base 3.4.3
 _Z7dmsolveI19SparseComplexMatrix12SparseMatrixS0_ET_RKT0_RKT1_Ri@Base 3.4.3
 _Z7dmsolveI19SparseComplexMatrixS0_12SparseMatrixET_RKT0_RKT1_Ri@Base 3.4.3
 _Z7dmsolveI19SparseComplexMatrixS0_S0_ET_RKT0_RKT1_Ri@Base 3.4.3
 _Z7dmsolveI6Matrix12SparseMatrixS0_ET_RKT0_RKT1_Ri@Base 3.4.3
 _Z7ind2subRK10dim_vectorRK10idx_vector@Base 3.4.3
 _Z7oct_md5Ss@Base 3.4.3
 _Z7productI10octave_intIaEE6MArrayIT_ERKS4_S6_@Base 3.4.3
 _Z7productI10octave_intIhEE6MArrayIT_ERKS4_S6_@Base 3.4.3
 _Z7productI10octave_intIiEE6MArrayIT_ERKS4_S6_@Base 3.4.3
 _Z7productI10octave_intIjEE6MArrayIT_ERKS4_S6_@Base 3.4.3
 _Z7productI10octave_intIsEE6MArrayIT_ERKS4_S6_@Base 3.4.3
 _Z7productI10octave_intItEE6MArrayIT_ERKS4_S6_@Base 3.4.3
 _Z7productISt7complexIdEE11MDiagArray2IT_ERKS4_S6_@Base 3.4.3
 _Z7productISt7complexIdEE6MArrayIT_ERKS4_S6_@Base 3.4.3
 _Z7productISt7complexIdEE7MSparseIT_ERKS4_S6_@Base 3.4.3
 _Z7productISt7complexIfEE11MDiagArray2IT_ERKS4_S6_@Base 3.4.3
 _Z7productISt7complexIfEE6MArrayIT_ERKS4_S6_@Base 3.4.3
 _Z7productIdE11MDiagArray2IT_ERKS2_S4_@Base 3.4.3
 _Z7productIdE6MArrayIT_ERKS2_S4_@Base 3.4.3
 _Z7productIdE7MSparseIT_ERKS2_S4_@Base 3.4.3
 _Z7productIfE11MDiagArray2IT_ERKS2_S4_@Base 3.4.3
 _Z7productIfE6MArrayIT_ERKS2_S4_@Base 3.4.3
 _Z7productIiE11MDiagArray2IT_ERKS2_S4_@Base 3.4.3
 _Z7productIiE6MArrayIT_ERKS2_S4_@Base 3.4.3
 _Z7productIlE6MArrayIT_ERKS2_S4_@Base 3.4.3
 _Z7productIsE11MDiagArray2IT_ERKS2_S4_@Base 3.4.3
 _Z7productIsE6MArrayIT_ERKS2_S4_@Base 3.4.3
 _Z7productRK10DiagMatrixRK17ComplexDiagMatrix@Base 3.4.3
 _Z7productRK10intNDArrayI10octave_intIaEERK12FloatNDArray@Base 3.4.3
 _Z7productRK10intNDArrayI10octave_intIaEERK7NDArray@Base 3.4.3
 _Z7productRK10intNDArrayI10octave_intIhEERK12FloatNDArray@Base 3.4.3
 _Z7productRK10intNDArrayI10octave_intIhEERK7NDArray@Base 3.4.3
 _Z7productRK10intNDArrayI10octave_intIiEERK12FloatNDArray@Base 3.4.3
 _Z7productRK10intNDArrayI10octave_intIiEERK7NDArray@Base 3.4.3
 _Z7productRK10intNDArrayI10octave_intIjEERK12FloatNDArray@Base 3.4.3
 _Z7productRK10intNDArrayI10octave_intIjEERK7NDArray@Base 3.4.3
 _Z7productRK10intNDArrayI10octave_intIsEERK12FloatNDArray@Base 3.4.3
 _Z7productRK10intNDArrayI10octave_intIsEERK7NDArray@Base 3.4.3
 _Z7productRK10intNDArrayI10octave_intItEERK12FloatNDArray@Base 3.4.3
 _Z7productRK10intNDArrayI10octave_intItEERK7NDArray@Base 3.4.3
 _Z7productRK11FloatMatrixRK18FloatComplexMatrix@Base 3.4.3
 _Z7productRK12ColumnVectorRK19ComplexColumnVector@Base 3.4.3
 _Z7productRK12FloatNDArrayRK10intNDArrayI10octave_intIaEE@Base 3.4.3
 _Z7productRK12FloatNDArrayRK10intNDArrayI10octave_intIhEE@Base 3.4.3
 _Z7productRK12FloatNDArrayRK10intNDArrayI10octave_intIiEE@Base 3.4.3
 _Z7productRK12FloatNDArrayRK10intNDArrayI10octave_intIjEE@Base 3.4.3
 _Z7productRK12FloatNDArrayRK10intNDArrayI10octave_intIsEE@Base 3.4.3
 _Z7productRK12FloatNDArrayRK10intNDArrayI10octave_intItEE@Base 3.4.3
 _Z7productRK12FloatNDArrayRK19FloatComplexNDArray@Base 3.4.3
 _Z7productRK12SparseMatrixRK13ComplexMatrix@Base 3.4.3
 _Z7productRK12SparseMatrixRK19SparseComplexMatrix@Base 3.4.3
 _Z7productRK12SparseMatrixRK6Matrix@Base 3.4.3
 _Z7productRK13ComplexMatrixRK12SparseMatrix@Base 3.4.3
 _Z7productRK13ComplexMatrixRK19SparseComplexMatrix@Base 3.4.3
 _Z7productRK13ComplexMatrixRK6Matrix@Base 3.4.3
 _Z7productRK14ComplexNDArrayRK7NDArray@Base 3.4.3
 _Z7productRK14FloatRowVectorRK21FloatComplexRowVector@Base 3.4.3
 _Z7productRK15FloatDiagMatrixRK22FloatComplexDiagMatrix@Base 3.4.3
 _Z7productRK16ComplexRowVectorRK9RowVector@Base 3.4.3
 _Z7productRK17ComplexDiagMatrixRK10DiagMatrix@Base 3.4.3
 _Z7productRK17FloatColumnVectorRK24FloatComplexColumnVector@Base 3.4.3
 _Z7productRK18FloatComplexMatrixRK11FloatMatrix@Base 3.4.3
 _Z7productRK19ComplexColumnVectorRK12ColumnVector@Base 3.4.3
 _Z7productRK19FloatComplexNDArrayRK12FloatNDArray@Base 3.4.3
 _Z7productRK19SparseComplexMatrixRK12SparseMatrix@Base 3.4.3
 _Z7productRK19SparseComplexMatrixRK13ComplexMatrix@Base 3.4.3
 _Z7productRK19SparseComplexMatrixRK6Matrix@Base 3.4.3
 _Z7productRK21FloatComplexRowVectorRK14FloatRowVector@Base 3.4.3
 _Z7productRK22FloatComplexDiagMatrixRK15FloatDiagMatrix@Base 3.4.3
 _Z7productRK24FloatComplexColumnVectorRK17FloatColumnVector@Base 3.4.3
 _Z7productRK6MatrixRK12SparseMatrix@Base 3.4.3
 _Z7productRK6MatrixRK13ComplexMatrix@Base 3.4.3
 _Z7productRK6MatrixRK19SparseComplexMatrix@Base 3.4.3
 _Z7productRK7NDArrayRK10intNDArrayI10octave_intIaEE@Base 3.4.3
 _Z7productRK7NDArrayRK10intNDArrayI10octave_intIhEE@Base 3.4.3
 _Z7productRK7NDArrayRK10intNDArrayI10octave_intIiEE@Base 3.4.3
 _Z7productRK7NDArrayRK10intNDArrayI10octave_intIjEE@Base 3.4.3
 _Z7productRK7NDArrayRK10intNDArrayI10octave_intIsEE@Base 3.4.3
 _Z7productRK7NDArrayRK10intNDArrayI10octave_intItEE@Base 3.4.3
 _Z7productRK7NDArrayRK14ComplexNDArray@Base 3.4.3
 _Z7productRK9RowVectorRK16ComplexRowVector@Base 3.4.3
 _Z7qrsolveRK12SparseMatrixRK13ComplexMatrixRi@Base 3.4.3
 _Z7qrsolveRK12SparseMatrixRK19SparseComplexMatrixRi@Base 3.4.3
 _Z7qrsolveRK12SparseMatrixRK6MArrayISt7complexIdEERi@Base 3.4.3
 _Z7qrsolveRK12SparseMatrixRK6MArrayIdERi@Base 3.4.3
 _Z7qrsolveRK12SparseMatrixRK6MatrixRi@Base 3.4.3
 _Z7qrsolveRK12SparseMatrixS1_Ri@Base 3.4.3
 _Z7qrsolveRK19SparseComplexMatrixRK12SparseMatrixRi@Base 3.4.3
 _Z7qrsolveRK19SparseComplexMatrixRK13ComplexMatrixRi@Base 3.4.3
 _Z7qrsolveRK19SparseComplexMatrixRK6MArrayISt7complexIdEERi@Base 3.4.3
 _Z7qrsolveRK19SparseComplexMatrixRK6MArrayIdERi@Base 3.4.3
 _Z7qrsolveRK19SparseComplexMatrixRK6MatrixRi@Base 3.4.3
 _Z7qrsolveRK19SparseComplexMatrixS1_Ri@Base 3.4.3
 _Z7rc_acosd@Base 3.4.3
 _Z7rc_acosf@Base 3.4.3
 _Z7rc_asind@Base 3.4.3
 _Z7rc_asinf@Base 3.4.3
 _Z7rc_log2d@Base 3.4.3
 _Z7rc_log2f@Base 3.4.3
 _Z7rc_sqrtd@Base 3.4.3
 _Z7rc_sqrtf@Base 3.4.3
 _Z7strsavePKc@Base 3.4.3
 _Z7sub2indRK10dim_vectorRK5ArrayI10idx_vectorE@Base 3.4.3
 _Z7xlgammad@Base 3.4.3
 _Z7xlgammaf@Base 3.4.3
 _Z7xroundbd@Base 3.4.3
 _Z7xroundbf@Base 3.4.3
 _Z8all_onesRK5ArrayIiE@Base 3.4.3
 _Z8any_onesRK5ArrayIiE@Base 3.4.3
 _Z8besselh1RK11FloatMatrixRK18FloatComplexMatrixbR5ArrayIiE@Base 3.4.3
 _Z8besselh1RK11FloatMatrixRKSt7complexIfEbR5ArrayIiE@Base 3.4.3
 _Z8besselh1RK12FloatNDArrayRK19FloatComplexNDArraybR5ArrayIiE@Base 3.4.3
 _Z8besselh1RK12FloatNDArrayRKSt7complexIfEbR5ArrayIiE@Base 3.4.3
 _Z8besselh1RK14FloatRowVectorRK24FloatComplexColumnVectorbR5ArrayIiE@Base 3.4.3
 _Z8besselh1RK6MatrixRK13ComplexMatrixbR5ArrayIiE@Base 3.4.3
 _Z8besselh1RK6MatrixRKSt7complexIdEbR5ArrayIiE@Base 3.4.3
 _Z8besselh1RK7NDArrayRK14ComplexNDArraybR5ArrayIiE@Base 3.4.3
 _Z8besselh1RK7NDArrayRKSt7complexIdEbR5ArrayIiE@Base 3.4.3
 _Z8besselh1RK9RowVectorRK19ComplexColumnVectorbR5ArrayIiE@Base 3.4.3
 _Z8besselh1dRK13ComplexMatrixbR5ArrayIiE@Base 3.4.3
 _Z8besselh1dRK14ComplexNDArraybR5ArrayIiE@Base 3.4.3
 _Z8besselh1dRKSt7complexIdEbRi@Base 3.4.3
 _Z8besselh1fRK18FloatComplexMatrixbR5ArrayIiE@Base 3.4.3
 _Z8besselh1fRK19FloatComplexNDArraybR5ArrayIiE@Base 3.4.3
 _Z8besselh1fRKSt7complexIfEbRi@Base 3.4.3
 _Z8besselh2RK11FloatMatrixRK18FloatComplexMatrixbR5ArrayIiE@Base 3.4.3
 _Z8besselh2RK11FloatMatrixRKSt7complexIfEbR5ArrayIiE@Base 3.4.3
 _Z8besselh2RK12FloatNDArrayRK19FloatComplexNDArraybR5ArrayIiE@Base 3.4.3
 _Z8besselh2RK12FloatNDArrayRKSt7complexIfEbR5ArrayIiE@Base 3.4.3
 _Z8besselh2RK14FloatRowVectorRK24FloatComplexColumnVectorbR5ArrayIiE@Base 3.4.3
 _Z8besselh2RK6MatrixRK13ComplexMatrixbR5ArrayIiE@Base 3.4.3
 _Z8besselh2RK6MatrixRKSt7complexIdEbR5ArrayIiE@Base 3.4.3
 _Z8besselh2RK7NDArrayRK14ComplexNDArraybR5ArrayIiE@Base 3.4.3
 _Z8besselh2RK7NDArrayRKSt7complexIdEbR5ArrayIiE@Base 3.4.3
 _Z8besselh2RK9RowVectorRK19ComplexColumnVectorbR5ArrayIiE@Base 3.4.3
 _Z8besselh2dRK13ComplexMatrixbR5ArrayIiE@Base 3.4.3
 _Z8besselh2dRK14ComplexNDArraybR5ArrayIiE@Base 3.4.3
 _Z8besselh2dRKSt7complexIdEbRi@Base 3.4.3
 _Z8besselh2fRK18FloatComplexMatrixbR5ArrayIiE@Base 3.4.3
 _Z8besselh2fRK19FloatComplexNDArraybR5ArrayIiE@Base 3.4.3
 _Z8besselh2fRKSt7complexIfEbRi@Base 3.4.3
# template instantiation
 (c++|regex|optional=templateInstantiation)"octave_int<.*> bitshift<.*>\(.*const&\)@Base" 3.4.3
 _Z8chol2invRK11FloatMatrix@Base 3.4.3
 _Z8chol2invRK12SparseMatrix@Base 3.4.3
 _Z8chol2invRK13ComplexMatrix@Base 3.4.3
 _Z8chol2invRK18FloatComplexMatrix@Base 3.4.3
 _Z8chol2invRK19SparseComplexMatrix@Base 3.4.3
 _Z8chol2invRK6Matrix@Base 3.4.3
 _Z8ddasrt_jRKdPS_S1_PdS0_S2_Pi@Base 3.4.3
 _Z8gammaincRK11FloatMatrixS1_@Base 3.4.3
 _Z8gammaincRK11FloatMatrixf@Base 3.4.3
 _Z8gammaincRK12FloatNDArrayS1_@Base 3.4.3
 _Z8gammaincRK12FloatNDArrayf@Base 3.4.3
 _Z8gammaincRK6MatrixS1_@Base 3.4.3
 _Z8gammaincRK6Matrixd@Base 3.4.3
 _Z8gammaincRK7NDArrayS1_@Base 3.4.3
 _Z8gammaincRK7NDArrayd@Base 3.4.3
 _Z8gammaincdRK6Matrix@Base 3.4.3
 _Z8gammaincdRK7NDArray@Base 3.4.3
 _Z8gammaincddRb@Base 3.4.3
 _Z8gammaincfRK11FloatMatrix@Base 3.4.3
 _Z8gammaincfRK12FloatNDArray@Base 3.4.3
 _Z8gammaincffRb@Base 3.4.3
 _Z8herm_mulRK19SparseComplexMatrixRK13ComplexMatrix@Base 3.4.3
 _Z8linspaceRK12ColumnVectorS1_i@Base 3.4.3
 _Z8linspaceRK17FloatColumnVectorS1_i@Base 3.4.3
 _Z8linspaceRK19ComplexColumnVectorS1_i@Base 3.4.3
 _Z8linspaceRK24FloatComplexColumnVectorS1_i@Base 3.4.3
 _Z8linspaceRKSt7complexIdES2_i@Base 3.4.3
 _Z8linspaceRKSt7complexIfES2_i@Base 3.4.3
 _Z8linspaceddi@Base 3.4.3
 _Z8linspaceffi@Base 3.4.3
 _Z8mul_hermRK13ComplexMatrixRK19SparseComplexMatrix@Base 3.4.3
 _Z8mx_el_eqRK10boolMatrixRK16SparseBoolMatrix@Base 3.4.3
 _Z8mx_el_eqRK10boolMatrixS1_@Base 3.4.3
 _Z8mx_el_eqRK10charMatrixRKc@Base 3.4.3
 _Z8mx_el_eqRK10charMatrixS1_@Base 3.4.3
 _Z8mx_el_eqRK10intNDArrayI10octave_intIaEERK12FloatNDArray@Base 3.4.3
 _Z8mx_el_eqRK10intNDArrayI10octave_intIaEERK7NDArray@Base 3.4.3
 _Z8mx_el_eqRK10intNDArrayI10octave_intIaEERKS0_IhE@Base 3.4.3
 _Z8mx_el_eqRK10intNDArrayI10octave_intIaEERKS0_IiE@Base 3.4.3
 _Z8mx_el_eqRK10intNDArrayI10octave_intIaEERKS0_IjE@Base 3.4.3
 _Z8mx_el_eqRK10intNDArrayI10octave_intIaEERKS0_IsE@Base 3.4.3
 _Z8mx_el_eqRK10intNDArrayI10octave_intIaEERKS0_ItE@Base 3.4.3
 _Z8mx_el_eqRK10intNDArrayI10octave_intIaEERKS1_@Base 3.4.3
 _Z8mx_el_eqRK10intNDArrayI10octave_intIaEERKS_IS0_IhEE@Base 3.4.3
 _Z8mx_el_eqRK10intNDArrayI10octave_intIaEERKS_IS0_IiEE@Base 3.4.3
 _Z8mx_el_eqRK10intNDArrayI10octave_intIaEERKS_IS0_IjEE@Base 3.4.3
 _Z8mx_el_eqRK10intNDArrayI10octave_intIaEERKS_IS0_IsEE@Base 3.4.3
 _Z8mx_el_eqRK10intNDArrayI10octave_intIaEERKS_IS0_ItEE@Base 3.4.3
 _Z8mx_el_eqRK10intNDArrayI10octave_intIaEERKd@Base 3.4.3
 _Z8mx_el_eqRK10intNDArrayI10octave_intIaEERKf@Base 3.4.3
 _Z8mx_el_eqRK10intNDArrayI10octave_intIaEES4_@Base 3.4.3
 _Z8mx_el_eqRK10intNDArrayI10octave_intIhEERK12FloatNDArray@Base 3.4.3
 _Z8mx_el_eqRK10intNDArrayI10octave_intIhEERK7NDArray@Base 3.4.3
 _Z8mx_el_eqRK10intNDArrayI10octave_intIhEERKS0_IaE@Base 3.4.3
 _Z8mx_el_eqRK10intNDArrayI10octave_intIhEERKS0_IiE@Base 3.4.3
 _Z8mx_el_eqRK10intNDArrayI10octave_intIhEERKS0_IjE@Base 3.4.3
 _Z8mx_el_eqRK10intNDArrayI10octave_intIhEERKS0_IsE@Base 3.4.3
 _Z8mx_el_eqRK10intNDArrayI10octave_intIhEERKS0_ItE@Base 3.4.3
 _Z8mx_el_eqRK10intNDArrayI10octave_intIhEERKS1_@Base 3.4.3
 _Z8mx_el_eqRK10intNDArrayI10octave_intIhEERKS_IS0_IaEE@Base 3.4.3
 _Z8mx_el_eqRK10intNDArrayI10octave_intIhEERKS_IS0_IiEE@Base 3.4.3
 _Z8mx_el_eqRK10intNDArrayI10octave_intIhEERKS_IS0_IjEE@Base 3.4.3
 _Z8mx_el_eqRK10intNDArrayI10octave_intIhEERKS_IS0_IsEE@Base 3.4.3
 _Z8mx_el_eqRK10intNDArrayI10octave_intIhEERKS_IS0_ItEE@Base 3.4.3
 _Z8mx_el_eqRK10intNDArrayI10octave_intIhEERKd@Base 3.4.3
 _Z8mx_el_eqRK10intNDArrayI10octave_intIhEERKf@Base 3.4.3
 _Z8mx_el_eqRK10intNDArrayI10octave_intIhEES4_@Base 3.4.3
 _Z8mx_el_eqRK10intNDArrayI10octave_intIiEERK12FloatNDArray@Base 3.4.3
 _Z8mx_el_eqRK10intNDArrayI10octave_intIiEERK7NDArray@Base 3.4.3
 _Z8mx_el_eqRK10intNDArrayI10octave_intIiEERKS0_IaE@Base 3.4.3
 _Z8mx_el_eqRK10intNDArrayI10octave_intIiEERKS0_IhE@Base 3.4.3
 _Z8mx_el_eqRK10intNDArrayI10octave_intIiEERKS0_IjE@Base 3.4.3
 _Z8mx_el_eqRK10intNDArrayI10octave_intIiEERKS0_IsE@Base 3.4.3
 _Z8mx_el_eqRK10intNDArrayI10octave_intIiEERKS0_ItE@Base 3.4.3
 _Z8mx_el_eqRK10intNDArrayI10octave_intIiEERKS1_@Base 3.4.3
 _Z8mx_el_eqRK10intNDArrayI10octave_intIiEERKS_IS0_IaEE@Base 3.4.3
 _Z8mx_el_eqRK10intNDArrayI10octave_intIiEERKS_IS0_IhEE@Base 3.4.3
 _Z8mx_el_eqRK10intNDArrayI10octave_intIiEERKS_IS0_IjEE@Base 3.4.3
 _Z8mx_el_eqRK10intNDArrayI10octave_intIiEERKS_IS0_IsEE@Base 3.4.3
 _Z8mx_el_eqRK10intNDArrayI10octave_intIiEERKS_IS0_ItEE@Base 3.4.3
 _Z8mx_el_eqRK10intNDArrayI10octave_intIiEERKd@Base 3.4.3
 _Z8mx_el_eqRK10intNDArrayI10octave_intIiEERKf@Base 3.4.3
 _Z8mx_el_eqRK10intNDArrayI10octave_intIiEES4_@Base 3.4.3
 _Z8mx_el_eqRK10intNDArrayI10octave_intIjEERK12FloatNDArray@Base 3.4.3
 _Z8mx_el_eqRK10intNDArrayI10octave_intIjEERK7NDArray@Base 3.4.3
 _Z8mx_el_eqRK10intNDArrayI10octave_intIjEERKS0_IaE@Base 3.4.3
 _Z8mx_el_eqRK10intNDArrayI10octave_intIjEERKS0_IhE@Base 3.4.3
 _Z8mx_el_eqRK10intNDArrayI10octave_intIjEERKS0_IiE@Base 3.4.3
 _Z8mx_el_eqRK10intNDArrayI10octave_intIjEERKS0_IsE@Base 3.4.3
 _Z8mx_el_eqRK10intNDArrayI10octave_intIjEERKS0_ItE@Base 3.4.3
 _Z8mx_el_eqRK10intNDArrayI10octave_intIjEERKS1_@Base 3.4.3
 _Z8mx_el_eqRK10intNDArrayI10octave_intIjEERKS_IS0_IaEE@Base 3.4.3
 _Z8mx_el_eqRK10intNDArrayI10octave_intIjEERKS_IS0_IhEE@Base 3.4.3
 _Z8mx_el_eqRK10intNDArrayI10octave_intIjEERKS_IS0_IiEE@Base 3.4.3
 _Z8mx_el_eqRK10intNDArrayI10octave_intIjEERKS_IS0_IsEE@Base 3.4.3
 _Z8mx_el_eqRK10intNDArrayI10octave_intIjEERKS_IS0_ItEE@Base 3.4.3
 _Z8mx_el_eqRK10intNDArrayI10octave_intIjEERKd@Base 3.4.3
 _Z8mx_el_eqRK10intNDArrayI10octave_intIjEERKf@Base 3.4.3
 _Z8mx_el_eqRK10intNDArrayI10octave_intIjEES4_@Base 3.4.3
 _Z8mx_el_eqRK10intNDArrayI10octave_intIsEERK12FloatNDArray@Base 3.4.3
 _Z8mx_el_eqRK10intNDArrayI10octave_intIsEERK7NDArray@Base 3.4.3
 _Z8mx_el_eqRK10intNDArrayI10octave_intIsEERKS0_IaE@Base 3.4.3
 _Z8mx_el_eqRK10intNDArrayI10octave_intIsEERKS0_IhE@Base 3.4.3
 _Z8mx_el_eqRK10intNDArrayI10octave_intIsEERKS0_IiE@Base 3.4.3
 _Z8mx_el_eqRK10intNDArrayI10octave_intIsEERKS0_IjE@Base 3.4.3
 _Z8mx_el_eqRK10intNDArrayI10octave_intIsEERKS0_ItE@Base 3.4.3
 _Z8mx_el_eqRK10intNDArrayI10octave_intIsEERKS1_@Base 3.4.3
 _Z8mx_el_eqRK10intNDArrayI10octave_intIsEERKS_IS0_IaEE@Base 3.4.3
 _Z8mx_el_eqRK10intNDArrayI10octave_intIsEERKS_IS0_IhEE@Base 3.4.3
 _Z8mx_el_eqRK10intNDArrayI10octave_intIsEERKS_IS0_IiEE@Base 3.4.3
 _Z8mx_el_eqRK10intNDArrayI10octave_intIsEERKS_IS0_IjEE@Base 3.4.3
 _Z8mx_el_eqRK10intNDArrayI10octave_intIsEERKS_IS0_ItEE@Base 3.4.3
 _Z8mx_el_eqRK10intNDArrayI10octave_intIsEERKd@Base 3.4.3
 _Z8mx_el_eqRK10intNDArrayI10octave_intIsEERKf@Base 3.4.3
 _Z8mx_el_eqRK10intNDArrayI10octave_intIsEES4_@Base 3.4.3
 _Z8mx_el_eqRK10intNDArrayI10octave_intItEERK12FloatNDArray@Base 3.4.3
 _Z8mx_el_eqRK10intNDArrayI10octave_intItEERK7NDArray@Base 3.4.3
 _Z8mx_el_eqRK10intNDArrayI10octave_intItEERKS0_IaE@Base 3.4.3
 _Z8mx_el_eqRK10intNDArrayI10octave_intItEERKS0_IhE@Base 3.4.3
 _Z8mx_el_eqRK10intNDArrayI10octave_intItEERKS0_IiE@Base 3.4.3
 _Z8mx_el_eqRK10intNDArrayI10octave_intItEERKS0_IjE@Base 3.4.3
 _Z8mx_el_eqRK10intNDArrayI10octave_intItEERKS0_IsE@Base 3.4.3
 _Z8mx_el_eqRK10intNDArrayI10octave_intItEERKS1_@Base 3.4.3
 _Z8mx_el_eqRK10intNDArrayI10octave_intItEERKS_IS0_IaEE@Base 3.4.3
 _Z8mx_el_eqRK10intNDArrayI10octave_intItEERKS_IS0_IhEE@Base 3.4.3
 _Z8mx_el_eqRK10intNDArrayI10octave_intItEERKS_IS0_IiEE@Base 3.4.3
 _Z8mx_el_eqRK10intNDArrayI10octave_intItEERKS_IS0_IjEE@Base 3.4.3
 _Z8mx_el_eqRK10intNDArrayI10octave_intItEERKS_IS0_IsEE@Base 3.4.3
 _Z8mx_el_eqRK10intNDArrayI10octave_intItEERKd@Base 3.4.3
 _Z8mx_el_eqRK10intNDArrayI10octave_intItEERKf@Base 3.4.3
 _Z8mx_el_eqRK10intNDArrayI10octave_intItEES4_@Base 3.4.3
 _Z8mx_el_eqRK10octave_intIaERK10intNDArrayIS0_E@Base 3.4.3
 _Z8mx_el_eqRK10octave_intIaERK10intNDArrayIS_IhEE@Base 3.4.3
 _Z8mx_el_eqRK10octave_intIaERK10intNDArrayIS_IiEE@Base 3.4.3
 _Z8mx_el_eqRK10octave_intIaERK10intNDArrayIS_IjEE@Base 3.4.3
 _Z8mx_el_eqRK10octave_intIaERK10intNDArrayIS_IsEE@Base 3.4.3
 _Z8mx_el_eqRK10octave_intIaERK10intNDArrayIS_ItEE@Base 3.4.3
 _Z8mx_el_eqRK10octave_intIaERK12FloatNDArray@Base 3.4.3
 _Z8mx_el_eqRK10octave_intIaERK7NDArray@Base 3.4.3
 _Z8mx_el_eqRK10octave_intIhERK10intNDArrayIS0_E@Base 3.4.3
 _Z8mx_el_eqRK10octave_intIhERK10intNDArrayIS_IaEE@Base 3.4.3
 _Z8mx_el_eqRK10octave_intIhERK10intNDArrayIS_IiEE@Base 3.4.3
 _Z8mx_el_eqRK10octave_intIhERK10intNDArrayIS_IjEE@Base 3.4.3
 _Z8mx_el_eqRK10octave_intIhERK10intNDArrayIS_IsEE@Base 3.4.3
 _Z8mx_el_eqRK10octave_intIhERK10intNDArrayIS_ItEE@Base 3.4.3
 _Z8mx_el_eqRK10octave_intIhERK12FloatNDArray@Base 3.4.3
 _Z8mx_el_eqRK10octave_intIhERK7NDArray@Base 3.4.3
 _Z8mx_el_eqRK10octave_intIiERK10intNDArrayIS0_E@Base 3.4.3
 _Z8mx_el_eqRK10octave_intIiERK10intNDArrayIS_IaEE@Base 3.4.3
 _Z8mx_el_eqRK10octave_intIiERK10intNDArrayIS_IhEE@Base 3.4.3
 _Z8mx_el_eqRK10octave_intIiERK10intNDArrayIS_IjEE@Base 3.4.3
 _Z8mx_el_eqRK10octave_intIiERK10intNDArrayIS_IsEE@Base 3.4.3
 _Z8mx_el_eqRK10octave_intIiERK10intNDArrayIS_ItEE@Base 3.4.3
 _Z8mx_el_eqRK10octave_intIiERK12FloatNDArray@Base 3.4.3
 _Z8mx_el_eqRK10octave_intIiERK7NDArray@Base 3.4.3
 _Z8mx_el_eqRK10octave_intIjERK10intNDArrayIS0_E@Base 3.4.3
 _Z8mx_el_eqRK10octave_intIjERK10intNDArrayIS_IaEE@Base 3.4.3
 _Z8mx_el_eqRK10octave_intIjERK10intNDArrayIS_IhEE@Base 3.4.3
 _Z8mx_el_eqRK10octave_intIjERK10intNDArrayIS_IiEE@Base 3.4.3
 _Z8mx_el_eqRK10octave_intIjERK10intNDArrayIS_IsEE@Base 3.4.3
 _Z8mx_el_eqRK10octave_intIjERK10intNDArrayIS_ItEE@Base 3.4.3
 _Z8mx_el_eqRK10octave_intIjERK12FloatNDArray@Base 3.4.3
 _Z8mx_el_eqRK10octave_intIjERK7NDArray@Base 3.4.3
 _Z8mx_el_eqRK10octave_intIsERK10intNDArrayIS0_E@Base 3.4.3
 _Z8mx_el_eqRK10octave_intIsERK10intNDArrayIS_IaEE@Base 3.4.3
 _Z8mx_el_eqRK10octave_intIsERK10intNDArrayIS_IhEE@Base 3.4.3
 _Z8mx_el_eqRK10octave_intIsERK10intNDArrayIS_IiEE@Base 3.4.3
 _Z8mx_el_eqRK10octave_intIsERK10intNDArrayIS_IjEE@Base 3.4.3
 _Z8mx_el_eqRK10octave_intIsERK10intNDArrayIS_ItEE@Base 3.4.3
 _Z8mx_el_eqRK10octave_intIsERK12FloatNDArray@Base 3.4.3
 _Z8mx_el_eqRK10octave_intIsERK7NDArray@Base 3.4.3
 _Z8mx_el_eqRK10octave_intItERK10intNDArrayIS0_E@Base 3.4.3
 _Z8mx_el_eqRK10octave_intItERK10intNDArrayIS_IaEE@Base 3.4.3
 _Z8mx_el_eqRK10octave_intItERK10intNDArrayIS_IhEE@Base 3.4.3
 _Z8mx_el_eqRK10octave_intItERK10intNDArrayIS_IiEE@Base 3.4.3
 _Z8mx_el_eqRK10octave_intItERK10intNDArrayIS_IjEE@Base 3.4.3
 _Z8mx_el_eqRK10octave_intItERK10intNDArrayIS_IsEE@Base 3.4.3
 _Z8mx_el_eqRK10octave_intItERK12FloatNDArray@Base 3.4.3
 _Z8mx_el_eqRK10octave_intItERK7NDArray@Base 3.4.3
 _Z8mx_el_eqRK11FloatMatrixRK18FloatComplexMatrix@Base 3.4.3
 _Z8mx_el_eqRK11FloatMatrixRKSt7complexIfE@Base 3.4.3
 _Z8mx_el_eqRK11FloatMatrixRKf@Base 3.4.3
 _Z8mx_el_eqRK11FloatMatrixS1_@Base 3.4.3
 _Z8mx_el_eqRK11boolNDArrayRKb@Base 3.4.3
 _Z8mx_el_eqRK11boolNDArrayS1_@Base 3.4.3
 _Z8mx_el_eqRK11charNDArrayRKc@Base 3.4.3
 _Z8mx_el_eqRK11charNDArrayS1_@Base 3.4.3
 _Z8mx_el_eqRK12FloatNDArrayRK10intNDArrayI10octave_intIaEE@Base 3.4.3
 _Z8mx_el_eqRK12FloatNDArrayRK10intNDArrayI10octave_intIhEE@Base 3.4.3
 _Z8mx_el_eqRK12FloatNDArrayRK10intNDArrayI10octave_intIiEE@Base 3.4.3
 _Z8mx_el_eqRK12FloatNDArrayRK10intNDArrayI10octave_intIjEE@Base 3.4.3
 _Z8mx_el_eqRK12FloatNDArrayRK10intNDArrayI10octave_intIsEE@Base 3.4.3
 _Z8mx_el_eqRK12FloatNDArrayRK10intNDArrayI10octave_intItEE@Base 3.4.3
 _Z8mx_el_eqRK12FloatNDArrayRK10octave_intIaE@Base 3.4.3
 _Z8mx_el_eqRK12FloatNDArrayRK10octave_intIhE@Base 3.4.3
 _Z8mx_el_eqRK12FloatNDArrayRK10octave_intIiE@Base 3.4.3
 _Z8mx_el_eqRK12FloatNDArrayRK10octave_intIjE@Base 3.4.3
 _Z8mx_el_eqRK12FloatNDArrayRK10octave_intIsE@Base 3.4.3
 _Z8mx_el_eqRK12FloatNDArrayRK10octave_intItE@Base 3.4.3
 _Z8mx_el_eqRK12FloatNDArrayRK19FloatComplexNDArray@Base 3.4.3
 _Z8mx_el_eqRK12FloatNDArrayRKSt7complexIfE@Base 3.4.3
 _Z8mx_el_eqRK12FloatNDArrayRKf@Base 3.4.3
 _Z8mx_el_eqRK12FloatNDArrayS1_@Base 3.4.3
 _Z8mx_el_eqRK12SparseMatrixRK13ComplexMatrix@Base 3.4.3
 _Z8mx_el_eqRK12SparseMatrixRK19SparseComplexMatrix@Base 3.4.3
 _Z8mx_el_eqRK12SparseMatrixRK6Matrix@Base 3.4.3
 _Z8mx_el_eqRK12SparseMatrixRKSt7complexIdE@Base 3.4.3
 _Z8mx_el_eqRK12SparseMatrixRKd@Base 3.4.3
 _Z8mx_el_eqRK12SparseMatrixS1_@Base 3.4.3
 _Z8mx_el_eqRK13ComplexMatrixRK12SparseMatrix@Base 3.4.3
 _Z8mx_el_eqRK13ComplexMatrixRK19SparseComplexMatrix@Base 3.4.3
 _Z8mx_el_eqRK13ComplexMatrixRK6Matrix@Base 3.4.3
 _Z8mx_el_eqRK13ComplexMatrixRKSt7complexIdE@Base 3.4.3
 _Z8mx_el_eqRK13ComplexMatrixRKd@Base 3.4.3
 _Z8mx_el_eqRK13ComplexMatrixS1_@Base 3.4.3
 _Z8mx_el_eqRK14ComplexNDArrayRK7NDArray@Base 3.4.3
 _Z8mx_el_eqRK14ComplexNDArrayRKSt7complexIdE@Base 3.4.3
 _Z8mx_el_eqRK14ComplexNDArrayRKd@Base 3.4.3
 _Z8mx_el_eqRK14ComplexNDArrayS1_@Base 3.4.3
 _Z8mx_el_eqRK16SparseBoolMatrixRK10boolMatrix@Base 3.4.3
 _Z8mx_el_eqRK16SparseBoolMatrixRKb@Base 3.4.3
 _Z8mx_el_eqRK16SparseBoolMatrixS1_@Base 3.4.3
 _Z8mx_el_eqRK18FloatComplexMatrixRK11FloatMatrix@Base 3.4.3
 _Z8mx_el_eqRK18FloatComplexMatrixRKSt7complexIfE@Base 3.4.3
 _Z8mx_el_eqRK18FloatComplexMatrixRKf@Base 3.4.3
 _Z8mx_el_eqRK18FloatComplexMatrixS1_@Base 3.4.3
 _Z8mx_el_eqRK19FloatComplexNDArrayRK12FloatNDArray@Base 3.4.3
 _Z8mx_el_eqRK19FloatComplexNDArrayRKSt7complexIfE@Base 3.4.3
 _Z8mx_el_eqRK19FloatComplexNDArrayRKf@Base 3.4.3
 _Z8mx_el_eqRK19FloatComplexNDArrayS1_@Base 3.4.3
 _Z8mx_el_eqRK19SparseComplexMatrixRK12SparseMatrix@Base 3.4.3
 _Z8mx_el_eqRK19SparseComplexMatrixRK13ComplexMatrix@Base 3.4.3
 _Z8mx_el_eqRK19SparseComplexMatrixRK6Matrix@Base 3.4.3
 _Z8mx_el_eqRK19SparseComplexMatrixRKSt7complexIdE@Base 3.4.3
 _Z8mx_el_eqRK19SparseComplexMatrixRKd@Base 3.4.3
 _Z8mx_el_eqRK19SparseComplexMatrixS1_@Base 3.4.3
 _Z8mx_el_eqRK6MatrixRK12SparseMatrix@Base 3.4.3
 _Z8mx_el_eqRK6MatrixRK13ComplexMatrix@Base 3.4.3
 _Z8mx_el_eqRK6MatrixRK19SparseComplexMatrix@Base 3.4.3
 _Z8mx_el_eqRK6MatrixRKSt7complexIdE@Base 3.4.3
 _Z8mx_el_eqRK6MatrixRKd@Base 3.4.3
 _Z8mx_el_eqRK6MatrixS1_@Base 3.4.3
 _Z8mx_el_eqRK7NDArrayRK10intNDArrayI10octave_intIaEE@Base 3.4.3
 _Z8mx_el_eqRK7NDArrayRK10intNDArrayI10octave_intIhEE@Base 3.4.3
 _Z8mx_el_eqRK7NDArrayRK10intNDArrayI10octave_intIiEE@Base 3.4.3
 _Z8mx_el_eqRK7NDArrayRK10intNDArrayI10octave_intIjEE@Base 3.4.3
 _Z8mx_el_eqRK7NDArrayRK10intNDArrayI10octave_intIsEE@Base 3.4.3
 _Z8mx_el_eqRK7NDArrayRK10intNDArrayI10octave_intItEE@Base 3.4.3
 _Z8mx_el_eqRK7NDArrayRK10octave_intIaE@Base 3.4.3
 _Z8mx_el_eqRK7NDArrayRK10octave_intIhE@Base 3.4.3
 _Z8mx_el_eqRK7NDArrayRK10octave_intIiE@Base 3.4.3
 _Z8mx_el_eqRK7NDArrayRK10octave_intIjE@Base 3.4.3
 _Z8mx_el_eqRK7NDArrayRK10octave_intIsE@Base 3.4.3
 _Z8mx_el_eqRK7NDArrayRK10octave_intItE@Base 3.4.3
 _Z8mx_el_eqRK7NDArrayRK14ComplexNDArray@Base 3.4.3
 _Z8mx_el_eqRK7NDArrayRKSt7complexIdE@Base 3.4.3
 _Z8mx_el_eqRK7NDArrayRKd@Base 3.4.3
 _Z8mx_el_eqRK7NDArrayS1_@Base 3.4.3
 _Z8mx_el_eqRKSt7complexIdERK12SparseMatrix@Base 3.4.3
 _Z8mx_el_eqRKSt7complexIdERK13ComplexMatrix@Base 3.4.3
 _Z8mx_el_eqRKSt7complexIdERK14ComplexNDArray@Base 3.4.3
 _Z8mx_el_eqRKSt7complexIdERK19SparseComplexMatrix@Base 3.4.3
 _Z8mx_el_eqRKSt7complexIdERK6Matrix@Base 3.4.3
 _Z8mx_el_eqRKSt7complexIdERK7NDArray@Base 3.4.3
 _Z8mx_el_eqRKSt7complexIfERK11FloatMatrix@Base 3.4.3
 _Z8mx_el_eqRKSt7complexIfERK12FloatNDArray@Base 3.4.3
 _Z8mx_el_eqRKSt7complexIfERK18FloatComplexMatrix@Base 3.4.3
 _Z8mx_el_eqRKSt7complexIfERK19FloatComplexNDArray@Base 3.4.3
 _Z8mx_el_eqRKbRK11boolNDArray@Base 3.4.3
 _Z8mx_el_eqRKbRK16SparseBoolMatrix@Base 3.4.3
 _Z8mx_el_eqRKcRK10charMatrix@Base 3.4.3
 _Z8mx_el_eqRKcRK11charNDArray@Base 3.4.3
 _Z8mx_el_eqRKdRK10intNDArrayI10octave_intIaEE@Base 3.4.3
 _Z8mx_el_eqRKdRK10intNDArrayI10octave_intIhEE@Base 3.4.3
 _Z8mx_el_eqRKdRK10intNDArrayI10octave_intIiEE@Base 3.4.3
 _Z8mx_el_eqRKdRK10intNDArrayI10octave_intIjEE@Base 3.4.3
 _Z8mx_el_eqRKdRK10intNDArrayI10octave_intIsEE@Base 3.4.3
 _Z8mx_el_eqRKdRK10intNDArrayI10octave_intItEE@Base 3.4.3
 _Z8mx_el_eqRKdRK12SparseMatrix@Base 3.4.3
 _Z8mx_el_eqRKdRK13ComplexMatrix@Base 3.4.3
 _Z8mx_el_eqRKdRK14ComplexNDArray@Base 3.4.3
 _Z8mx_el_eqRKdRK19SparseComplexMatrix@Base 3.4.3
 _Z8mx_el_eqRKdRK6Matrix@Base 3.4.3
 _Z8mx_el_eqRKdRK7NDArray@Base 3.4.3
 _Z8mx_el_eqRKfRK10intNDArrayI10octave_intIaEE@Base 3.4.3
 _Z8mx_el_eqRKfRK10intNDArrayI10octave_intIhEE@Base 3.4.3
 _Z8mx_el_eqRKfRK10intNDArrayI10octave_intIiEE@Base 3.4.3
 _Z8mx_el_eqRKfRK10intNDArrayI10octave_intIjEE@Base 3.4.3
 _Z8mx_el_eqRKfRK10intNDArrayI10octave_intIsEE@Base 3.4.3
 _Z8mx_el_eqRKfRK10intNDArrayI10octave_intItEE@Base 3.4.3
 _Z8mx_el_eqRKfRK11FloatMatrix@Base 3.4.3
 _Z8mx_el_eqRKfRK12FloatNDArray@Base 3.4.3
 _Z8mx_el_eqRKfRK18FloatComplexMatrix@Base 3.4.3
 _Z8mx_el_eqRKfRK19FloatComplexNDArray@Base 3.4.3
 _Z8mx_el_geRK10boolMatrixS1_@Base 3.4.3
 _Z8mx_el_geRK10charMatrixRKc@Base 3.4.3
 _Z8mx_el_geRK10charMatrixS1_@Base 3.4.3
 _Z8mx_el_geRK10intNDArrayI10octave_intIaEERK12FloatNDArray@Base 3.4.3
 _Z8mx_el_geRK10intNDArrayI10octave_intIaEERK7NDArray@Base 3.4.3
 _Z8mx_el_geRK10intNDArrayI10octave_intIaEERKS0_IhE@Base 3.4.3
 _Z8mx_el_geRK10intNDArrayI10octave_intIaEERKS0_IiE@Base 3.4.3
 _Z8mx_el_geRK10intNDArrayI10octave_intIaEERKS0_IjE@Base 3.4.3
 _Z8mx_el_geRK10intNDArrayI10octave_intIaEERKS0_IsE@Base 3.4.3
 _Z8mx_el_geRK10intNDArrayI10octave_intIaEERKS0_ItE@Base 3.4.3
 _Z8mx_el_geRK10intNDArrayI10octave_intIaEERKS1_@Base 3.4.3
 _Z8mx_el_geRK10intNDArrayI10octave_intIaEERKS_IS0_IhEE@Base 3.4.3
 _Z8mx_el_geRK10intNDArrayI10octave_intIaEERKS_IS0_IiEE@Base 3.4.3
 _Z8mx_el_geRK10intNDArrayI10octave_intIaEERKS_IS0_IjEE@Base 3.4.3
 _Z8mx_el_geRK10intNDArrayI10octave_intIaEERKS_IS0_IsEE@Base 3.4.3
 _Z8mx_el_geRK10intNDArrayI10octave_intIaEERKS_IS0_ItEE@Base 3.4.3
 _Z8mx_el_geRK10intNDArrayI10octave_intIaEERKd@Base 3.4.3
 _Z8mx_el_geRK10intNDArrayI10octave_intIaEERKf@Base 3.4.3
 _Z8mx_el_geRK10intNDArrayI10octave_intIaEES4_@Base 3.4.3
 _Z8mx_el_geRK10intNDArrayI10octave_intIhEERK12FloatNDArray@Base 3.4.3
 _Z8mx_el_geRK10intNDArrayI10octave_intIhEERK7NDArray@Base 3.4.3
 _Z8mx_el_geRK10intNDArrayI10octave_intIhEERKS0_IaE@Base 3.4.3
 _Z8mx_el_geRK10intNDArrayI10octave_intIhEERKS0_IiE@Base 3.4.3
 _Z8mx_el_geRK10intNDArrayI10octave_intIhEERKS0_IjE@Base 3.4.3
 _Z8mx_el_geRK10intNDArrayI10octave_intIhEERKS0_IsE@Base 3.4.3
 _Z8mx_el_geRK10intNDArrayI10octave_intIhEERKS0_ItE@Base 3.4.3
 _Z8mx_el_geRK10intNDArrayI10octave_intIhEERKS1_@Base 3.4.3
 _Z8mx_el_geRK10intNDArrayI10octave_intIhEERKS_IS0_IaEE@Base 3.4.3
 _Z8mx_el_geRK10intNDArrayI10octave_intIhEERKS_IS0_IiEE@Base 3.4.3
 _Z8mx_el_geRK10intNDArrayI10octave_intIhEERKS_IS0_IjEE@Base 3.4.3
 _Z8mx_el_geRK10intNDArrayI10octave_intIhEERKS_IS0_IsEE@Base 3.4.3
 _Z8mx_el_geRK10intNDArrayI10octave_intIhEERKS_IS0_ItEE@Base 3.4.3
 _Z8mx_el_geRK10intNDArrayI10octave_intIhEERKd@Base 3.4.3
 _Z8mx_el_geRK10intNDArrayI10octave_intIhEERKf@Base 3.4.3
 _Z8mx_el_geRK10intNDArrayI10octave_intIhEES4_@Base 3.4.3
 _Z8mx_el_geRK10intNDArrayI10octave_intIiEERK12FloatNDArray@Base 3.4.3
 _Z8mx_el_geRK10intNDArrayI10octave_intIiEERK7NDArray@Base 3.4.3
 _Z8mx_el_geRK10intNDArrayI10octave_intIiEERKS0_IaE@Base 3.4.3
 _Z8mx_el_geRK10intNDArrayI10octave_intIiEERKS0_IhE@Base 3.4.3
 _Z8mx_el_geRK10intNDArrayI10octave_intIiEERKS0_IjE@Base 3.4.3
 _Z8mx_el_geRK10intNDArrayI10octave_intIiEERKS0_IsE@Base 3.4.3
 _Z8mx_el_geRK10intNDArrayI10octave_intIiEERKS0_ItE@Base 3.4.3
 _Z8mx_el_geRK10intNDArrayI10octave_intIiEERKS1_@Base 3.4.3
 _Z8mx_el_geRK10intNDArrayI10octave_intIiEERKS_IS0_IaEE@Base 3.4.3
 _Z8mx_el_geRK10intNDArrayI10octave_intIiEERKS_IS0_IhEE@Base 3.4.3
 _Z8mx_el_geRK10intNDArrayI10octave_intIiEERKS_IS0_IjEE@Base 3.4.3
 _Z8mx_el_geRK10intNDArrayI10octave_intIiEERKS_IS0_IsEE@Base 3.4.3
 _Z8mx_el_geRK10intNDArrayI10octave_intIiEERKS_IS0_ItEE@Base 3.4.3
 _Z8mx_el_geRK10intNDArrayI10octave_intIiEERKd@Base 3.4.3
 _Z8mx_el_geRK10intNDArrayI10octave_intIiEERKf@Base 3.4.3
 _Z8mx_el_geRK10intNDArrayI10octave_intIiEES4_@Base 3.4.3
 _Z8mx_el_geRK10intNDArrayI10octave_intIjEERK12FloatNDArray@Base 3.4.3
 _Z8mx_el_geRK10intNDArrayI10octave_intIjEERK7NDArray@Base 3.4.3
 _Z8mx_el_geRK10intNDArrayI10octave_intIjEERKS0_IaE@Base 3.4.3
 _Z8mx_el_geRK10intNDArrayI10octave_intIjEERKS0_IhE@Base 3.4.3
 _Z8mx_el_geRK10intNDArrayI10octave_intIjEERKS0_IiE@Base 3.4.3
 _Z8mx_el_geRK10intNDArrayI10octave_intIjEERKS0_IsE@Base 3.4.3
 _Z8mx_el_geRK10intNDArrayI10octave_intIjEERKS0_ItE@Base 3.4.3
 _Z8mx_el_geRK10intNDArrayI10octave_intIjEERKS1_@Base 3.4.3
 _Z8mx_el_geRK10intNDArrayI10octave_intIjEERKS_IS0_IaEE@Base 3.4.3
 _Z8mx_el_geRK10intNDArrayI10octave_intIjEERKS_IS0_IhEE@Base 3.4.3
 _Z8mx_el_geRK10intNDArrayI10octave_intIjEERKS_IS0_IiEE@Base 3.4.3
 _Z8mx_el_geRK10intNDArrayI10octave_intIjEERKS_IS0_IsEE@Base 3.4.3
 _Z8mx_el_geRK10intNDArrayI10octave_intIjEERKS_IS0_ItEE@Base 3.4.3
 _Z8mx_el_geRK10intNDArrayI10octave_intIjEERKd@Base 3.4.3
 _Z8mx_el_geRK10intNDArrayI10octave_intIjEERKf@Base 3.4.3
 _Z8mx_el_geRK10intNDArrayI10octave_intIjEES4_@Base 3.4.3
 _Z8mx_el_geRK10intNDArrayI10octave_intIsEERK12FloatNDArray@Base 3.4.3
 _Z8mx_el_geRK10intNDArrayI10octave_intIsEERK7NDArray@Base 3.4.3
 _Z8mx_el_geRK10intNDArrayI10octave_intIsEERKS0_IaE@Base 3.4.3
 _Z8mx_el_geRK10intNDArrayI10octave_intIsEERKS0_IhE@Base 3.4.3
 _Z8mx_el_geRK10intNDArrayI10octave_intIsEERKS0_IiE@Base 3.4.3
 _Z8mx_el_geRK10intNDArrayI10octave_intIsEERKS0_IjE@Base 3.4.3
 _Z8mx_el_geRK10intNDArrayI10octave_intIsEERKS0_ItE@Base 3.4.3
 _Z8mx_el_geRK10intNDArrayI10octave_intIsEERKS1_@Base 3.4.3
 _Z8mx_el_geRK10intNDArrayI10octave_intIsEERKS_IS0_IaEE@Base 3.4.3
 _Z8mx_el_geRK10intNDArrayI10octave_intIsEERKS_IS0_IhEE@Base 3.4.3
 _Z8mx_el_geRK10intNDArrayI10octave_intIsEERKS_IS0_IiEE@Base 3.4.3
 _Z8mx_el_geRK10intNDArrayI10octave_intIsEERKS_IS0_IjEE@Base 3.4.3
 _Z8mx_el_geRK10intNDArrayI10octave_intIsEERKS_IS0_ItEE@Base 3.4.3
 _Z8mx_el_geRK10intNDArrayI10octave_intIsEERKd@Base 3.4.3
 _Z8mx_el_geRK10intNDArrayI10octave_intIsEERKf@Base 3.4.3
 _Z8mx_el_geRK10intNDArrayI10octave_intIsEES4_@Base 3.4.3
 _Z8mx_el_geRK10intNDArrayI10octave_intItEERK12FloatNDArray@Base 3.4.3
 _Z8mx_el_geRK10intNDArrayI10octave_intItEERK7NDArray@Base 3.4.3
 _Z8mx_el_geRK10intNDArrayI10octave_intItEERKS0_IaE@Base 3.4.3
 _Z8mx_el_geRK10intNDArrayI10octave_intItEERKS0_IhE@Base 3.4.3
 _Z8mx_el_geRK10intNDArrayI10octave_intItEERKS0_IiE@Base 3.4.3
 _Z8mx_el_geRK10intNDArrayI10octave_intItEERKS0_IjE@Base 3.4.3
 _Z8mx_el_geRK10intNDArrayI10octave_intItEERKS0_IsE@Base 3.4.3
 _Z8mx_el_geRK10intNDArrayI10octave_intItEERKS1_@Base 3.4.3
 _Z8mx_el_geRK10intNDArrayI10octave_intItEERKS_IS0_IaEE@Base 3.4.3
 _Z8mx_el_geRK10intNDArrayI10octave_intItEERKS_IS0_IhEE@Base 3.4.3
 _Z8mx_el_geRK10intNDArrayI10octave_intItEERKS_IS0_IiEE@Base 3.4.3
 _Z8mx_el_geRK10intNDArrayI10octave_intItEERKS_IS0_IjEE@Base 3.4.3
 _Z8mx_el_geRK10intNDArrayI10octave_intItEERKS_IS0_IsEE@Base 3.4.3
 _Z8mx_el_geRK10intNDArrayI10octave_intItEERKd@Base 3.4.3
 _Z8mx_el_geRK10intNDArrayI10octave_intItEERKf@Base 3.4.3
 _Z8mx_el_geRK10intNDArrayI10octave_intItEES4_@Base 3.4.3
 _Z8mx_el_geRK10octave_intIaERK10intNDArrayIS0_E@Base 3.4.3
 _Z8mx_el_geRK10octave_intIaERK10intNDArrayIS_IhEE@Base 3.4.3
 _Z8mx_el_geRK10octave_intIaERK10intNDArrayIS_IiEE@Base 3.4.3
 _Z8mx_el_geRK10octave_intIaERK10intNDArrayIS_IjEE@Base 3.4.3
 _Z8mx_el_geRK10octave_intIaERK10intNDArrayIS_IsEE@Base 3.4.3
 _Z8mx_el_geRK10octave_intIaERK10intNDArrayIS_ItEE@Base 3.4.3
 _Z8mx_el_geRK10octave_intIaERK12FloatNDArray@Base 3.4.3
 _Z8mx_el_geRK10octave_intIaERK7NDArray@Base 3.4.3
 _Z8mx_el_geRK10octave_intIhERK10intNDArrayIS0_E@Base 3.4.3
 _Z8mx_el_geRK10octave_intIhERK10intNDArrayIS_IaEE@Base 3.4.3
 _Z8mx_el_geRK10octave_intIhERK10intNDArrayIS_IiEE@Base 3.4.3
 _Z8mx_el_geRK10octave_intIhERK10intNDArrayIS_IjEE@Base 3.4.3
 _Z8mx_el_geRK10octave_intIhERK10intNDArrayIS_IsEE@Base 3.4.3
 _Z8mx_el_geRK10octave_intIhERK10intNDArrayIS_ItEE@Base 3.4.3
 _Z8mx_el_geRK10octave_intIhERK12FloatNDArray@Base 3.4.3
 _Z8mx_el_geRK10octave_intIhERK7NDArray@Base 3.4.3
 _Z8mx_el_geRK10octave_intIiERK10intNDArrayIS0_E@Base 3.4.3
 _Z8mx_el_geRK10octave_intIiERK10intNDArrayIS_IaEE@Base 3.4.3
 _Z8mx_el_geRK10octave_intIiERK10intNDArrayIS_IhEE@Base 3.4.3
 _Z8mx_el_geRK10octave_intIiERK10intNDArrayIS_IjEE@Base 3.4.3
 _Z8mx_el_geRK10octave_intIiERK10intNDArrayIS_IsEE@Base 3.4.3
 _Z8mx_el_geRK10octave_intIiERK10intNDArrayIS_ItEE@Base 3.4.3
 _Z8mx_el_geRK10octave_intIiERK12FloatNDArray@Base 3.4.3
 _Z8mx_el_geRK10octave_intIiERK7NDArray@Base 3.4.3
 _Z8mx_el_geRK10octave_intIjERK10intNDArrayIS0_E@Base 3.4.3
 _Z8mx_el_geRK10octave_intIjERK10intNDArrayIS_IaEE@Base 3.4.3
 _Z8mx_el_geRK10octave_intIjERK10intNDArrayIS_IhEE@Base 3.4.3
 _Z8mx_el_geRK10octave_intIjERK10intNDArrayIS_IiEE@Base 3.4.3
 _Z8mx_el_geRK10octave_intIjERK10intNDArrayIS_IsEE@Base 3.4.3
 _Z8mx_el_geRK10octave_intIjERK10intNDArrayIS_ItEE@Base 3.4.3
 _Z8mx_el_geRK10octave_intIjERK12FloatNDArray@Base 3.4.3
 _Z8mx_el_geRK10octave_intIjERK7NDArray@Base 3.4.3
 _Z8mx_el_geRK10octave_intIsERK10intNDArrayIS0_E@Base 3.4.3
 _Z8mx_el_geRK10octave_intIsERK10intNDArrayIS_IaEE@Base 3.4.3
 _Z8mx_el_geRK10octave_intIsERK10intNDArrayIS_IhEE@Base 3.4.3
 _Z8mx_el_geRK10octave_intIsERK10intNDArrayIS_IiEE@Base 3.4.3
 _Z8mx_el_geRK10octave_intIsERK10intNDArrayIS_IjEE@Base 3.4.3
 _Z8mx_el_geRK10octave_intIsERK10intNDArrayIS_ItEE@Base 3.4.3
 _Z8mx_el_geRK10octave_intIsERK12FloatNDArray@Base 3.4.3
 _Z8mx_el_geRK10octave_intIsERK7NDArray@Base 3.4.3
 _Z8mx_el_geRK10octave_intItERK10intNDArrayIS0_E@Base 3.4.3
 _Z8mx_el_geRK10octave_intItERK10intNDArrayIS_IaEE@Base 3.4.3
 _Z8mx_el_geRK10octave_intItERK10intNDArrayIS_IhEE@Base 3.4.3
 _Z8mx_el_geRK10octave_intItERK10intNDArrayIS_IiEE@Base 3.4.3
 _Z8mx_el_geRK10octave_intItERK10intNDArrayIS_IjEE@Base 3.4.3
 _Z8mx_el_geRK10octave_intItERK10intNDArrayIS_IsEE@Base 3.4.3
 _Z8mx_el_geRK10octave_intItERK12FloatNDArray@Base 3.4.3
 _Z8mx_el_geRK10octave_intItERK7NDArray@Base 3.4.3
 _Z8mx_el_geRK11FloatMatrixRK18FloatComplexMatrix@Base 3.4.3
 _Z8mx_el_geRK11FloatMatrixRKSt7complexIfE@Base 3.4.3
 _Z8mx_el_geRK11FloatMatrixRKf@Base 3.4.3
 _Z8mx_el_geRK11FloatMatrixS1_@Base 3.4.3
 _Z8mx_el_geRK11boolNDArrayRKb@Base 3.4.3
 _Z8mx_el_geRK11boolNDArrayS1_@Base 3.4.3
 _Z8mx_el_geRK11charNDArrayRKc@Base 3.4.3
 _Z8mx_el_geRK11charNDArrayS1_@Base 3.4.3
 _Z8mx_el_geRK12FloatNDArrayRK10intNDArrayI10octave_intIaEE@Base 3.4.3
 _Z8mx_el_geRK12FloatNDArrayRK10intNDArrayI10octave_intIhEE@Base 3.4.3
 _Z8mx_el_geRK12FloatNDArrayRK10intNDArrayI10octave_intIiEE@Base 3.4.3
 _Z8mx_el_geRK12FloatNDArrayRK10intNDArrayI10octave_intIjEE@Base 3.4.3
 _Z8mx_el_geRK12FloatNDArrayRK10intNDArrayI10octave_intIsEE@Base 3.4.3
 _Z8mx_el_geRK12FloatNDArrayRK10intNDArrayI10octave_intItEE@Base 3.4.3
 _Z8mx_el_geRK12FloatNDArrayRK10octave_intIaE@Base 3.4.3
 _Z8mx_el_geRK12FloatNDArrayRK10octave_intIhE@Base 3.4.3
 _Z8mx_el_geRK12FloatNDArrayRK10octave_intIiE@Base 3.4.3
 _Z8mx_el_geRK12FloatNDArrayRK10octave_intIjE@Base 3.4.3
 _Z8mx_el_geRK12FloatNDArrayRK10octave_intIsE@Base 3.4.3
 _Z8mx_el_geRK12FloatNDArrayRK10octave_intItE@Base 3.4.3
 _Z8mx_el_geRK12FloatNDArrayRK19FloatComplexNDArray@Base 3.4.3
 _Z8mx_el_geRK12FloatNDArrayRKSt7complexIfE@Base 3.4.3
 _Z8mx_el_geRK12FloatNDArrayRKf@Base 3.4.3
 _Z8mx_el_geRK12FloatNDArrayS1_@Base 3.4.3
 _Z8mx_el_geRK12SparseMatrixRK13ComplexMatrix@Base 3.4.3
 _Z8mx_el_geRK12SparseMatrixRK19SparseComplexMatrix@Base 3.4.3
 _Z8mx_el_geRK12SparseMatrixRK6Matrix@Base 3.4.3
 _Z8mx_el_geRK12SparseMatrixRKSt7complexIdE@Base 3.4.3
 _Z8mx_el_geRK12SparseMatrixRKd@Base 3.4.3
 _Z8mx_el_geRK12SparseMatrixS1_@Base 3.4.3
 _Z8mx_el_geRK13ComplexMatrixRK12SparseMatrix@Base 3.4.3
 _Z8mx_el_geRK13ComplexMatrixRK19SparseComplexMatrix@Base 3.4.3
 _Z8mx_el_geRK13ComplexMatrixRK6Matrix@Base 3.4.3
 _Z8mx_el_geRK13ComplexMatrixRKSt7complexIdE@Base 3.4.3
 _Z8mx_el_geRK13ComplexMatrixRKd@Base 3.4.3
 _Z8mx_el_geRK13ComplexMatrixS1_@Base 3.4.3
 _Z8mx_el_geRK14ComplexNDArrayRK7NDArray@Base 3.4.3
 _Z8mx_el_geRK14ComplexNDArrayRKSt7complexIdE@Base 3.4.3
 _Z8mx_el_geRK14ComplexNDArrayRKd@Base 3.4.3
 _Z8mx_el_geRK14ComplexNDArrayS1_@Base 3.4.3
 _Z8mx_el_geRK18FloatComplexMatrixRK11FloatMatrix@Base 3.4.3
 _Z8mx_el_geRK18FloatComplexMatrixRKSt7complexIfE@Base 3.4.3
 _Z8mx_el_geRK18FloatComplexMatrixRKf@Base 3.4.3
 _Z8mx_el_geRK18FloatComplexMatrixS1_@Base 3.4.3
 _Z8mx_el_geRK19FloatComplexNDArrayRK12FloatNDArray@Base 3.4.3
 _Z8mx_el_geRK19FloatComplexNDArrayRKSt7complexIfE@Base 3.4.3
 _Z8mx_el_geRK19FloatComplexNDArrayRKf@Base 3.4.3
 _Z8mx_el_geRK19FloatComplexNDArrayS1_@Base 3.4.3
 _Z8mx_el_geRK19SparseComplexMatrixRK12SparseMatrix@Base 3.4.3
 _Z8mx_el_geRK19SparseComplexMatrixRK13ComplexMatrix@Base 3.4.3
 _Z8mx_el_geRK19SparseComplexMatrixRK6Matrix@Base 3.4.3
 _Z8mx_el_geRK19SparseComplexMatrixRKSt7complexIdE@Base 3.4.3
 _Z8mx_el_geRK19SparseComplexMatrixRKd@Base 3.4.3
 _Z8mx_el_geRK19SparseComplexMatrixS1_@Base 3.4.3
 _Z8mx_el_geRK6MatrixRK12SparseMatrix@Base 3.4.3
 _Z8mx_el_geRK6MatrixRK13ComplexMatrix@Base 3.4.3
 _Z8mx_el_geRK6MatrixRK19SparseComplexMatrix@Base 3.4.3
 _Z8mx_el_geRK6MatrixRKSt7complexIdE@Base 3.4.3
 _Z8mx_el_geRK6MatrixRKd@Base 3.4.3
 _Z8mx_el_geRK6MatrixS1_@Base 3.4.3
 _Z8mx_el_geRK7NDArrayRK10intNDArrayI10octave_intIaEE@Base 3.4.3
 _Z8mx_el_geRK7NDArrayRK10intNDArrayI10octave_intIhEE@Base 3.4.3
 _Z8mx_el_geRK7NDArrayRK10intNDArrayI10octave_intIiEE@Base 3.4.3
 _Z8mx_el_geRK7NDArrayRK10intNDArrayI10octave_intIjEE@Base 3.4.3
 _Z8mx_el_geRK7NDArrayRK10intNDArrayI10octave_intIsEE@Base 3.4.3
 _Z8mx_el_geRK7NDArrayRK10intNDArrayI10octave_intItEE@Base 3.4.3
 _Z8mx_el_geRK7NDArrayRK10octave_intIaE@Base 3.4.3
 _Z8mx_el_geRK7NDArrayRK10octave_intIhE@Base 3.4.3
 _Z8mx_el_geRK7NDArrayRK10octave_intIiE@Base 3.4.3
 _Z8mx_el_geRK7NDArrayRK10octave_intIjE@Base 3.4.3
 _Z8mx_el_geRK7NDArrayRK10octave_intIsE@Base 3.4.3
 _Z8mx_el_geRK7NDArrayRK10octave_intItE@Base 3.4.3
 _Z8mx_el_geRK7NDArrayRK14ComplexNDArray@Base 3.4.3
 _Z8mx_el_geRK7NDArrayRKSt7complexIdE@Base 3.4.3
 _Z8mx_el_geRK7NDArrayRKd@Base 3.4.3
 _Z8mx_el_geRK7NDArrayS1_@Base 3.4.3
 _Z8mx_el_geRKSt7complexIdERK12SparseMatrix@Base 3.4.3
 _Z8mx_el_geRKSt7complexIdERK13ComplexMatrix@Base 3.4.3
 _Z8mx_el_geRKSt7complexIdERK14ComplexNDArray@Base 3.4.3
 _Z8mx_el_geRKSt7complexIdERK19SparseComplexMatrix@Base 3.4.3
 _Z8mx_el_geRKSt7complexIdERK6Matrix@Base 3.4.3
 _Z8mx_el_geRKSt7complexIdERK7NDArray@Base 3.4.3
 _Z8mx_el_geRKSt7complexIfERK11FloatMatrix@Base 3.4.3
 _Z8mx_el_geRKSt7complexIfERK12FloatNDArray@Base 3.4.3
 _Z8mx_el_geRKSt7complexIfERK18FloatComplexMatrix@Base 3.4.3
 _Z8mx_el_geRKSt7complexIfERK19FloatComplexNDArray@Base 3.4.3
 _Z8mx_el_geRKbRK11boolNDArray@Base 3.4.3
 _Z8mx_el_geRKcRK10charMatrix@Base 3.4.3
 _Z8mx_el_geRKcRK11charNDArray@Base 3.4.3
 _Z8mx_el_geRKdRK10intNDArrayI10octave_intIaEE@Base 3.4.3
 _Z8mx_el_geRKdRK10intNDArrayI10octave_intIhEE@Base 3.4.3
 _Z8mx_el_geRKdRK10intNDArrayI10octave_intIiEE@Base 3.4.3
 _Z8mx_el_geRKdRK10intNDArrayI10octave_intIjEE@Base 3.4.3
 _Z8mx_el_geRKdRK10intNDArrayI10octave_intIsEE@Base 3.4.3
 _Z8mx_el_geRKdRK10intNDArrayI10octave_intItEE@Base 3.4.3
 _Z8mx_el_geRKdRK12SparseMatrix@Base 3.4.3
 _Z8mx_el_geRKdRK13ComplexMatrix@Base 3.4.3
 _Z8mx_el_geRKdRK14ComplexNDArray@Base 3.4.3
 _Z8mx_el_geRKdRK19SparseComplexMatrix@Base 3.4.3
 _Z8mx_el_geRKdRK6Matrix@Base 3.4.3
 _Z8mx_el_geRKdRK7NDArray@Base 3.4.3
 _Z8mx_el_geRKfRK10intNDArrayI10octave_intIaEE@Base 3.4.3
 _Z8mx_el_geRKfRK10intNDArrayI10octave_intIhEE@Base 3.4.3
 _Z8mx_el_geRKfRK10intNDArrayI10octave_intIiEE@Base 3.4.3
 _Z8mx_el_geRKfRK10intNDArrayI10octave_intIjEE@Base 3.4.3
 _Z8mx_el_geRKfRK10intNDArrayI10octave_intIsEE@Base 3.4.3
 _Z8mx_el_geRKfRK10intNDArrayI10octave_intItEE@Base 3.4.3
 _Z8mx_el_geRKfRK11FloatMatrix@Base 3.4.3
 _Z8mx_el_geRKfRK12FloatNDArray@Base 3.4.3
 _Z8mx_el_geRKfRK18FloatComplexMatrix@Base 3.4.3
 _Z8mx_el_geRKfRK19FloatComplexNDArray@Base 3.4.3
 _Z8mx_el_gtRK10boolMatrixS1_@Base 3.4.3
 _Z8mx_el_gtRK10charMatrixRKc@Base 3.4.3
 _Z8mx_el_gtRK10charMatrixS1_@Base 3.4.3
 _Z8mx_el_gtRK10intNDArrayI10octave_intIaEERK12FloatNDArray@Base 3.4.3
 _Z8mx_el_gtRK10intNDArrayI10octave_intIaEERK7NDArray@Base 3.4.3
 _Z8mx_el_gtRK10intNDArrayI10octave_intIaEERKS0_IhE@Base 3.4.3
 _Z8mx_el_gtRK10intNDArrayI10octave_intIaEERKS0_IiE@Base 3.4.3
 _Z8mx_el_gtRK10intNDArrayI10octave_intIaEERKS0_IjE@Base 3.4.3
 _Z8mx_el_gtRK10intNDArrayI10octave_intIaEERKS0_IsE@Base 3.4.3
 _Z8mx_el_gtRK10intNDArrayI10octave_intIaEERKS0_ItE@Base 3.4.3
 _Z8mx_el_gtRK10intNDArrayI10octave_intIaEERKS1_@Base 3.4.3
 _Z8mx_el_gtRK10intNDArrayI10octave_intIaEERKS_IS0_IhEE@Base 3.4.3
 _Z8mx_el_gtRK10intNDArrayI10octave_intIaEERKS_IS0_IiEE@Base 3.4.3
 _Z8mx_el_gtRK10intNDArrayI10octave_intIaEERKS_IS0_IjEE@Base 3.4.3
 _Z8mx_el_gtRK10intNDArrayI10octave_intIaEERKS_IS0_IsEE@Base 3.4.3
 _Z8mx_el_gtRK10intNDArrayI10octave_intIaEERKS_IS0_ItEE@Base 3.4.3
 _Z8mx_el_gtRK10intNDArrayI10octave_intIaEERKd@Base 3.4.3
 _Z8mx_el_gtRK10intNDArrayI10octave_intIaEERKf@Base 3.4.3
 _Z8mx_el_gtRK10intNDArrayI10octave_intIaEES4_@Base 3.4.3
 _Z8mx_el_gtRK10intNDArrayI10octave_intIhEERK12FloatNDArray@Base 3.4.3
 _Z8mx_el_gtRK10intNDArrayI10octave_intIhEERK7NDArray@Base 3.4.3
 _Z8mx_el_gtRK10intNDArrayI10octave_intIhEERKS0_IaE@Base 3.4.3
 _Z8mx_el_gtRK10intNDArrayI10octave_intIhEERKS0_IiE@Base 3.4.3
 _Z8mx_el_gtRK10intNDArrayI10octave_intIhEERKS0_IjE@Base 3.4.3
 _Z8mx_el_gtRK10intNDArrayI10octave_intIhEERKS0_IsE@Base 3.4.3
 _Z8mx_el_gtRK10intNDArrayI10octave_intIhEERKS0_ItE@Base 3.4.3
 _Z8mx_el_gtRK10intNDArrayI10octave_intIhEERKS1_@Base 3.4.3
 _Z8mx_el_gtRK10intNDArrayI10octave_intIhEERKS_IS0_IaEE@Base 3.4.3
 _Z8mx_el_gtRK10intNDArrayI10octave_intIhEERKS_IS0_IiEE@Base 3.4.3
 _Z8mx_el_gtRK10intNDArrayI10octave_intIhEERKS_IS0_IjEE@Base 3.4.3
 _Z8mx_el_gtRK10intNDArrayI10octave_intIhEERKS_IS0_IsEE@Base 3.4.3
 _Z8mx_el_gtRK10intNDArrayI10octave_intIhEERKS_IS0_ItEE@Base 3.4.3
 _Z8mx_el_gtRK10intNDArrayI10octave_intIhEERKd@Base 3.4.3
 _Z8mx_el_gtRK10intNDArrayI10octave_intIhEERKf@Base 3.4.3
 _Z8mx_el_gtRK10intNDArrayI10octave_intIhEES4_@Base 3.4.3
 _Z8mx_el_gtRK10intNDArrayI10octave_intIiEERK12FloatNDArray@Base 3.4.3
 _Z8mx_el_gtRK10intNDArrayI10octave_intIiEERK7NDArray@Base 3.4.3
 _Z8mx_el_gtRK10intNDArrayI10octave_intIiEERKS0_IaE@Base 3.4.3
 _Z8mx_el_gtRK10intNDArrayI10octave_intIiEERKS0_IhE@Base 3.4.3
 _Z8mx_el_gtRK10intNDArrayI10octave_intIiEERKS0_IjE@Base 3.4.3
 _Z8mx_el_gtRK10intNDArrayI10octave_intIiEERKS0_IsE@Base 3.4.3
 _Z8mx_el_gtRK10intNDArrayI10octave_intIiEERKS0_ItE@Base 3.4.3
 _Z8mx_el_gtRK10intNDArrayI10octave_intIiEERKS1_@Base 3.4.3
 _Z8mx_el_gtRK10intNDArrayI10octave_intIiEERKS_IS0_IaEE@Base 3.4.3
 _Z8mx_el_gtRK10intNDArrayI10octave_intIiEERKS_IS0_IhEE@Base 3.4.3
 _Z8mx_el_gtRK10intNDArrayI10octave_intIiEERKS_IS0_IjEE@Base 3.4.3
 _Z8mx_el_gtRK10intNDArrayI10octave_intIiEERKS_IS0_IsEE@Base 3.4.3
 _Z8mx_el_gtRK10intNDArrayI10octave_intIiEERKS_IS0_ItEE@Base 3.4.3
 _Z8mx_el_gtRK10intNDArrayI10octave_intIiEERKd@Base 3.4.3
 _Z8mx_el_gtRK10intNDArrayI10octave_intIiEERKf@Base 3.4.3
 _Z8mx_el_gtRK10intNDArrayI10octave_intIiEES4_@Base 3.4.3
 _Z8mx_el_gtRK10intNDArrayI10octave_intIjEERK12FloatNDArray@Base 3.4.3
 _Z8mx_el_gtRK10intNDArrayI10octave_intIjEERK7NDArray@Base 3.4.3
 _Z8mx_el_gtRK10intNDArrayI10octave_intIjEERKS0_IaE@Base 3.4.3
 _Z8mx_el_gtRK10intNDArrayI10octave_intIjEERKS0_IhE@Base 3.4.3
 _Z8mx_el_gtRK10intNDArrayI10octave_intIjEERKS0_IiE@Base 3.4.3
 _Z8mx_el_gtRK10intNDArrayI10octave_intIjEERKS0_IsE@Base 3.4.3
 _Z8mx_el_gtRK10intNDArrayI10octave_intIjEERKS0_ItE@Base 3.4.3
 _Z8mx_el_gtRK10intNDArrayI10octave_intIjEERKS1_@Base 3.4.3
 _Z8mx_el_gtRK10intNDArrayI10octave_intIjEERKS_IS0_IaEE@Base 3.4.3
 _Z8mx_el_gtRK10intNDArrayI10octave_intIjEERKS_IS0_IhEE@Base 3.4.3
 _Z8mx_el_gtRK10intNDArrayI10octave_intIjEERKS_IS0_IiEE@Base 3.4.3
 _Z8mx_el_gtRK10intNDArrayI10octave_intIjEERKS_IS0_IsEE@Base 3.4.3
 _Z8mx_el_gtRK10intNDArrayI10octave_intIjEERKS_IS0_ItEE@Base 3.4.3
 _Z8mx_el_gtRK10intNDArrayI10octave_intIjEERKd@Base 3.4.3
 _Z8mx_el_gtRK10intNDArrayI10octave_intIjEERKf@Base 3.4.3
 _Z8mx_el_gtRK10intNDArrayI10octave_intIjEES4_@Base 3.4.3
 _Z8mx_el_gtRK10intNDArrayI10octave_intIsEERK12FloatNDArray@Base 3.4.3
 _Z8mx_el_gtRK10intNDArrayI10octave_intIsEERK7NDArray@Base 3.4.3
 _Z8mx_el_gtRK10intNDArrayI10octave_intIsEERKS0_IaE@Base 3.4.3
 _Z8mx_el_gtRK10intNDArrayI10octave_intIsEERKS0_IhE@Base 3.4.3
 _Z8mx_el_gtRK10intNDArrayI10octave_intIsEERKS0_IiE@Base 3.4.3
 _Z8mx_el_gtRK10intNDArrayI10octave_intIsEERKS0_IjE@Base 3.4.3
 _Z8mx_el_gtRK10intNDArrayI10octave_intIsEERKS0_ItE@Base 3.4.3
 _Z8mx_el_gtRK10intNDArrayI10octave_intIsEERKS1_@Base 3.4.3
 _Z8mx_el_gtRK10intNDArrayI10octave_intIsEERKS_IS0_IaEE@Base 3.4.3
 _Z8mx_el_gtRK10intNDArrayI10octave_intIsEERKS_IS0_IhEE@Base 3.4.3
 _Z8mx_el_gtRK10intNDArrayI10octave_intIsEERKS_IS0_IiEE@Base 3.4.3
 _Z8mx_el_gtRK10intNDArrayI10octave_intIsEERKS_IS0_IjEE@Base 3.4.3
 _Z8mx_el_gtRK10intNDArrayI10octave_intIsEERKS_IS0_ItEE@Base 3.4.3
 _Z8mx_el_gtRK10intNDArrayI10octave_intIsEERKd@Base 3.4.3
 _Z8mx_el_gtRK10intNDArrayI10octave_intIsEERKf@Base 3.4.3
 _Z8mx_el_gtRK10intNDArrayI10octave_intIsEES4_@Base 3.4.3
 _Z8mx_el_gtRK10intNDArrayI10octave_intItEERK12FloatNDArray@Base 3.4.3
 _Z8mx_el_gtRK10intNDArrayI10octave_intItEERK7NDArray@Base 3.4.3
 _Z8mx_el_gtRK10intNDArrayI10octave_intItEERKS0_IaE@Base 3.4.3
 _Z8mx_el_gtRK10intNDArrayI10octave_intItEERKS0_IhE@Base 3.4.3
 _Z8mx_el_gtRK10intNDArrayI10octave_intItEERKS0_IiE@Base 3.4.3
 _Z8mx_el_gtRK10intNDArrayI10octave_intItEERKS0_IjE@Base 3.4.3
 _Z8mx_el_gtRK10intNDArrayI10octave_intItEERKS0_IsE@Base 3.4.3
 _Z8mx_el_gtRK10intNDArrayI10octave_intItEERKS1_@Base 3.4.3
 _Z8mx_el_gtRK10intNDArrayI10octave_intItEERKS_IS0_IaEE@Base 3.4.3
 _Z8mx_el_gtRK10intNDArrayI10octave_intItEERKS_IS0_IhEE@Base 3.4.3
 _Z8mx_el_gtRK10intNDArrayI10octave_intItEERKS_IS0_IiEE@Base 3.4.3
 _Z8mx_el_gtRK10intNDArrayI10octave_intItEERKS_IS0_IjEE@Base 3.4.3
 _Z8mx_el_gtRK10intNDArrayI10octave_intItEERKS_IS0_IsEE@Base 3.4.3
 _Z8mx_el_gtRK10intNDArrayI10octave_intItEERKd@Base 3.4.3
 _Z8mx_el_gtRK10intNDArrayI10octave_intItEERKf@Base 3.4.3
 _Z8mx_el_gtRK10intNDArrayI10octave_intItEES4_@Base 3.4.3
 _Z8mx_el_gtRK10octave_intIaERK10intNDArrayIS0_E@Base 3.4.3
 _Z8mx_el_gtRK10octave_intIaERK10intNDArrayIS_IhEE@Base 3.4.3
 _Z8mx_el_gtRK10octave_intIaERK10intNDArrayIS_IiEE@Base 3.4.3
 _Z8mx_el_gtRK10octave_intIaERK10intNDArrayIS_IjEE@Base 3.4.3
 _Z8mx_el_gtRK10octave_intIaERK10intNDArrayIS_IsEE@Base 3.4.3
 _Z8mx_el_gtRK10octave_intIaERK10intNDArrayIS_ItEE@Base 3.4.3
 _Z8mx_el_gtRK10octave_intIaERK12FloatNDArray@Base 3.4.3
 _Z8mx_el_gtRK10octave_intIaERK7NDArray@Base 3.4.3
 _Z8mx_el_gtRK10octave_intIhERK10intNDArrayIS0_E@Base 3.4.3
 _Z8mx_el_gtRK10octave_intIhERK10intNDArrayIS_IaEE@Base 3.4.3
 _Z8mx_el_gtRK10octave_intIhERK10intNDArrayIS_IiEE@Base 3.4.3
 _Z8mx_el_gtRK10octave_intIhERK10intNDArrayIS_IjEE@Base 3.4.3
 _Z8mx_el_gtRK10octave_intIhERK10intNDArrayIS_IsEE@Base 3.4.3
 _Z8mx_el_gtRK10octave_intIhERK10intNDArrayIS_ItEE@Base 3.4.3
 _Z8mx_el_gtRK10octave_intIhERK12FloatNDArray@Base 3.4.3
 _Z8mx_el_gtRK10octave_intIhERK7NDArray@Base 3.4.3
 _Z8mx_el_gtRK10octave_intIiERK10intNDArrayIS0_E@Base 3.4.3
 _Z8mx_el_gtRK10octave_intIiERK10intNDArrayIS_IaEE@Base 3.4.3
 _Z8mx_el_gtRK10octave_intIiERK10intNDArrayIS_IhEE@Base 3.4.3
 _Z8mx_el_gtRK10octave_intIiERK10intNDArrayIS_IjEE@Base 3.4.3
 _Z8mx_el_gtRK10octave_intIiERK10intNDArrayIS_IsEE@Base 3.4.3
 _Z8mx_el_gtRK10octave_intIiERK10intNDArrayIS_ItEE@Base 3.4.3
 _Z8mx_el_gtRK10octave_intIiERK12FloatNDArray@Base 3.4.3
 _Z8mx_el_gtRK10octave_intIiERK7NDArray@Base 3.4.3
 _Z8mx_el_gtRK10octave_intIjERK10intNDArrayIS0_E@Base 3.4.3
 _Z8mx_el_gtRK10octave_intIjERK10intNDArrayIS_IaEE@Base 3.4.3
 _Z8mx_el_gtRK10octave_intIjERK10intNDArrayIS_IhEE@Base 3.4.3
 _Z8mx_el_gtRK10octave_intIjERK10intNDArrayIS_IiEE@Base 3.4.3
 _Z8mx_el_gtRK10octave_intIjERK10intNDArrayIS_IsEE@Base 3.4.3
 _Z8mx_el_gtRK10octave_intIjERK10intNDArrayIS_ItEE@Base 3.4.3
 _Z8mx_el_gtRK10octave_intIjERK12FloatNDArray@Base 3.4.3
 _Z8mx_el_gtRK10octave_intIjERK7NDArray@Base 3.4.3
 _Z8mx_el_gtRK10octave_intIsERK10intNDArrayIS0_E@Base 3.4.3
 _Z8mx_el_gtRK10octave_intIsERK10intNDArrayIS_IaEE@Base 3.4.3
 _Z8mx_el_gtRK10octave_intIsERK10intNDArrayIS_IhEE@Base 3.4.3
 _Z8mx_el_gtRK10octave_intIsERK10intNDArrayIS_IiEE@Base 3.4.3
 _Z8mx_el_gtRK10octave_intIsERK10intNDArrayIS_IjEE@Base 3.4.3
 _Z8mx_el_gtRK10octave_intIsERK10intNDArrayIS_ItEE@Base 3.4.3
 _Z8mx_el_gtRK10octave_intIsERK12FloatNDArray@Base 3.4.3
 _Z8mx_el_gtRK10octave_intIsERK7NDArray@Base 3.4.3
 _Z8mx_el_gtRK10octave_intItERK10intNDArrayIS0_E@Base 3.4.3
 _Z8mx_el_gtRK10octave_intItERK10intNDArrayIS_IaEE@Base 3.4.3
 _Z8mx_el_gtRK10octave_intItERK10intNDArrayIS_IhEE@Base 3.4.3
 _Z8mx_el_gtRK10octave_intItERK10intNDArrayIS_IiEE@Base 3.4.3
 _Z8mx_el_gtRK10octave_intItERK10intNDArrayIS_IjEE@Base 3.4.3
 _Z8mx_el_gtRK10octave_intItERK10intNDArrayIS_IsEE@Base 3.4.3
 _Z8mx_el_gtRK10octave_intItERK12FloatNDArray@Base 3.4.3
 _Z8mx_el_gtRK10octave_intItERK7NDArray@Base 3.4.3
 _Z8mx_el_gtRK11FloatMatrixRK18FloatComplexMatrix@Base 3.4.3
 _Z8mx_el_gtRK11FloatMatrixRKSt7complexIfE@Base 3.4.3
 _Z8mx_el_gtRK11FloatMatrixRKf@Base 3.4.3
 _Z8mx_el_gtRK11FloatMatrixS1_@Base 3.4.3
 _Z8mx_el_gtRK11boolNDArrayRKb@Base 3.4.3
 _Z8mx_el_gtRK11boolNDArrayS1_@Base 3.4.3
 _Z8mx_el_gtRK11charNDArrayRKc@Base 3.4.3
 _Z8mx_el_gtRK11charNDArrayS1_@Base 3.4.3
 _Z8mx_el_gtRK12FloatNDArrayRK10intNDArrayI10octave_intIaEE@Base 3.4.3
 _Z8mx_el_gtRK12FloatNDArrayRK10intNDArrayI10octave_intIhEE@Base 3.4.3
 _Z8mx_el_gtRK12FloatNDArrayRK10intNDArrayI10octave_intIiEE@Base 3.4.3
 _Z8mx_el_gtRK12FloatNDArrayRK10intNDArrayI10octave_intIjEE@Base 3.4.3
 _Z8mx_el_gtRK12FloatNDArrayRK10intNDArrayI10octave_intIsEE@Base 3.4.3
 _Z8mx_el_gtRK12FloatNDArrayRK10intNDArrayI10octave_intItEE@Base 3.4.3
 _Z8mx_el_gtRK12FloatNDArrayRK10octave_intIaE@Base 3.4.3
 _Z8mx_el_gtRK12FloatNDArrayRK10octave_intIhE@Base 3.4.3
 _Z8mx_el_gtRK12FloatNDArrayRK10octave_intIiE@Base 3.4.3
 _Z8mx_el_gtRK12FloatNDArrayRK10octave_intIjE@Base 3.4.3
 _Z8mx_el_gtRK12FloatNDArrayRK10octave_intIsE@Base 3.4.3
 _Z8mx_el_gtRK12FloatNDArrayRK10octave_intItE@Base 3.4.3
 _Z8mx_el_gtRK12FloatNDArrayRK19FloatComplexNDArray@Base 3.4.3
 _Z8mx_el_gtRK12FloatNDArrayRKSt7complexIfE@Base 3.4.3
 _Z8mx_el_gtRK12FloatNDArrayRKf@Base 3.4.3
 _Z8mx_el_gtRK12FloatNDArrayS1_@Base 3.4.3
 _Z8mx_el_gtRK12SparseMatrixRK13ComplexMatrix@Base 3.4.3
 _Z8mx_el_gtRK12SparseMatrixRK19SparseComplexMatrix@Base 3.4.3
 _Z8mx_el_gtRK12SparseMatrixRK6Matrix@Base 3.4.3
 _Z8mx_el_gtRK12SparseMatrixRKSt7complexIdE@Base 3.4.3
 _Z8mx_el_gtRK12SparseMatrixRKd@Base 3.4.3
 _Z8mx_el_gtRK12SparseMatrixS1_@Base 3.4.3
 _Z8mx_el_gtRK13ComplexMatrixRK12SparseMatrix@Base 3.4.3
 _Z8mx_el_gtRK13ComplexMatrixRK19SparseComplexMatrix@Base 3.4.3
 _Z8mx_el_gtRK13ComplexMatrixRK6Matrix@Base 3.4.3
 _Z8mx_el_gtRK13ComplexMatrixRKSt7complexIdE@Base 3.4.3
 _Z8mx_el_gtRK13ComplexMatrixRKd@Base 3.4.3
 _Z8mx_el_gtRK13ComplexMatrixS1_@Base 3.4.3
 _Z8mx_el_gtRK14ComplexNDArrayRK7NDArray@Base 3.4.3
 _Z8mx_el_gtRK14ComplexNDArrayRKSt7complexIdE@Base 3.4.3
 _Z8mx_el_gtRK14ComplexNDArrayRKd@Base 3.4.3
 _Z8mx_el_gtRK14ComplexNDArrayS1_@Base 3.4.3
 _Z8mx_el_gtRK18FloatComplexMatrixRK11FloatMatrix@Base 3.4.3
 _Z8mx_el_gtRK18FloatComplexMatrixRKSt7complexIfE@Base 3.4.3
 _Z8mx_el_gtRK18FloatComplexMatrixRKf@Base 3.4.3
 _Z8mx_el_gtRK18FloatComplexMatrixS1_@Base 3.4.3
 _Z8mx_el_gtRK19FloatComplexNDArrayRK12FloatNDArray@Base 3.4.3
 _Z8mx_el_gtRK19FloatComplexNDArrayRKSt7complexIfE@Base 3.4.3
 _Z8mx_el_gtRK19FloatComplexNDArrayRKf@Base 3.4.3
 _Z8mx_el_gtRK19FloatComplexNDArrayS1_@Base 3.4.3
 _Z8mx_el_gtRK19SparseComplexMatrixRK12SparseMatrix@Base 3.4.3
 _Z8mx_el_gtRK19SparseComplexMatrixRK13ComplexMatrix@Base 3.4.3
 _Z8mx_el_gtRK19SparseComplexMatrixRK6Matrix@Base 3.4.3
 _Z8mx_el_gtRK19SparseComplexMatrixRKSt7complexIdE@Base 3.4.3
 _Z8mx_el_gtRK19SparseComplexMatrixRKd@Base 3.4.3
 _Z8mx_el_gtRK19SparseComplexMatrixS1_@Base 3.4.3
 _Z8mx_el_gtRK6MatrixRK12SparseMatrix@Base 3.4.3
 _Z8mx_el_gtRK6MatrixRK13ComplexMatrix@Base 3.4.3
 _Z8mx_el_gtRK6MatrixRK19SparseComplexMatrix@Base 3.4.3
 _Z8mx_el_gtRK6MatrixRKSt7complexIdE@Base 3.4.3
 _Z8mx_el_gtRK6MatrixRKd@Base 3.4.3
 _Z8mx_el_gtRK6MatrixS1_@Base 3.4.3
 _Z8mx_el_gtRK7NDArrayRK10intNDArrayI10octave_intIaEE@Base 3.4.3
 _Z8mx_el_gtRK7NDArrayRK10intNDArrayI10octave_intIhEE@Base 3.4.3
 _Z8mx_el_gtRK7NDArrayRK10intNDArrayI10octave_intIiEE@Base 3.4.3
 _Z8mx_el_gtRK7NDArrayRK10intNDArrayI10octave_intIjEE@Base 3.4.3
 _Z8mx_el_gtRK7NDArrayRK10intNDArrayI10octave_intIsEE@Base 3.4.3
 _Z8mx_el_gtRK7NDArrayRK10intNDArrayI10octave_intItEE@Base 3.4.3
 _Z8mx_el_gtRK7NDArrayRK10octave_intIaE@Base 3.4.3
 _Z8mx_el_gtRK7NDArrayRK10octave_intIhE@Base 3.4.3
 _Z8mx_el_gtRK7NDArrayRK10octave_intIiE@Base 3.4.3
 _Z8mx_el_gtRK7NDArrayRK10octave_intIjE@Base 3.4.3
 _Z8mx_el_gtRK7NDArrayRK10octave_intIsE@Base 3.4.3
 _Z8mx_el_gtRK7NDArrayRK10octave_intItE@Base 3.4.3
 _Z8mx_el_gtRK7NDArrayRK14ComplexNDArray@Base 3.4.3
 _Z8mx_el_gtRK7NDArrayRKSt7complexIdE@Base 3.4.3
 _Z8mx_el_gtRK7NDArrayRKd@Base 3.4.3
 _Z8mx_el_gtRK7NDArrayS1_@Base 3.4.3
 _Z8mx_el_gtRKSt7complexIdERK12SparseMatrix@Base 3.4.3
 _Z8mx_el_gtRKSt7complexIdERK13ComplexMatrix@Base 3.4.3
 _Z8mx_el_gtRKSt7complexIdERK14ComplexNDArray@Base 3.4.3
 _Z8mx_el_gtRKSt7complexIdERK19SparseComplexMatrix@Base 3.4.3
 _Z8mx_el_gtRKSt7complexIdERK6Matrix@Base 3.4.3
 _Z8mx_el_gtRKSt7complexIdERK7NDArray@Base 3.4.3
 _Z8mx_el_gtRKSt7complexIfERK11FloatMatrix@Base 3.4.3
 _Z8mx_el_gtRKSt7complexIfERK12FloatNDArray@Base 3.4.3
 _Z8mx_el_gtRKSt7complexIfERK18FloatComplexMatrix@Base 3.4.3
 _Z8mx_el_gtRKSt7complexIfERK19FloatComplexNDArray@Base 3.4.3
 _Z8mx_el_gtRKbRK11boolNDArray@Base 3.4.3
 _Z8mx_el_gtRKcRK10charMatrix@Base 3.4.3
 _Z8mx_el_gtRKcRK11charNDArray@Base 3.4.3
 _Z8mx_el_gtRKdRK10intNDArrayI10octave_intIaEE@Base 3.4.3
 _Z8mx_el_gtRKdRK10intNDArrayI10octave_intIhEE@Base 3.4.3
 _Z8mx_el_gtRKdRK10intNDArrayI10octave_intIiEE@Base 3.4.3
 _Z8mx_el_gtRKdRK10intNDArrayI10octave_intIjEE@Base 3.4.3
 _Z8mx_el_gtRKdRK10intNDArrayI10octave_intIsEE@Base 3.4.3
 _Z8mx_el_gtRKdRK10intNDArrayI10octave_intItEE@Base 3.4.3
 _Z8mx_el_gtRKdRK12SparseMatrix@Base 3.4.3
 _Z8mx_el_gtRKdRK13ComplexMatrix@Base 3.4.3
 _Z8mx_el_gtRKdRK14ComplexNDArray@Base 3.4.3
 _Z8mx_el_gtRKdRK19SparseComplexMatrix@Base 3.4.3
 _Z8mx_el_gtRKdRK6Matrix@Base 3.4.3
 _Z8mx_el_gtRKdRK7NDArray@Base 3.4.3
 _Z8mx_el_gtRKfRK10intNDArrayI10octave_intIaEE@Base 3.4.3
 _Z8mx_el_gtRKfRK10intNDArrayI10octave_intIhEE@Base 3.4.3
 _Z8mx_el_gtRKfRK10intNDArrayI10octave_intIiEE@Base 3.4.3
 _Z8mx_el_gtRKfRK10intNDArrayI10octave_intIjEE@Base 3.4.3
 _Z8mx_el_gtRKfRK10intNDArrayI10octave_intIsEE@Base 3.4.3
 _Z8mx_el_gtRKfRK10intNDArrayI10octave_intItEE@Base 3.4.3
 _Z8mx_el_gtRKfRK11FloatMatrix@Base 3.4.3
 _Z8mx_el_gtRKfRK12FloatNDArray@Base 3.4.3
 _Z8mx_el_gtRKfRK18FloatComplexMatrix@Base 3.4.3
 _Z8mx_el_gtRKfRK19FloatComplexNDArray@Base 3.4.3
 _Z8mx_el_leRK10boolMatrixS1_@Base 3.4.3
 _Z8mx_el_leRK10charMatrixRKc@Base 3.4.3
 _Z8mx_el_leRK10charMatrixS1_@Base 3.4.3
 _Z8mx_el_leRK10intNDArrayI10octave_intIaEERK12FloatNDArray@Base 3.4.3
 _Z8mx_el_leRK10intNDArrayI10octave_intIaEERK7NDArray@Base 3.4.3
 _Z8mx_el_leRK10intNDArrayI10octave_intIaEERKS0_IhE@Base 3.4.3
 _Z8mx_el_leRK10intNDArrayI10octave_intIaEERKS0_IiE@Base 3.4.3
 _Z8mx_el_leRK10intNDArrayI10octave_intIaEERKS0_IjE@Base 3.4.3
 _Z8mx_el_leRK10intNDArrayI10octave_intIaEERKS0_IsE@Base 3.4.3
 _Z8mx_el_leRK10intNDArrayI10octave_intIaEERKS0_ItE@Base 3.4.3
 _Z8mx_el_leRK10intNDArrayI10octave_intIaEERKS1_@Base 3.4.3
 _Z8mx_el_leRK10intNDArrayI10octave_intIaEERKS_IS0_IhEE@Base 3.4.3
 _Z8mx_el_leRK10intNDArrayI10octave_intIaEERKS_IS0_IiEE@Base 3.4.3
 _Z8mx_el_leRK10intNDArrayI10octave_intIaEERKS_IS0_IjEE@Base 3.4.3
 _Z8mx_el_leRK10intNDArrayI10octave_intIaEERKS_IS0_IsEE@Base 3.4.3
 _Z8mx_el_leRK10intNDArrayI10octave_intIaEERKS_IS0_ItEE@Base 3.4.3
 _Z8mx_el_leRK10intNDArrayI10octave_intIaEERKd@Base 3.4.3
 _Z8mx_el_leRK10intNDArrayI10octave_intIaEERKf@Base 3.4.3
 _Z8mx_el_leRK10intNDArrayI10octave_intIaEES4_@Base 3.4.3
 _Z8mx_el_leRK10intNDArrayI10octave_intIhEERK12FloatNDArray@Base 3.4.3
 _Z8mx_el_leRK10intNDArrayI10octave_intIhEERK7NDArray@Base 3.4.3
 _Z8mx_el_leRK10intNDArrayI10octave_intIhEERKS0_IaE@Base 3.4.3
 _Z8mx_el_leRK10intNDArrayI10octave_intIhEERKS0_IiE@Base 3.4.3
 _Z8mx_el_leRK10intNDArrayI10octave_intIhEERKS0_IjE@Base 3.4.3
 _Z8mx_el_leRK10intNDArrayI10octave_intIhEERKS0_IsE@Base 3.4.3
 _Z8mx_el_leRK10intNDArrayI10octave_intIhEERKS0_ItE@Base 3.4.3
 _Z8mx_el_leRK10intNDArrayI10octave_intIhEERKS1_@Base 3.4.3
 _Z8mx_el_leRK10intNDArrayI10octave_intIhEERKS_IS0_IaEE@Base 3.4.3
 _Z8mx_el_leRK10intNDArrayI10octave_intIhEERKS_IS0_IiEE@Base 3.4.3
 _Z8mx_el_leRK10intNDArrayI10octave_intIhEERKS_IS0_IjEE@Base 3.4.3
 _Z8mx_el_leRK10intNDArrayI10octave_intIhEERKS_IS0_IsEE@Base 3.4.3
 _Z8mx_el_leRK10intNDArrayI10octave_intIhEERKS_IS0_ItEE@Base 3.4.3
 _Z8mx_el_leRK10intNDArrayI10octave_intIhEERKd@Base 3.4.3
 _Z8mx_el_leRK10intNDArrayI10octave_intIhEERKf@Base 3.4.3
 _Z8mx_el_leRK10intNDArrayI10octave_intIhEES4_@Base 3.4.3
 _Z8mx_el_leRK10intNDArrayI10octave_intIiEERK12FloatNDArray@Base 3.4.3
 _Z8mx_el_leRK10intNDArrayI10octave_intIiEERK7NDArray@Base 3.4.3
 _Z8mx_el_leRK10intNDArrayI10octave_intIiEERKS0_IaE@Base 3.4.3
 _Z8mx_el_leRK10intNDArrayI10octave_intIiEERKS0_IhE@Base 3.4.3
 _Z8mx_el_leRK10intNDArrayI10octave_intIiEERKS0_IjE@Base 3.4.3
 _Z8mx_el_leRK10intNDArrayI10octave_intIiEERKS0_IsE@Base 3.4.3
 _Z8mx_el_leRK10intNDArrayI10octave_intIiEERKS0_ItE@Base 3.4.3
 _Z8mx_el_leRK10intNDArrayI10octave_intIiEERKS1_@Base 3.4.3
 _Z8mx_el_leRK10intNDArrayI10octave_intIiEERKS_IS0_IaEE@Base 3.4.3
 _Z8mx_el_leRK10intNDArrayI10octave_intIiEERKS_IS0_IhEE@Base 3.4.3
 _Z8mx_el_leRK10intNDArrayI10octave_intIiEERKS_IS0_IjEE@Base 3.4.3
 _Z8mx_el_leRK10intNDArrayI10octave_intIiEERKS_IS0_IsEE@Base 3.4.3
 _Z8mx_el_leRK10intNDArrayI10octave_intIiEERKS_IS0_ItEE@Base 3.4.3
 _Z8mx_el_leRK10intNDArrayI10octave_intIiEERKd@Base 3.4.3
 _Z8mx_el_leRK10intNDArrayI10octave_intIiEERKf@Base 3.4.3
 _Z8mx_el_leRK10intNDArrayI10octave_intIiEES4_@Base 3.4.3
 _Z8mx_el_leRK10intNDArrayI10octave_intIjEERK12FloatNDArray@Base 3.4.3
 _Z8mx_el_leRK10intNDArrayI10octave_intIjEERK7NDArray@Base 3.4.3
 _Z8mx_el_leRK10intNDArrayI10octave_intIjEERKS0_IaE@Base 3.4.3
 _Z8mx_el_leRK10intNDArrayI10octave_intIjEERKS0_IhE@Base 3.4.3
 _Z8mx_el_leRK10intNDArrayI10octave_intIjEERKS0_IiE@Base 3.4.3
 _Z8mx_el_leRK10intNDArrayI10octave_intIjEERKS0_IsE@Base 3.4.3
 _Z8mx_el_leRK10intNDArrayI10octave_intIjEERKS0_ItE@Base 3.4.3
 _Z8mx_el_leRK10intNDArrayI10octave_intIjEERKS1_@Base 3.4.3
 _Z8mx_el_leRK10intNDArrayI10octave_intIjEERKS_IS0_IaEE@Base 3.4.3
 _Z8mx_el_leRK10intNDArrayI10octave_intIjEERKS_IS0_IhEE@Base 3.4.3
 _Z8mx_el_leRK10intNDArrayI10octave_intIjEERKS_IS0_IiEE@Base 3.4.3
 _Z8mx_el_leRK10intNDArrayI10octave_intIjEERKS_IS0_IsEE@Base 3.4.3
 _Z8mx_el_leRK10intNDArrayI10octave_intIjEERKS_IS0_ItEE@Base 3.4.3
 _Z8mx_el_leRK10intNDArrayI10octave_intIjEERKd@Base 3.4.3
 _Z8mx_el_leRK10intNDArrayI10octave_intIjEERKf@Base 3.4.3
 _Z8mx_el_leRK10intNDArrayI10octave_intIjEES4_@Base 3.4.3
 _Z8mx_el_leRK10intNDArrayI10octave_intIsEERK12FloatNDArray@Base 3.4.3
 _Z8mx_el_leRK10intNDArrayI10octave_intIsEERK7NDArray@Base 3.4.3
 _Z8mx_el_leRK10intNDArrayI10octave_intIsEERKS0_IaE@Base 3.4.3
 _Z8mx_el_leRK10intNDArrayI10octave_intIsEERKS0_IhE@Base 3.4.3
 _Z8mx_el_leRK10intNDArrayI10octave_intIsEERKS0_IiE@Base 3.4.3
 _Z8mx_el_leRK10intNDArrayI10octave_intIsEERKS0_IjE@Base 3.4.3
 _Z8mx_el_leRK10intNDArrayI10octave_intIsEERKS0_ItE@Base 3.4.3
 _Z8mx_el_leRK10intNDArrayI10octave_intIsEERKS1_@Base 3.4.3
 _Z8mx_el_leRK10intNDArrayI10octave_intIsEERKS_IS0_IaEE@Base 3.4.3
 _Z8mx_el_leRK10intNDArrayI10octave_intIsEERKS_IS0_IhEE@Base 3.4.3
 _Z8mx_el_leRK10intNDArrayI10octave_intIsEERKS_IS0_IiEE@Base 3.4.3
 _Z8mx_el_leRK10intNDArrayI10octave_intIsEERKS_IS0_IjEE@Base 3.4.3
 _Z8mx_el_leRK10intNDArrayI10octave_intIsEERKS_IS0_ItEE@Base 3.4.3
 _Z8mx_el_leRK10intNDArrayI10octave_intIsEERKd@Base 3.4.3
 _Z8mx_el_leRK10intNDArrayI10octave_intIsEERKf@Base 3.4.3
 _Z8mx_el_leRK10intNDArrayI10octave_intIsEES4_@Base 3.4.3
 _Z8mx_el_leRK10intNDArrayI10octave_intItEERK12FloatNDArray@Base 3.4.3
 _Z8mx_el_leRK10intNDArrayI10octave_intItEERK7NDArray@Base 3.4.3
 _Z8mx_el_leRK10intNDArrayI10octave_intItEERKS0_IaE@Base 3.4.3
 _Z8mx_el_leRK10intNDArrayI10octave_intItEERKS0_IhE@Base 3.4.3
 _Z8mx_el_leRK10intNDArrayI10octave_intItEERKS0_IiE@Base 3.4.3
 _Z8mx_el_leRK10intNDArrayI10octave_intItEERKS0_IjE@Base 3.4.3
 _Z8mx_el_leRK10intNDArrayI10octave_intItEERKS0_IsE@Base 3.4.3
 _Z8mx_el_leRK10intNDArrayI10octave_intItEERKS1_@Base 3.4.3
 _Z8mx_el_leRK10intNDArrayI10octave_intItEERKS_IS0_IaEE@Base 3.4.3
 _Z8mx_el_leRK10intNDArrayI10octave_intItEERKS_IS0_IhEE@Base 3.4.3
 _Z8mx_el_leRK10intNDArrayI10octave_intItEERKS_IS0_IiEE@Base 3.4.3
 _Z8mx_el_leRK10intNDArrayI10octave_intItEERKS_IS0_IjEE@Base 3.4.3
 _Z8mx_el_leRK10intNDArrayI10octave_intItEERKS_IS0_IsEE@Base 3.4.3
 _Z8mx_el_leRK10intNDArrayI10octave_intItEERKd@Base 3.4.3
 _Z8mx_el_leRK10intNDArrayI10octave_intItEERKf@Base 3.4.3
 _Z8mx_el_leRK10intNDArrayI10octave_intItEES4_@Base 3.4.3
 _Z8mx_el_leRK10octave_intIaERK10intNDArrayIS0_E@Base 3.4.3
 _Z8mx_el_leRK10octave_intIaERK10intNDArrayIS_IhEE@Base 3.4.3
 _Z8mx_el_leRK10octave_intIaERK10intNDArrayIS_IiEE@Base 3.4.3
 _Z8mx_el_leRK10octave_intIaERK10intNDArrayIS_IjEE@Base 3.4.3
 _Z8mx_el_leRK10octave_intIaERK10intNDArrayIS_IsEE@Base 3.4.3
 _Z8mx_el_leRK10octave_intIaERK10intNDArrayIS_ItEE@Base 3.4.3
 _Z8mx_el_leRK10octave_intIaERK12FloatNDArray@Base 3.4.3
 _Z8mx_el_leRK10octave_intIaERK7NDArray@Base 3.4.3
 _Z8mx_el_leRK10octave_intIhERK10intNDArrayIS0_E@Base 3.4.3
 _Z8mx_el_leRK10octave_intIhERK10intNDArrayIS_IaEE@Base 3.4.3
 _Z8mx_el_leRK10octave_intIhERK10intNDArrayIS_IiEE@Base 3.4.3
 _Z8mx_el_leRK10octave_intIhERK10intNDArrayIS_IjEE@Base 3.4.3
 _Z8mx_el_leRK10octave_intIhERK10intNDArrayIS_IsEE@Base 3.4.3
 _Z8mx_el_leRK10octave_intIhERK10intNDArrayIS_ItEE@Base 3.4.3
 _Z8mx_el_leRK10octave_intIhERK12FloatNDArray@Base 3.4.3
 _Z8mx_el_leRK10octave_intIhERK7NDArray@Base 3.4.3
 _Z8mx_el_leRK10octave_intIiERK10intNDArrayIS0_E@Base 3.4.3
 _Z8mx_el_leRK10octave_intIiERK10intNDArrayIS_IaEE@Base 3.4.3
 _Z8mx_el_leRK10octave_intIiERK10intNDArrayIS_IhEE@Base 3.4.3
 _Z8mx_el_leRK10octave_intIiERK10intNDArrayIS_IjEE@Base 3.4.3
 _Z8mx_el_leRK10octave_intIiERK10intNDArrayIS_IsEE@Base 3.4.3
 _Z8mx_el_leRK10octave_intIiERK10intNDArrayIS_ItEE@Base 3.4.3
 _Z8mx_el_leRK10octave_intIiERK12FloatNDArray@Base 3.4.3
 _Z8mx_el_leRK10octave_intIiERK7NDArray@Base 3.4.3
 _Z8mx_el_leRK10octave_intIjERK10intNDArrayIS0_E@Base 3.4.3
 _Z8mx_el_leRK10octave_intIjERK10intNDArrayIS_IaEE@Base 3.4.3
 _Z8mx_el_leRK10octave_intIjERK10intNDArrayIS_IhEE@Base 3.4.3
 _Z8mx_el_leRK10octave_intIjERK10intNDArrayIS_IiEE@Base 3.4.3
 _Z8mx_el_leRK10octave_intIjERK10intNDArrayIS_IsEE@Base 3.4.3
 _Z8mx_el_leRK10octave_intIjERK10intNDArrayIS_ItEE@Base 3.4.3
 _Z8mx_el_leRK10octave_intIjERK12FloatNDArray@Base 3.4.3
 _Z8mx_el_leRK10octave_intIjERK7NDArray@Base 3.4.3
 _Z8mx_el_leRK10octave_intIsERK10intNDArrayIS0_E@Base 3.4.3
 _Z8mx_el_leRK10octave_intIsERK10intNDArrayIS_IaEE@Base 3.4.3
 _Z8mx_el_leRK10octave_intIsERK10intNDArrayIS_IhEE@Base 3.4.3
 _Z8mx_el_leRK10octave_intIsERK10intNDArrayIS_IiEE@Base 3.4.3
 _Z8mx_el_leRK10octave_intIsERK10intNDArrayIS_IjEE@Base 3.4.3
 _Z8mx_el_leRK10octave_intIsERK10intNDArrayIS_ItEE@Base 3.4.3
 _Z8mx_el_leRK10octave_intIsERK12FloatNDArray@Base 3.4.3
 _Z8mx_el_leRK10octave_intIsERK7NDArray@Base 3.4.3
 _Z8mx_el_leRK10octave_intItERK10intNDArrayIS0_E@Base 3.4.3
 _Z8mx_el_leRK10octave_intItERK10intNDArrayIS_IaEE@Base 3.4.3
 _Z8mx_el_leRK10octave_intItERK10intNDArrayIS_IhEE@Base 3.4.3
 _Z8mx_el_leRK10octave_intItERK10intNDArrayIS_IiEE@Base 3.4.3
 _Z8mx_el_leRK10octave_intItERK10intNDArrayIS_IjEE@Base 3.4.3
 _Z8mx_el_leRK10octave_intItERK10intNDArrayIS_IsEE@Base 3.4.3
 _Z8mx_el_leRK10octave_intItERK12FloatNDArray@Base 3.4.3
 _Z8mx_el_leRK10octave_intItERK7NDArray@Base 3.4.3
 _Z8mx_el_leRK11FloatMatrixRK18FloatComplexMatrix@Base 3.4.3
 _Z8mx_el_leRK11FloatMatrixRKSt7complexIfE@Base 3.4.3
 _Z8mx_el_leRK11FloatMatrixRKf@Base 3.4.3
 _Z8mx_el_leRK11FloatMatrixS1_@Base 3.4.3
 _Z8mx_el_leRK11boolNDArrayRKb@Base 3.4.3
 _Z8mx_el_leRK11boolNDArrayS1_@Base 3.4.3
 _Z8mx_el_leRK11charNDArrayRKc@Base 3.4.3
 _Z8mx_el_leRK11charNDArrayS1_@Base 3.4.3
 _Z8mx_el_leRK12FloatNDArrayRK10intNDArrayI10octave_intIaEE@Base 3.4.3
 _Z8mx_el_leRK12FloatNDArrayRK10intNDArrayI10octave_intIhEE@Base 3.4.3
 _Z8mx_el_leRK12FloatNDArrayRK10intNDArrayI10octave_intIiEE@Base 3.4.3
 _Z8mx_el_leRK12FloatNDArrayRK10intNDArrayI10octave_intIjEE@Base 3.4.3
 _Z8mx_el_leRK12FloatNDArrayRK10intNDArrayI10octave_intIsEE@Base 3.4.3
 _Z8mx_el_leRK12FloatNDArrayRK10intNDArrayI10octave_intItEE@Base 3.4.3
 _Z8mx_el_leRK12FloatNDArrayRK10octave_intIaE@Base 3.4.3
 _Z8mx_el_leRK12FloatNDArrayRK10octave_intIhE@Base 3.4.3
 _Z8mx_el_leRK12FloatNDArrayRK10octave_intIiE@Base 3.4.3
 _Z8mx_el_leRK12FloatNDArrayRK10octave_intIjE@Base 3.4.3
 _Z8mx_el_leRK12FloatNDArrayRK10octave_intIsE@Base 3.4.3
 _Z8mx_el_leRK12FloatNDArrayRK10octave_intItE@Base 3.4.3
 _Z8mx_el_leRK12FloatNDArrayRK19FloatComplexNDArray@Base 3.4.3
 _Z8mx_el_leRK12FloatNDArrayRKSt7complexIfE@Base 3.4.3
 _Z8mx_el_leRK12FloatNDArrayRKf@Base 3.4.3
 _Z8mx_el_leRK12FloatNDArrayS1_@Base 3.4.3
 _Z8mx_el_leRK12SparseMatrixRK13ComplexMatrix@Base 3.4.3
 _Z8mx_el_leRK12SparseMatrixRK19SparseComplexMatrix@Base 3.4.3
 _Z8mx_el_leRK12SparseMatrixRK6Matrix@Base 3.4.3
 _Z8mx_el_leRK12SparseMatrixRKSt7complexIdE@Base 3.4.3
 _Z8mx_el_leRK12SparseMatrixRKd@Base 3.4.3
 _Z8mx_el_leRK12SparseMatrixS1_@Base 3.4.3
 _Z8mx_el_leRK13ComplexMatrixRK12SparseMatrix@Base 3.4.3
 _Z8mx_el_leRK13ComplexMatrixRK19SparseComplexMatrix@Base 3.4.3
 _Z8mx_el_leRK13ComplexMatrixRK6Matrix@Base 3.4.3
 _Z8mx_el_leRK13ComplexMatrixRKSt7complexIdE@Base 3.4.3
 _Z8mx_el_leRK13ComplexMatrixRKd@Base 3.4.3
 _Z8mx_el_leRK13ComplexMatrixS1_@Base 3.4.3
 _Z8mx_el_leRK14ComplexNDArrayRK7NDArray@Base 3.4.3
 _Z8mx_el_leRK14ComplexNDArrayRKSt7complexIdE@Base 3.4.3
 _Z8mx_el_leRK14ComplexNDArrayRKd@Base 3.4.3
 _Z8mx_el_leRK14ComplexNDArrayS1_@Base 3.4.3
 _Z8mx_el_leRK18FloatComplexMatrixRK11FloatMatrix@Base 3.4.3
 _Z8mx_el_leRK18FloatComplexMatrixRKSt7complexIfE@Base 3.4.3
 _Z8mx_el_leRK18FloatComplexMatrixRKf@Base 3.4.3
 _Z8mx_el_leRK18FloatComplexMatrixS1_@Base 3.4.3
 _Z8mx_el_leRK19FloatComplexNDArrayRK12FloatNDArray@Base 3.4.3
 _Z8mx_el_leRK19FloatComplexNDArrayRKSt7complexIfE@Base 3.4.3
 _Z8mx_el_leRK19FloatComplexNDArrayRKf@Base 3.4.3
 _Z8mx_el_leRK19FloatComplexNDArrayS1_@Base 3.4.3
 _Z8mx_el_leRK19SparseComplexMatrixRK12SparseMatrix@Base 3.4.3
 _Z8mx_el_leRK19SparseComplexMatrixRK13ComplexMatrix@Base 3.4.3
 _Z8mx_el_leRK19SparseComplexMatrixRK6Matrix@Base 3.4.3
 _Z8mx_el_leRK19SparseComplexMatrixRKSt7complexIdE@Base 3.4.3
 _Z8mx_el_leRK19SparseComplexMatrixRKd@Base 3.4.3
 _Z8mx_el_leRK19SparseComplexMatrixS1_@Base 3.4.3
 _Z8mx_el_leRK6MatrixRK12SparseMatrix@Base 3.4.3
 _Z8mx_el_leRK6MatrixRK13ComplexMatrix@Base 3.4.3
 _Z8mx_el_leRK6MatrixRK19SparseComplexMatrix@Base 3.4.3
 _Z8mx_el_leRK6MatrixRKSt7complexIdE@Base 3.4.3
 _Z8mx_el_leRK6MatrixRKd@Base 3.4.3
 _Z8mx_el_leRK6MatrixS1_@Base 3.4.3
 _Z8mx_el_leRK7NDArrayRK10intNDArrayI10octave_intIaEE@Base 3.4.3
 _Z8mx_el_leRK7NDArrayRK10intNDArrayI10octave_intIhEE@Base 3.4.3
 _Z8mx_el_leRK7NDArrayRK10intNDArrayI10octave_intIiEE@Base 3.4.3
 _Z8mx_el_leRK7NDArrayRK10intNDArrayI10octave_intIjEE@Base 3.4.3
 _Z8mx_el_leRK7NDArrayRK10intNDArrayI10octave_intIsEE@Base 3.4.3
 _Z8mx_el_leRK7NDArrayRK10intNDArrayI10octave_intItEE@Base 3.4.3
 _Z8mx_el_leRK7NDArrayRK10octave_intIaE@Base 3.4.3
 _Z8mx_el_leRK7NDArrayRK10octave_intIhE@Base 3.4.3
 _Z8mx_el_leRK7NDArrayRK10octave_intIiE@Base 3.4.3
 _Z8mx_el_leRK7NDArrayRK10octave_intIjE@Base 3.4.3
 _Z8mx_el_leRK7NDArrayRK10octave_intIsE@Base 3.4.3
 _Z8mx_el_leRK7NDArrayRK10octave_intItE@Base 3.4.3
 _Z8mx_el_leRK7NDArrayRK14ComplexNDArray@Base 3.4.3
 _Z8mx_el_leRK7NDArrayRKSt7complexIdE@Base 3.4.3
 _Z8mx_el_leRK7NDArrayRKd@Base 3.4.3
 _Z8mx_el_leRK7NDArrayS1_@Base 3.4.3
 _Z8mx_el_leRKSt7complexIdERK12SparseMatrix@Base 3.4.3
 _Z8mx_el_leRKSt7complexIdERK13ComplexMatrix@Base 3.4.3
 _Z8mx_el_leRKSt7complexIdERK14ComplexNDArray@Base 3.4.3
 _Z8mx_el_leRKSt7complexIdERK19SparseComplexMatrix@Base 3.4.3
 _Z8mx_el_leRKSt7complexIdERK6Matrix@Base 3.4.3
 _Z8mx_el_leRKSt7complexIdERK7NDArray@Base 3.4.3
 _Z8mx_el_leRKSt7complexIfERK11FloatMatrix@Base 3.4.3
 _Z8mx_el_leRKSt7complexIfERK12FloatNDArray@Base 3.4.3
 _Z8mx_el_leRKSt7complexIfERK18FloatComplexMatrix@Base 3.4.3
 _Z8mx_el_leRKSt7complexIfERK19FloatComplexNDArray@Base 3.4.3
 _Z8mx_el_leRKbRK11boolNDArray@Base 3.4.3
 _Z8mx_el_leRKcRK10charMatrix@Base 3.4.3
 _Z8mx_el_leRKcRK11charNDArray@Base 3.4.3
 _Z8mx_el_leRKdRK10intNDArrayI10octave_intIaEE@Base 3.4.3
 _Z8mx_el_leRKdRK10intNDArrayI10octave_intIhEE@Base 3.4.3
 _Z8mx_el_leRKdRK10intNDArrayI10octave_intIiEE@Base 3.4.3
 _Z8mx_el_leRKdRK10intNDArrayI10octave_intIjEE@Base 3.4.3
 _Z8mx_el_leRKdRK10intNDArrayI10octave_intIsEE@Base 3.4.3
 _Z8mx_el_leRKdRK10intNDArrayI10octave_intItEE@Base 3.4.3
 _Z8mx_el_leRKdRK12SparseMatrix@Base 3.4.3
 _Z8mx_el_leRKdRK13ComplexMatrix@Base 3.4.3
 _Z8mx_el_leRKdRK14ComplexNDArray@Base 3.4.3
 _Z8mx_el_leRKdRK19SparseComplexMatrix@Base 3.4.3
 _Z8mx_el_leRKdRK6Matrix@Base 3.4.3
 _Z8mx_el_leRKdRK7NDArray@Base 3.4.3
 _Z8mx_el_leRKfRK10intNDArrayI10octave_intIaEE@Base 3.4.3
 _Z8mx_el_leRKfRK10intNDArrayI10octave_intIhEE@Base 3.4.3
 _Z8mx_el_leRKfRK10intNDArrayI10octave_intIiEE@Base 3.4.3
 _Z8mx_el_leRKfRK10intNDArrayI10octave_intIjEE@Base 3.4.3
 _Z8mx_el_leRKfRK10intNDArrayI10octave_intIsEE@Base 3.4.3
 _Z8mx_el_leRKfRK10intNDArrayI10octave_intItEE@Base 3.4.3
 _Z8mx_el_leRKfRK11FloatMatrix@Base 3.4.3
 _Z8mx_el_leRKfRK12FloatNDArray@Base 3.4.3
 _Z8mx_el_leRKfRK18FloatComplexMatrix@Base 3.4.3
 _Z8mx_el_leRKfRK19FloatComplexNDArray@Base 3.4.3
 _Z8mx_el_ltRK10boolMatrixS1_@Base 3.4.3
 _Z8mx_el_ltRK10charMatrixRKc@Base 3.4.3
 _Z8mx_el_ltRK10charMatrixS1_@Base 3.4.3
 _Z8mx_el_ltRK10intNDArrayI10octave_intIaEERK12FloatNDArray@Base 3.4.3
 _Z8mx_el_ltRK10intNDArrayI10octave_intIaEERK7NDArray@Base 3.4.3
 _Z8mx_el_ltRK10intNDArrayI10octave_intIaEERKS0_IhE@Base 3.4.3
 _Z8mx_el_ltRK10intNDArrayI10octave_intIaEERKS0_IiE@Base 3.4.3
 _Z8mx_el_ltRK10intNDArrayI10octave_intIaEERKS0_IjE@Base 3.4.3
 _Z8mx_el_ltRK10intNDArrayI10octave_intIaEERKS0_IsE@Base 3.4.3
 _Z8mx_el_ltRK10intNDArrayI10octave_intIaEERKS0_ItE@Base 3.4.3
 _Z8mx_el_ltRK10intNDArrayI10octave_intIaEERKS1_@Base 3.4.3
 _Z8mx_el_ltRK10intNDArrayI10octave_intIaEERKS_IS0_IhEE@Base 3.4.3
 _Z8mx_el_ltRK10intNDArrayI10octave_intIaEERKS_IS0_IiEE@Base 3.4.3
 _Z8mx_el_ltRK10intNDArrayI10octave_intIaEERKS_IS0_IjEE@Base 3.4.3
 _Z8mx_el_ltRK10intNDArrayI10octave_intIaEERKS_IS0_IsEE@Base 3.4.3
 _Z8mx_el_ltRK10intNDArrayI10octave_intIaEERKS_IS0_ItEE@Base 3.4.3
 _Z8mx_el_ltRK10intNDArrayI10octave_intIaEERKd@Base 3.4.3
 _Z8mx_el_ltRK10intNDArrayI10octave_intIaEERKf@Base 3.4.3
 _Z8mx_el_ltRK10intNDArrayI10octave_intIaEES4_@Base 3.4.3
 _Z8mx_el_ltRK10intNDArrayI10octave_intIhEERK12FloatNDArray@Base 3.4.3
 _Z8mx_el_ltRK10intNDArrayI10octave_intIhEERK7NDArray@Base 3.4.3
 _Z8mx_el_ltRK10intNDArrayI10octave_intIhEERKS0_IaE@Base 3.4.3
 _Z8mx_el_ltRK10intNDArrayI10octave_intIhEERKS0_IiE@Base 3.4.3
 _Z8mx_el_ltRK10intNDArrayI10octave_intIhEERKS0_IjE@Base 3.4.3
 _Z8mx_el_ltRK10intNDArrayI10octave_intIhEERKS0_IsE@Base 3.4.3
 _Z8mx_el_ltRK10intNDArrayI10octave_intIhEERKS0_ItE@Base 3.4.3
 _Z8mx_el_ltRK10intNDArrayI10octave_intIhEERKS1_@Base 3.4.3
 _Z8mx_el_ltRK10intNDArrayI10octave_intIhEERKS_IS0_IaEE@Base 3.4.3
 _Z8mx_el_ltRK10intNDArrayI10octave_intIhEERKS_IS0_IiEE@Base 3.4.3
 _Z8mx_el_ltRK10intNDArrayI10octave_intIhEERKS_IS0_IjEE@Base 3.4.3
 _Z8mx_el_ltRK10intNDArrayI10octave_intIhEERKS_IS0_IsEE@Base 3.4.3
 _Z8mx_el_ltRK10intNDArrayI10octave_intIhEERKS_IS0_ItEE@Base 3.4.3
 _Z8mx_el_ltRK10intNDArrayI10octave_intIhEERKd@Base 3.4.3
 _Z8mx_el_ltRK10intNDArrayI10octave_intIhEERKf@Base 3.4.3
 _Z8mx_el_ltRK10intNDArrayI10octave_intIhEES4_@Base 3.4.3
 _Z8mx_el_ltRK10intNDArrayI10octave_intIiEERK12FloatNDArray@Base 3.4.3
 _Z8mx_el_ltRK10intNDArrayI10octave_intIiEERK7NDArray@Base 3.4.3
 _Z8mx_el_ltRK10intNDArrayI10octave_intIiEERKS0_IaE@Base 3.4.3
 _Z8mx_el_ltRK10intNDArrayI10octave_intIiEERKS0_IhE@Base 3.4.3
 _Z8mx_el_ltRK10intNDArrayI10octave_intIiEERKS0_IjE@Base 3.4.3
 _Z8mx_el_ltRK10intNDArrayI10octave_intIiEERKS0_IsE@Base 3.4.3
 _Z8mx_el_ltRK10intNDArrayI10octave_intIiEERKS0_ItE@Base 3.4.3
 _Z8mx_el_ltRK10intNDArrayI10octave_intIiEERKS1_@Base 3.4.3
 _Z8mx_el_ltRK10intNDArrayI10octave_intIiEERKS_IS0_IaEE@Base 3.4.3
 _Z8mx_el_ltRK10intNDArrayI10octave_intIiEERKS_IS0_IhEE@Base 3.4.3
 _Z8mx_el_ltRK10intNDArrayI10octave_intIiEERKS_IS0_IjEE@Base 3.4.3
 _Z8mx_el_ltRK10intNDArrayI10octave_intIiEERKS_IS0_IsEE@Base 3.4.3
 _Z8mx_el_ltRK10intNDArrayI10octave_intIiEERKS_IS0_ItEE@Base 3.4.3
 _Z8mx_el_ltRK10intNDArrayI10octave_intIiEERKd@Base 3.4.3
 _Z8mx_el_ltRK10intNDArrayI10octave_intIiEERKf@Base 3.4.3
 _Z8mx_el_ltRK10intNDArrayI10octave_intIiEES4_@Base 3.4.3
 _Z8mx_el_ltRK10intNDArrayI10octave_intIjEERK12FloatNDArray@Base 3.4.3
 _Z8mx_el_ltRK10intNDArrayI10octave_intIjEERK7NDArray@Base 3.4.3
 _Z8mx_el_ltRK10intNDArrayI10octave_intIjEERKS0_IaE@Base 3.4.3
 _Z8mx_el_ltRK10intNDArrayI10octave_intIjEERKS0_IhE@Base 3.4.3
 _Z8mx_el_ltRK10intNDArrayI10octave_intIjEERKS0_IiE@Base 3.4.3
 _Z8mx_el_ltRK10intNDArrayI10octave_intIjEERKS0_IsE@Base 3.4.3
 _Z8mx_el_ltRK10intNDArrayI10octave_intIjEERKS0_ItE@Base 3.4.3
 _Z8mx_el_ltRK10intNDArrayI10octave_intIjEERKS1_@Base 3.4.3
 _Z8mx_el_ltRK10intNDArrayI10octave_intIjEERKS_IS0_IaEE@Base 3.4.3
 _Z8mx_el_ltRK10intNDArrayI10octave_intIjEERKS_IS0_IhEE@Base 3.4.3
 _Z8mx_el_ltRK10intNDArrayI10octave_intIjEERKS_IS0_IiEE@Base 3.4.3
 _Z8mx_el_ltRK10intNDArrayI10octave_intIjEERKS_IS0_IsEE@Base 3.4.3
 _Z8mx_el_ltRK10intNDArrayI10octave_intIjEERKS_IS0_ItEE@Base 3.4.3
 _Z8mx_el_ltRK10intNDArrayI10octave_intIjEERKd@Base 3.4.3
 _Z8mx_el_ltRK10intNDArrayI10octave_intIjEERKf@Base 3.4.3
 _Z8mx_el_ltRK10intNDArrayI10octave_intIjEES4_@Base 3.4.3
 _Z8mx_el_ltRK10intNDArrayI10octave_intIsEERK12FloatNDArray@Base 3.4.3
 _Z8mx_el_ltRK10intNDArrayI10octave_intIsEERK7NDArray@Base 3.4.3
 _Z8mx_el_ltRK10intNDArrayI10octave_intIsEERKS0_IaE@Base 3.4.3
 _Z8mx_el_ltRK10intNDArrayI10octave_intIsEERKS0_IhE@Base 3.4.3
 _Z8mx_el_ltRK10intNDArrayI10octave_intIsEERKS0_IiE@Base 3.4.3
 _Z8mx_el_ltRK10intNDArrayI10octave_intIsEERKS0_IjE@Base 3.4.3
 _Z8mx_el_ltRK10intNDArrayI10octave_intIsEERKS0_ItE@Base 3.4.3
 _Z8mx_el_ltRK10intNDArrayI10octave_intIsEERKS1_@Base 3.4.3
 _Z8mx_el_ltRK10intNDArrayI10octave_intIsEERKS_IS0_IaEE@Base 3.4.3
 _Z8mx_el_ltRK10intNDArrayI10octave_intIsEERKS_IS0_IhEE@Base 3.4.3
 _Z8mx_el_ltRK10intNDArrayI10octave_intIsEERKS_IS0_IiEE@Base 3.4.3
 _Z8mx_el_ltRK10intNDArrayI10octave_intIsEERKS_IS0_IjEE@Base 3.4.3
 _Z8mx_el_ltRK10intNDArrayI10octave_intIsEERKS_IS0_ItEE@Base 3.4.3
 _Z8mx_el_ltRK10intNDArrayI10octave_intIsEERKd@Base 3.4.3
 _Z8mx_el_ltRK10intNDArrayI10octave_intIsEERKf@Base 3.4.3
 _Z8mx_el_ltRK10intNDArrayI10octave_intIsEES4_@Base 3.4.3
 _Z8mx_el_ltRK10intNDArrayI10octave_intItEERK12FloatNDArray@Base 3.4.3
 _Z8mx_el_ltRK10intNDArrayI10octave_intItEERK7NDArray@Base 3.4.3
 _Z8mx_el_ltRK10intNDArrayI10octave_intItEERKS0_IaE@Base 3.4.3
 _Z8mx_el_ltRK10intNDArrayI10octave_intItEERKS0_IhE@Base 3.4.3
 _Z8mx_el_ltRK10intNDArrayI10octave_intItEERKS0_IiE@Base 3.4.3
 _Z8mx_el_ltRK10intNDArrayI10octave_intItEERKS0_IjE@Base 3.4.3
 _Z8mx_el_ltRK10intNDArrayI10octave_intItEERKS0_IsE@Base 3.4.3
 _Z8mx_el_ltRK10intNDArrayI10octave_intItEERKS1_@Base 3.4.3
 _Z8mx_el_ltRK10intNDArrayI10octave_intItEERKS_IS0_IaEE@Base 3.4.3
 _Z8mx_el_ltRK10intNDArrayI10octave_intItEERKS_IS0_IhEE@Base 3.4.3
 _Z8mx_el_ltRK10intNDArrayI10octave_intItEERKS_IS0_IiEE@Base 3.4.3
 _Z8mx_el_ltRK10intNDArrayI10octave_intItEERKS_IS0_IjEE@Base 3.4.3
 _Z8mx_el_ltRK10intNDArrayI10octave_intItEERKS_IS0_IsEE@Base 3.4.3
 _Z8mx_el_ltRK10intNDArrayI10octave_intItEERKd@Base 3.4.3
 _Z8mx_el_ltRK10intNDArrayI10octave_intItEERKf@Base 3.4.3
 _Z8mx_el_ltRK10intNDArrayI10octave_intItEES4_@Base 3.4.3
 _Z8mx_el_ltRK10octave_intIaERK10intNDArrayIS0_E@Base 3.4.3
 _Z8mx_el_ltRK10octave_intIaERK10intNDArrayIS_IhEE@Base 3.4.3
 _Z8mx_el_ltRK10octave_intIaERK10intNDArrayIS_IiEE@Base 3.4.3
 _Z8mx_el_ltRK10octave_intIaERK10intNDArrayIS_IjEE@Base 3.4.3
 _Z8mx_el_ltRK10octave_intIaERK10intNDArrayIS_IsEE@Base 3.4.3
 _Z8mx_el_ltRK10octave_intIaERK10intNDArrayIS_ItEE@Base 3.4.3
 _Z8mx_el_ltRK10octave_intIaERK12FloatNDArray@Base 3.4.3
 _Z8mx_el_ltRK10octave_intIaERK7NDArray@Base 3.4.3
 _Z8mx_el_ltRK10octave_intIhERK10intNDArrayIS0_E@Base 3.4.3
 _Z8mx_el_ltRK10octave_intIhERK10intNDArrayIS_IaEE@Base 3.4.3
 _Z8mx_el_ltRK10octave_intIhERK10intNDArrayIS_IiEE@Base 3.4.3
 _Z8mx_el_ltRK10octave_intIhERK10intNDArrayIS_IjEE@Base 3.4.3
 _Z8mx_el_ltRK10octave_intIhERK10intNDArrayIS_IsEE@Base 3.4.3
 _Z8mx_el_ltRK10octave_intIhERK10intNDArrayIS_ItEE@Base 3.4.3
 _Z8mx_el_ltRK10octave_intIhERK12FloatNDArray@Base 3.4.3
 _Z8mx_el_ltRK10octave_intIhERK7NDArray@Base 3.4.3
 _Z8mx_el_ltRK10octave_intIiERK10intNDArrayIS0_E@Base 3.4.3
 _Z8mx_el_ltRK10octave_intIiERK10intNDArrayIS_IaEE@Base 3.4.3
 _Z8mx_el_ltRK10octave_intIiERK10intNDArrayIS_IhEE@Base 3.4.3
 _Z8mx_el_ltRK10octave_intIiERK10intNDArrayIS_IjEE@Base 3.4.3
 _Z8mx_el_ltRK10octave_intIiERK10intNDArrayIS_IsEE@Base 3.4.3
 _Z8mx_el_ltRK10octave_intIiERK10intNDArrayIS_ItEE@Base 3.4.3
 _Z8mx_el_ltRK10octave_intIiERK12FloatNDArray@Base 3.4.3
 _Z8mx_el_ltRK10octave_intIiERK7NDArray@Base 3.4.3
 _Z8mx_el_ltRK10octave_intIjERK10intNDArrayIS0_E@Base 3.4.3
 _Z8mx_el_ltRK10octave_intIjERK10intNDArrayIS_IaEE@Base 3.4.3
 _Z8mx_el_ltRK10octave_intIjERK10intNDArrayIS_IhEE@Base 3.4.3
 _Z8mx_el_ltRK10octave_intIjERK10intNDArrayIS_IiEE@Base 3.4.3
 _Z8mx_el_ltRK10octave_intIjERK10intNDArrayIS_IsEE@Base 3.4.3
 _Z8mx_el_ltRK10octave_intIjERK10intNDArrayIS_ItEE@Base 3.4.3
 _Z8mx_el_ltRK10octave_intIjERK12FloatNDArray@Base 3.4.3
 _Z8mx_el_ltRK10octave_intIjERK7NDArray@Base 3.4.3
 _Z8mx_el_ltRK10octave_intIsERK10intNDArrayIS0_E@Base 3.4.3
 _Z8mx_el_ltRK10octave_intIsERK10intNDArrayIS_IaEE@Base 3.4.3
 _Z8mx_el_ltRK10octave_intIsERK10intNDArrayIS_IhEE@Base 3.4.3
 _Z8mx_el_ltRK10octave_intIsERK10intNDArrayIS_IiEE@Base 3.4.3
 _Z8mx_el_ltRK10octave_intIsERK10intNDArrayIS_IjEE@Base 3.4.3
 _Z8mx_el_ltRK10octave_intIsERK10intNDArrayIS_ItEE@Base 3.4.3
 _Z8mx_el_ltRK10octave_intIsERK12FloatNDArray@Base 3.4.3
 _Z8mx_el_ltRK10octave_intIsERK7NDArray@Base 3.4.3
 _Z8mx_el_ltRK10octave_intItERK10intNDArrayIS0_E@Base 3.4.3
 _Z8mx_el_ltRK10octave_intItERK10intNDArrayIS_IaEE@Base 3.4.3
 _Z8mx_el_ltRK10octave_intItERK10intNDArrayIS_IhEE@Base 3.4.3
 _Z8mx_el_ltRK10octave_intItERK10intNDArrayIS_IiEE@Base 3.4.3
 _Z8mx_el_ltRK10octave_intItERK10intNDArrayIS_IjEE@Base 3.4.3
 _Z8mx_el_ltRK10octave_intItERK10intNDArrayIS_IsEE@Base 3.4.3
 _Z8mx_el_ltRK10octave_intItERK12FloatNDArray@Base 3.4.3
 _Z8mx_el_ltRK10octave_intItERK7NDArray@Base 3.4.3
 _Z8mx_el_ltRK11FloatMatrixRK18FloatComplexMatrix@Base 3.4.3
 _Z8mx_el_ltRK11FloatMatrixRKSt7complexIfE@Base 3.4.3
 _Z8mx_el_ltRK11FloatMatrixRKf@Base 3.4.3
 _Z8mx_el_ltRK11FloatMatrixS1_@Base 3.4.3
 _Z8mx_el_ltRK11boolNDArrayRKb@Base 3.4.3
 _Z8mx_el_ltRK11boolNDArrayS1_@Base 3.4.3
 _Z8mx_el_ltRK11charNDArrayRKc@Base 3.4.3
 _Z8mx_el_ltRK11charNDArrayS1_@Base 3.4.3
 _Z8mx_el_ltRK12FloatNDArrayRK10intNDArrayI10octave_intIaEE@Base 3.4.3
 _Z8mx_el_ltRK12FloatNDArrayRK10intNDArrayI10octave_intIhEE@Base 3.4.3
 _Z8mx_el_ltRK12FloatNDArrayRK10intNDArrayI10octave_intIiEE@Base 3.4.3
 _Z8mx_el_ltRK12FloatNDArrayRK10intNDArrayI10octave_intIjEE@Base 3.4.3
 _Z8mx_el_ltRK12FloatNDArrayRK10intNDArrayI10octave_intIsEE@Base 3.4.3
 _Z8mx_el_ltRK12FloatNDArrayRK10intNDArrayI10octave_intItEE@Base 3.4.3
 _Z8mx_el_ltRK12FloatNDArrayRK10octave_intIaE@Base 3.4.3
 _Z8mx_el_ltRK12FloatNDArrayRK10octave_intIhE@Base 3.4.3
 _Z8mx_el_ltRK12FloatNDArrayRK10octave_intIiE@Base 3.4.3
 _Z8mx_el_ltRK12FloatNDArrayRK10octave_intIjE@Base 3.4.3
 _Z8mx_el_ltRK12FloatNDArrayRK10octave_intIsE@Base 3.4.3
 _Z8mx_el_ltRK12FloatNDArrayRK10octave_intItE@Base 3.4.3
 _Z8mx_el_ltRK12FloatNDArrayRK19FloatComplexNDArray@Base 3.4.3
 _Z8mx_el_ltRK12FloatNDArrayRKSt7complexIfE@Base 3.4.3
 _Z8mx_el_ltRK12FloatNDArrayRKf@Base 3.4.3
 _Z8mx_el_ltRK12FloatNDArrayS1_@Base 3.4.3
 _Z8mx_el_ltRK12SparseMatrixRK13ComplexMatrix@Base 3.4.3
 _Z8mx_el_ltRK12SparseMatrixRK19SparseComplexMatrix@Base 3.4.3
 _Z8mx_el_ltRK12SparseMatrixRK6Matrix@Base 3.4.3
 _Z8mx_el_ltRK12SparseMatrixRKSt7complexIdE@Base 3.4.3
 _Z8mx_el_ltRK12SparseMatrixRKd@Base 3.4.3
 _Z8mx_el_ltRK12SparseMatrixS1_@Base 3.4.3
 _Z8mx_el_ltRK13ComplexMatrixRK12SparseMatrix@Base 3.4.3
 _Z8mx_el_ltRK13ComplexMatrixRK19SparseComplexMatrix@Base 3.4.3
 _Z8mx_el_ltRK13ComplexMatrixRK6Matrix@Base 3.4.3
 _Z8mx_el_ltRK13ComplexMatrixRKSt7complexIdE@Base 3.4.3
 _Z8mx_el_ltRK13ComplexMatrixRKd@Base 3.4.3
 _Z8mx_el_ltRK13ComplexMatrixS1_@Base 3.4.3
 _Z8mx_el_ltRK14ComplexNDArrayRK7NDArray@Base 3.4.3
 _Z8mx_el_ltRK14ComplexNDArrayRKSt7complexIdE@Base 3.4.3
 _Z8mx_el_ltRK14ComplexNDArrayRKd@Base 3.4.3
 _Z8mx_el_ltRK14ComplexNDArrayS1_@Base 3.4.3
 _Z8mx_el_ltRK18FloatComplexMatrixRK11FloatMatrix@Base 3.4.3
 _Z8mx_el_ltRK18FloatComplexMatrixRKSt7complexIfE@Base 3.4.3
 _Z8mx_el_ltRK18FloatComplexMatrixRKf@Base 3.4.3
 _Z8mx_el_ltRK18FloatComplexMatrixS1_@Base 3.4.3
 _Z8mx_el_ltRK19FloatComplexNDArrayRK12FloatNDArray@Base 3.4.3
 _Z8mx_el_ltRK19FloatComplexNDArrayRKSt7complexIfE@Base 3.4.3
 _Z8mx_el_ltRK19FloatComplexNDArrayRKf@Base 3.4.3
 _Z8mx_el_ltRK19FloatComplexNDArrayS1_@Base 3.4.3
 _Z8mx_el_ltRK19SparseComplexMatrixRK12SparseMatrix@Base 3.4.3
 _Z8mx_el_ltRK19SparseComplexMatrixRK13ComplexMatrix@Base 3.4.3
 _Z8mx_el_ltRK19SparseComplexMatrixRK6Matrix@Base 3.4.3
 _Z8mx_el_ltRK19SparseComplexMatrixRKSt7complexIdE@Base 3.4.3
 _Z8mx_el_ltRK19SparseComplexMatrixRKd@Base 3.4.3
 _Z8mx_el_ltRK19SparseComplexMatrixS1_@Base 3.4.3
 _Z8mx_el_ltRK6MatrixRK12SparseMatrix@Base 3.4.3
 _Z8mx_el_ltRK6MatrixRK13ComplexMatrix@Base 3.4.3
 _Z8mx_el_ltRK6MatrixRK19SparseComplexMatrix@Base 3.4.3
 _Z8mx_el_ltRK6MatrixRKSt7complexIdE@Base 3.4.3
 _Z8mx_el_ltRK6MatrixRKd@Base 3.4.3
 _Z8mx_el_ltRK6MatrixS1_@Base 3.4.3
 _Z8mx_el_ltRK7NDArrayRK10intNDArrayI10octave_intIaEE@Base 3.4.3
 _Z8mx_el_ltRK7NDArrayRK10intNDArrayI10octave_intIhEE@Base 3.4.3
 _Z8mx_el_ltRK7NDArrayRK10intNDArrayI10octave_intIiEE@Base 3.4.3
 _Z8mx_el_ltRK7NDArrayRK10intNDArrayI10octave_intIjEE@Base 3.4.3
 _Z8mx_el_ltRK7NDArrayRK10intNDArrayI10octave_intIsEE@Base 3.4.3
 _Z8mx_el_ltRK7NDArrayRK10intNDArrayI10octave_intItEE@Base 3.4.3
 _Z8mx_el_ltRK7NDArrayRK10octave_intIaE@Base 3.4.3
 _Z8mx_el_ltRK7NDArrayRK10octave_intIhE@Base 3.4.3
 _Z8mx_el_ltRK7NDArrayRK10octave_intIiE@Base 3.4.3
 _Z8mx_el_ltRK7NDArrayRK10octave_intIjE@Base 3.4.3
 _Z8mx_el_ltRK7NDArrayRK10octave_intIsE@Base 3.4.3
 _Z8mx_el_ltRK7NDArrayRK10octave_intItE@Base 3.4.3
 _Z8mx_el_ltRK7NDArrayRK14ComplexNDArray@Base 3.4.3
 _Z8mx_el_ltRK7NDArrayRKSt7complexIdE@Base 3.4.3
 _Z8mx_el_ltRK7NDArrayRKd@Base 3.4.3
 _Z8mx_el_ltRK7NDArrayS1_@Base 3.4.3
 _Z8mx_el_ltRKSt7complexIdERK12SparseMatrix@Base 3.4.3
 _Z8mx_el_ltRKSt7complexIdERK13ComplexMatrix@Base 3.4.3
 _Z8mx_el_ltRKSt7complexIdERK14ComplexNDArray@Base 3.4.3
 _Z8mx_el_ltRKSt7complexIdERK19SparseComplexMatrix@Base 3.4.3
 _Z8mx_el_ltRKSt7complexIdERK6Matrix@Base 3.4.3
 _Z8mx_el_ltRKSt7complexIdERK7NDArray@Base 3.4.3
 _Z8mx_el_ltRKSt7complexIfERK11FloatMatrix@Base 3.4.3
 _Z8mx_el_ltRKSt7complexIfERK12FloatNDArray@Base 3.4.3
 _Z8mx_el_ltRKSt7complexIfERK18FloatComplexMatrix@Base 3.4.3
 _Z8mx_el_ltRKSt7complexIfERK19FloatComplexNDArray@Base 3.4.3
 _Z8mx_el_ltRKbRK11boolNDArray@Base 3.4.3
 _Z8mx_el_ltRKcRK10charMatrix@Base 3.4.3
 _Z8mx_el_ltRKcRK11charNDArray@Base 3.4.3
 _Z8mx_el_ltRKdRK10intNDArrayI10octave_intIaEE@Base 3.4.3
 _Z8mx_el_ltRKdRK10intNDArrayI10octave_intIhEE@Base 3.4.3
 _Z8mx_el_ltRKdRK10intNDArrayI10octave_intIiEE@Base 3.4.3
 _Z8mx_el_ltRKdRK10intNDArrayI10octave_intIjEE@Base 3.4.3
 _Z8mx_el_ltRKdRK10intNDArrayI10octave_intIsEE@Base 3.4.3
 _Z8mx_el_ltRKdRK10intNDArrayI10octave_intItEE@Base 3.4.3
 _Z8mx_el_ltRKdRK12SparseMatrix@Base 3.4.3
 _Z8mx_el_ltRKdRK13ComplexMatrix@Base 3.4.3
 _Z8mx_el_ltRKdRK14ComplexNDArray@Base 3.4.3
 _Z8mx_el_ltRKdRK19SparseComplexMatrix@Base 3.4.3
 _Z8mx_el_ltRKdRK6Matrix@Base 3.4.3
 _Z8mx_el_ltRKdRK7NDArray@Base 3.4.3
 _Z8mx_el_ltRKfRK10intNDArrayI10octave_intIaEE@Base 3.4.3
 _Z8mx_el_ltRKfRK10intNDArrayI10octave_intIhEE@Base 3.4.3
 _Z8mx_el_ltRKfRK10intNDArrayI10octave_intIiEE@Base 3.4.3
 _Z8mx_el_ltRKfRK10intNDArrayI10octave_intIjEE@Base 3.4.3
 _Z8mx_el_ltRKfRK10intNDArrayI10octave_intIsEE@Base 3.4.3
 _Z8mx_el_ltRKfRK10intNDArrayI10octave_intItEE@Base 3.4.3
 _Z8mx_el_ltRKfRK11FloatMatrix@Base 3.4.3
 _Z8mx_el_ltRKfRK12FloatNDArray@Base 3.4.3
 _Z8mx_el_ltRKfRK18FloatComplexMatrix@Base 3.4.3
 _Z8mx_el_ltRKfRK19FloatComplexNDArray@Base 3.4.3
 _Z8mx_el_neRK10boolMatrixRK16SparseBoolMatrix@Base 3.4.3
 _Z8mx_el_neRK10boolMatrixS1_@Base 3.4.3
 _Z8mx_el_neRK10charMatrixRKc@Base 3.4.3
 _Z8mx_el_neRK10charMatrixS1_@Base 3.4.3
 _Z8mx_el_neRK10intNDArrayI10octave_intIaEERK12FloatNDArray@Base 3.4.3
 _Z8mx_el_neRK10intNDArrayI10octave_intIaEERK7NDArray@Base 3.4.3
 _Z8mx_el_neRK10intNDArrayI10octave_intIaEERKS0_IhE@Base 3.4.3
 _Z8mx_el_neRK10intNDArrayI10octave_intIaEERKS0_IiE@Base 3.4.3
 _Z8mx_el_neRK10intNDArrayI10octave_intIaEERKS0_IjE@Base 3.4.3
 _Z8mx_el_neRK10intNDArrayI10octave_intIaEERKS0_IsE@Base 3.4.3
 _Z8mx_el_neRK10intNDArrayI10octave_intIaEERKS0_ItE@Base 3.4.3
 _Z8mx_el_neRK10intNDArrayI10octave_intIaEERKS1_@Base 3.4.3
 _Z8mx_el_neRK10intNDArrayI10octave_intIaEERKS_IS0_IhEE@Base 3.4.3
 _Z8mx_el_neRK10intNDArrayI10octave_intIaEERKS_IS0_IiEE@Base 3.4.3
 _Z8mx_el_neRK10intNDArrayI10octave_intIaEERKS_IS0_IjEE@Base 3.4.3
 _Z8mx_el_neRK10intNDArrayI10octave_intIaEERKS_IS0_IsEE@Base 3.4.3
 _Z8mx_el_neRK10intNDArrayI10octave_intIaEERKS_IS0_ItEE@Base 3.4.3
 _Z8mx_el_neRK10intNDArrayI10octave_intIaEERKd@Base 3.4.3
 _Z8mx_el_neRK10intNDArrayI10octave_intIaEERKf@Base 3.4.3
 _Z8mx_el_neRK10intNDArrayI10octave_intIaEES4_@Base 3.4.3
 _Z8mx_el_neRK10intNDArrayI10octave_intIhEERK12FloatNDArray@Base 3.4.3
 _Z8mx_el_neRK10intNDArrayI10octave_intIhEERK7NDArray@Base 3.4.3
 _Z8mx_el_neRK10intNDArrayI10octave_intIhEERKS0_IaE@Base 3.4.3
 _Z8mx_el_neRK10intNDArrayI10octave_intIhEERKS0_IiE@Base 3.4.3
 _Z8mx_el_neRK10intNDArrayI10octave_intIhEERKS0_IjE@Base 3.4.3
 _Z8mx_el_neRK10intNDArrayI10octave_intIhEERKS0_IsE@Base 3.4.3
 _Z8mx_el_neRK10intNDArrayI10octave_intIhEERKS0_ItE@Base 3.4.3
 _Z8mx_el_neRK10intNDArrayI10octave_intIhEERKS1_@Base 3.4.3
 _Z8mx_el_neRK10intNDArrayI10octave_intIhEERKS_IS0_IaEE@Base 3.4.3
 _Z8mx_el_neRK10intNDArrayI10octave_intIhEERKS_IS0_IiEE@Base 3.4.3
 _Z8mx_el_neRK10intNDArrayI10octave_intIhEERKS_IS0_IjEE@Base 3.4.3
 _Z8mx_el_neRK10intNDArrayI10octave_intIhEERKS_IS0_IsEE@Base 3.4.3
 _Z8mx_el_neRK10intNDArrayI10octave_intIhEERKS_IS0_ItEE@Base 3.4.3
 _Z8mx_el_neRK10intNDArrayI10octave_intIhEERKd@Base 3.4.3
 _Z8mx_el_neRK10intNDArrayI10octave_intIhEERKf@Base 3.4.3
 _Z8mx_el_neRK10intNDArrayI10octave_intIhEES4_@Base 3.4.3
 _Z8mx_el_neRK10intNDArrayI10octave_intIiEERK12FloatNDArray@Base 3.4.3
 _Z8mx_el_neRK10intNDArrayI10octave_intIiEERK7NDArray@Base 3.4.3
 _Z8mx_el_neRK10intNDArrayI10octave_intIiEERKS0_IaE@Base 3.4.3
 _Z8mx_el_neRK10intNDArrayI10octave_intIiEERKS0_IhE@Base 3.4.3
 _Z8mx_el_neRK10intNDArrayI10octave_intIiEERKS0_IjE@Base 3.4.3
 _Z8mx_el_neRK10intNDArrayI10octave_intIiEERKS0_IsE@Base 3.4.3
 _Z8mx_el_neRK10intNDArrayI10octave_intIiEERKS0_ItE@Base 3.4.3
 _Z8mx_el_neRK10intNDArrayI10octave_intIiEERKS1_@Base 3.4.3
 _Z8mx_el_neRK10intNDArrayI10octave_intIiEERKS_IS0_IaEE@Base 3.4.3
 _Z8mx_el_neRK10intNDArrayI10octave_intIiEERKS_IS0_IhEE@Base 3.4.3
 _Z8mx_el_neRK10intNDArrayI10octave_intIiEERKS_IS0_IjEE@Base 3.4.3
 _Z8mx_el_neRK10intNDArrayI10octave_intIiEERKS_IS0_IsEE@Base 3.4.3
 _Z8mx_el_neRK10intNDArrayI10octave_intIiEERKS_IS0_ItEE@Base 3.4.3
 _Z8mx_el_neRK10intNDArrayI10octave_intIiEERKd@Base 3.4.3
 _Z8mx_el_neRK10intNDArrayI10octave_intIiEERKf@Base 3.4.3
 _Z8mx_el_neRK10intNDArrayI10octave_intIiEES4_@Base 3.4.3
 _Z8mx_el_neRK10intNDArrayI10octave_intIjEERK12FloatNDArray@Base 3.4.3
 _Z8mx_el_neRK10intNDArrayI10octave_intIjEERK7NDArray@Base 3.4.3
 _Z8mx_el_neRK10intNDArrayI10octave_intIjEERKS0_IaE@Base 3.4.3
 _Z8mx_el_neRK10intNDArrayI10octave_intIjEERKS0_IhE@Base 3.4.3
 _Z8mx_el_neRK10intNDArrayI10octave_intIjEERKS0_IiE@Base 3.4.3
 _Z8mx_el_neRK10intNDArrayI10octave_intIjEERKS0_IsE@Base 3.4.3
 _Z8mx_el_neRK10intNDArrayI10octave_intIjEERKS0_ItE@Base 3.4.3
 _Z8mx_el_neRK10intNDArrayI10octave_intIjEERKS1_@Base 3.4.3
 _Z8mx_el_neRK10intNDArrayI10octave_intIjEERKS_IS0_IaEE@Base 3.4.3
 _Z8mx_el_neRK10intNDArrayI10octave_intIjEERKS_IS0_IhEE@Base 3.4.3
 _Z8mx_el_neRK10intNDArrayI10octave_intIjEERKS_IS0_IiEE@Base 3.4.3
 _Z8mx_el_neRK10intNDArrayI10octave_intIjEERKS_IS0_IsEE@Base 3.4.3
 _Z8mx_el_neRK10intNDArrayI10octave_intIjEERKS_IS0_ItEE@Base 3.4.3
 _Z8mx_el_neRK10intNDArrayI10octave_intIjEERKd@Base 3.4.3
 _Z8mx_el_neRK10intNDArrayI10octave_intIjEERKf@Base 3.4.3
 _Z8mx_el_neRK10intNDArrayI10octave_intIjEES4_@Base 3.4.3
 _Z8mx_el_neRK10intNDArrayI10octave_intIsEERK12FloatNDArray@Base 3.4.3
 _Z8mx_el_neRK10intNDArrayI10octave_intIsEERK7NDArray@Base 3.4.3
 _Z8mx_el_neRK10intNDArrayI10octave_intIsEERKS0_IaE@Base 3.4.3
 _Z8mx_el_neRK10intNDArrayI10octave_intIsEERKS0_IhE@Base 3.4.3
 _Z8mx_el_neRK10intNDArrayI10octave_intIsEERKS0_IiE@Base 3.4.3
 _Z8mx_el_neRK10intNDArrayI10octave_intIsEERKS0_IjE@Base 3.4.3
 _Z8mx_el_neRK10intNDArrayI10octave_intIsEERKS0_ItE@Base 3.4.3
 _Z8mx_el_neRK10intNDArrayI10octave_intIsEERKS1_@Base 3.4.3
 _Z8mx_el_neRK10intNDArrayI10octave_intIsEERKS_IS0_IaEE@Base 3.4.3
 _Z8mx_el_neRK10intNDArrayI10octave_intIsEERKS_IS0_IhEE@Base 3.4.3
 _Z8mx_el_neRK10intNDArrayI10octave_intIsEERKS_IS0_IiEE@Base 3.4.3
 _Z8mx_el_neRK10intNDArrayI10octave_intIsEERKS_IS0_IjEE@Base 3.4.3
 _Z8mx_el_neRK10intNDArrayI10octave_intIsEERKS_IS0_ItEE@Base 3.4.3
 _Z8mx_el_neRK10intNDArrayI10octave_intIsEERKd@Base 3.4.3
 _Z8mx_el_neRK10intNDArrayI10octave_intIsEERKf@Base 3.4.3
 _Z8mx_el_neRK10intNDArrayI10octave_intIsEES4_@Base 3.4.3
 _Z8mx_el_neRK10intNDArrayI10octave_intItEERK12FloatNDArray@Base 3.4.3
 _Z8mx_el_neRK10intNDArrayI10octave_intItEERK7NDArray@Base 3.4.3
 _Z8mx_el_neRK10intNDArrayI10octave_intItEERKS0_IaE@Base 3.4.3
 _Z8mx_el_neRK10intNDArrayI10octave_intItEERKS0_IhE@Base 3.4.3
 _Z8mx_el_neRK10intNDArrayI10octave_intItEERKS0_IiE@Base 3.4.3
 _Z8mx_el_neRK10intNDArrayI10octave_intItEERKS0_IjE@Base 3.4.3
 _Z8mx_el_neRK10intNDArrayI10octave_intItEERKS0_IsE@Base 3.4.3
 _Z8mx_el_neRK10intNDArrayI10octave_intItEERKS1_@Base 3.4.3
 _Z8mx_el_neRK10intNDArrayI10octave_intItEERKS_IS0_IaEE@Base 3.4.3
 _Z8mx_el_neRK10intNDArrayI10octave_intItEERKS_IS0_IhEE@Base 3.4.3
 _Z8mx_el_neRK10intNDArrayI10octave_intItEERKS_IS0_IiEE@Base 3.4.3
 _Z8mx_el_neRK10intNDArrayI10octave_intItEERKS_IS0_IjEE@Base 3.4.3
 _Z8mx_el_neRK10intNDArrayI10octave_intItEERKS_IS0_IsEE@Base 3.4.3
 _Z8mx_el_neRK10intNDArrayI10octave_intItEERKd@Base 3.4.3
 _Z8mx_el_neRK10intNDArrayI10octave_intItEERKf@Base 3.4.3
 _Z8mx_el_neRK10intNDArrayI10octave_intItEES4_@Base 3.4.3
 _Z8mx_el_neRK10octave_intIaERK10intNDArrayIS0_E@Base 3.4.3
 _Z8mx_el_neRK10octave_intIaERK10intNDArrayIS_IhEE@Base 3.4.3
 _Z8mx_el_neRK10octave_intIaERK10intNDArrayIS_IiEE@Base 3.4.3
 _Z8mx_el_neRK10octave_intIaERK10intNDArrayIS_IjEE@Base 3.4.3
 _Z8mx_el_neRK10octave_intIaERK10intNDArrayIS_IsEE@Base 3.4.3
 _Z8mx_el_neRK10octave_intIaERK10intNDArrayIS_ItEE@Base 3.4.3
 _Z8mx_el_neRK10octave_intIaERK12FloatNDArray@Base 3.4.3
 _Z8mx_el_neRK10octave_intIaERK7NDArray@Base 3.4.3
 _Z8mx_el_neRK10octave_intIhERK10intNDArrayIS0_E@Base 3.4.3
 _Z8mx_el_neRK10octave_intIhERK10intNDArrayIS_IaEE@Base 3.4.3
 _Z8mx_el_neRK10octave_intIhERK10intNDArrayIS_IiEE@Base 3.4.3
 _Z8mx_el_neRK10octave_intIhERK10intNDArrayIS_IjEE@Base 3.4.3
 _Z8mx_el_neRK10octave_intIhERK10intNDArrayIS_IsEE@Base 3.4.3
 _Z8mx_el_neRK10octave_intIhERK10intNDArrayIS_ItEE@Base 3.4.3
 _Z8mx_el_neRK10octave_intIhERK12FloatNDArray@Base 3.4.3
 _Z8mx_el_neRK10octave_intIhERK7NDArray@Base 3.4.3
 _Z8mx_el_neRK10octave_intIiERK10intNDArrayIS0_E@Base 3.4.3
 _Z8mx_el_neRK10octave_intIiERK10intNDArrayIS_IaEE@Base 3.4.3
 _Z8mx_el_neRK10octave_intIiERK10intNDArrayIS_IhEE@Base 3.4.3
 _Z8mx_el_neRK10octave_intIiERK10intNDArrayIS_IjEE@Base 3.4.3
 _Z8mx_el_neRK10octave_intIiERK10intNDArrayIS_IsEE@Base 3.4.3
 _Z8mx_el_neRK10octave_intIiERK10intNDArrayIS_ItEE@Base 3.4.3
 _Z8mx_el_neRK10octave_intIiERK12FloatNDArray@Base 3.4.3
 _Z8mx_el_neRK10octave_intIiERK7NDArray@Base 3.4.3
 _Z8mx_el_neRK10octave_intIjERK10intNDArrayIS0_E@Base 3.4.3
 _Z8mx_el_neRK10octave_intIjERK10intNDArrayIS_IaEE@Base 3.4.3
 _Z8mx_el_neRK10octave_intIjERK10intNDArrayIS_IhEE@Base 3.4.3
 _Z8mx_el_neRK10octave_intIjERK10intNDArrayIS_IiEE@Base 3.4.3
 _Z8mx_el_neRK10octave_intIjERK10intNDArrayIS_IsEE@Base 3.4.3
 _Z8mx_el_neRK10octave_intIjERK10intNDArrayIS_ItEE@Base 3.4.3
 _Z8mx_el_neRK10octave_intIjERK12FloatNDArray@Base 3.4.3
 _Z8mx_el_neRK10octave_intIjERK7NDArray@Base 3.4.3
 _Z8mx_el_neRK10octave_intIsERK10intNDArrayIS0_E@Base 3.4.3
 _Z8mx_el_neRK10octave_intIsERK10intNDArrayIS_IaEE@Base 3.4.3
 _Z8mx_el_neRK10octave_intIsERK10intNDArrayIS_IhEE@Base 3.4.3
 _Z8mx_el_neRK10octave_intIsERK10intNDArrayIS_IiEE@Base 3.4.3
 _Z8mx_el_neRK10octave_intIsERK10intNDArrayIS_IjEE@Base 3.4.3
 _Z8mx_el_neRK10octave_intIsERK10intNDArrayIS_ItEE@Base 3.4.3
 _Z8mx_el_neRK10octave_intIsERK12FloatNDArray@Base 3.4.3
 _Z8mx_el_neRK10octave_intIsERK7NDArray@Base 3.4.3
 _Z8mx_el_neRK10octave_intItERK10intNDArrayIS0_E@Base 3.4.3
 _Z8mx_el_neRK10octave_intItERK10intNDArrayIS_IaEE@Base 3.4.3
 _Z8mx_el_neRK10octave_intItERK10intNDArrayIS_IhEE@Base 3.4.3
 _Z8mx_el_neRK10octave_intItERK10intNDArrayIS_IiEE@Base 3.4.3
 _Z8mx_el_neRK10octave_intItERK10intNDArrayIS_IjEE@Base 3.4.3
 _Z8mx_el_neRK10octave_intItERK10intNDArrayIS_IsEE@Base 3.4.3
 _Z8mx_el_neRK10octave_intItERK12FloatNDArray@Base 3.4.3
 _Z8mx_el_neRK10octave_intItERK7NDArray@Base 3.4.3
 _Z8mx_el_neRK11FloatMatrixRK18FloatComplexMatrix@Base 3.4.3
 _Z8mx_el_neRK11FloatMatrixRKSt7complexIfE@Base 3.4.3
 _Z8mx_el_neRK11FloatMatrixRKf@Base 3.4.3
 _Z8mx_el_neRK11FloatMatrixS1_@Base 3.4.3
 _Z8mx_el_neRK11boolNDArrayRKb@Base 3.4.3
 _Z8mx_el_neRK11boolNDArrayS1_@Base 3.4.3
 _Z8mx_el_neRK11charNDArrayRKc@Base 3.4.3
 _Z8mx_el_neRK11charNDArrayS1_@Base 3.4.3
 _Z8mx_el_neRK12FloatNDArrayRK10intNDArrayI10octave_intIaEE@Base 3.4.3
 _Z8mx_el_neRK12FloatNDArrayRK10intNDArrayI10octave_intIhEE@Base 3.4.3
 _Z8mx_el_neRK12FloatNDArrayRK10intNDArrayI10octave_intIiEE@Base 3.4.3
 _Z8mx_el_neRK12FloatNDArrayRK10intNDArrayI10octave_intIjEE@Base 3.4.3
 _Z8mx_el_neRK12FloatNDArrayRK10intNDArrayI10octave_intIsEE@Base 3.4.3
 _Z8mx_el_neRK12FloatNDArrayRK10intNDArrayI10octave_intItEE@Base 3.4.3
 _Z8mx_el_neRK12FloatNDArrayRK10octave_intIaE@Base 3.4.3
 _Z8mx_el_neRK12FloatNDArrayRK10octave_intIhE@Base 3.4.3
 _Z8mx_el_neRK12FloatNDArrayRK10octave_intIiE@Base 3.4.3
 _Z8mx_el_neRK12FloatNDArrayRK10octave_intIjE@Base 3.4.3
 _Z8mx_el_neRK12FloatNDArrayRK10octave_intIsE@Base 3.4.3
 _Z8mx_el_neRK12FloatNDArrayRK10octave_intItE@Base 3.4.3
 _Z8mx_el_neRK12FloatNDArrayRK19FloatComplexNDArray@Base 3.4.3
 _Z8mx_el_neRK12FloatNDArrayRKSt7complexIfE@Base 3.4.3
 _Z8mx_el_neRK12FloatNDArrayRKf@Base 3.4.3
 _Z8mx_el_neRK12FloatNDArrayS1_@Base 3.4.3
 _Z8mx_el_neRK12SparseMatrixRK13ComplexMatrix@Base 3.4.3
 _Z8mx_el_neRK12SparseMatrixRK19SparseComplexMatrix@Base 3.4.3
 _Z8mx_el_neRK12SparseMatrixRK6Matrix@Base 3.4.3
 _Z8mx_el_neRK12SparseMatrixRKSt7complexIdE@Base 3.4.3
 _Z8mx_el_neRK12SparseMatrixRKd@Base 3.4.3
 _Z8mx_el_neRK12SparseMatrixS1_@Base 3.4.3
 _Z8mx_el_neRK13ComplexMatrixRK12SparseMatrix@Base 3.4.3
 _Z8mx_el_neRK13ComplexMatrixRK19SparseComplexMatrix@Base 3.4.3
 _Z8mx_el_neRK13ComplexMatrixRK6Matrix@Base 3.4.3
 _Z8mx_el_neRK13ComplexMatrixRKSt7complexIdE@Base 3.4.3
 _Z8mx_el_neRK13ComplexMatrixRKd@Base 3.4.3
 _Z8mx_el_neRK13ComplexMatrixS1_@Base 3.4.3
 _Z8mx_el_neRK14ComplexNDArrayRK7NDArray@Base 3.4.3
 _Z8mx_el_neRK14ComplexNDArrayRKSt7complexIdE@Base 3.4.3
 _Z8mx_el_neRK14ComplexNDArrayRKd@Base 3.4.3
 _Z8mx_el_neRK14ComplexNDArrayS1_@Base 3.4.3
 _Z8mx_el_neRK16SparseBoolMatrixRK10boolMatrix@Base 3.4.3
 _Z8mx_el_neRK16SparseBoolMatrixRKb@Base 3.4.3
 _Z8mx_el_neRK16SparseBoolMatrixS1_@Base 3.4.3
 _Z8mx_el_neRK18FloatComplexMatrixRK11FloatMatrix@Base 3.4.3
 _Z8mx_el_neRK18FloatComplexMatrixRKSt7complexIfE@Base 3.4.3
 _Z8mx_el_neRK18FloatComplexMatrixRKf@Base 3.4.3
 _Z8mx_el_neRK18FloatComplexMatrixS1_@Base 3.4.3
 _Z8mx_el_neRK19FloatComplexNDArrayRK12FloatNDArray@Base 3.4.3
 _Z8mx_el_neRK19FloatComplexNDArrayRKSt7complexIfE@Base 3.4.3
 _Z8mx_el_neRK19FloatComplexNDArrayRKf@Base 3.4.3
 _Z8mx_el_neRK19FloatComplexNDArrayS1_@Base 3.4.3
 _Z8mx_el_neRK19SparseComplexMatrixRK12SparseMatrix@Base 3.4.3
 _Z8mx_el_neRK19SparseComplexMatrixRK13ComplexMatrix@Base 3.4.3
 _Z8mx_el_neRK19SparseComplexMatrixRK6Matrix@Base 3.4.3
 _Z8mx_el_neRK19SparseComplexMatrixRKSt7complexIdE@Base 3.4.3
 _Z8mx_el_neRK19SparseComplexMatrixRKd@Base 3.4.3
 _Z8mx_el_neRK19SparseComplexMatrixS1_@Base 3.4.3
 _Z8mx_el_neRK6MatrixRK12SparseMatrix@Base 3.4.3
 _Z8mx_el_neRK6MatrixRK13ComplexMatrix@Base 3.4.3
 _Z8mx_el_neRK6MatrixRK19SparseComplexMatrix@Base 3.4.3
 _Z8mx_el_neRK6MatrixRKSt7complexIdE@Base 3.4.3
 _Z8mx_el_neRK6MatrixRKd@Base 3.4.3
 _Z8mx_el_neRK6MatrixS1_@Base 3.4.3
 _Z8mx_el_neRK7NDArrayRK10intNDArrayI10octave_intIaEE@Base 3.4.3
 _Z8mx_el_neRK7NDArrayRK10intNDArrayI10octave_intIhEE@Base 3.4.3
 _Z8mx_el_neRK7NDArrayRK10intNDArrayI10octave_intIiEE@Base 3.4.3
 _Z8mx_el_neRK7NDArrayRK10intNDArrayI10octave_intIjEE@Base 3.4.3
 _Z8mx_el_neRK7NDArrayRK10intNDArrayI10octave_intIsEE@Base 3.4.3
 _Z8mx_el_neRK7NDArrayRK10intNDArrayI10octave_intItEE@Base 3.4.3
 _Z8mx_el_neRK7NDArrayRK10octave_intIaE@Base 3.4.3
 _Z8mx_el_neRK7NDArrayRK10octave_intIhE@Base 3.4.3
 _Z8mx_el_neRK7NDArrayRK10octave_intIiE@Base 3.4.3
 _Z8mx_el_neRK7NDArrayRK10octave_intIjE@Base 3.4.3
 _Z8mx_el_neRK7NDArrayRK10octave_intIsE@Base 3.4.3
 _Z8mx_el_neRK7NDArrayRK10octave_intItE@Base 3.4.3
 _Z8mx_el_neRK7NDArrayRK14ComplexNDArray@Base 3.4.3
 _Z8mx_el_neRK7NDArrayRKSt7complexIdE@Base 3.4.3
 _Z8mx_el_neRK7NDArrayRKd@Base 3.4.3
 _Z8mx_el_neRK7NDArrayS1_@Base 3.4.3
 _Z8mx_el_neRKSt7complexIdERK12SparseMatrix@Base 3.4.3
 _Z8mx_el_neRKSt7complexIdERK13ComplexMatrix@Base 3.4.3
 _Z8mx_el_neRKSt7complexIdERK14ComplexNDArray@Base 3.4.3
 _Z8mx_el_neRKSt7complexIdERK19SparseComplexMatrix@Base 3.4.3
 _Z8mx_el_neRKSt7complexIdERK6Matrix@Base 3.4.3
 _Z8mx_el_neRKSt7complexIdERK7NDArray@Base 3.4.3
 _Z8mx_el_neRKSt7complexIfERK11FloatMatrix@Base 3.4.3
 _Z8mx_el_neRKSt7complexIfERK12FloatNDArray@Base 3.4.3
 _Z8mx_el_neRKSt7complexIfERK18FloatComplexMatrix@Base 3.4.3
 _Z8mx_el_neRKSt7complexIfERK19FloatComplexNDArray@Base 3.4.3
 _Z8mx_el_neRKbRK11boolNDArray@Base 3.4.3
 _Z8mx_el_neRKbRK16SparseBoolMatrix@Base 3.4.3
 _Z8mx_el_neRKcRK10charMatrix@Base 3.4.3
 _Z8mx_el_neRKcRK11charNDArray@Base 3.4.3
 _Z8mx_el_neRKdRK10intNDArrayI10octave_intIaEE@Base 3.4.3
 _Z8mx_el_neRKdRK10intNDArrayI10octave_intIhEE@Base 3.4.3
 _Z8mx_el_neRKdRK10intNDArrayI10octave_intIiEE@Base 3.4.3
 _Z8mx_el_neRKdRK10intNDArrayI10octave_intIjEE@Base 3.4.3
 _Z8mx_el_neRKdRK10intNDArrayI10octave_intIsEE@Base 3.4.3
 _Z8mx_el_neRKdRK10intNDArrayI10octave_intItEE@Base 3.4.3
 _Z8mx_el_neRKdRK12SparseMatrix@Base 3.4.3
 _Z8mx_el_neRKdRK13ComplexMatrix@Base 3.4.3
 _Z8mx_el_neRKdRK14ComplexNDArray@Base 3.4.3
 _Z8mx_el_neRKdRK19SparseComplexMatrix@Base 3.4.3
 _Z8mx_el_neRKdRK6Matrix@Base 3.4.3
 _Z8mx_el_neRKdRK7NDArray@Base 3.4.3
 _Z8mx_el_neRKfRK10intNDArrayI10octave_intIaEE@Base 3.4.3
 _Z8mx_el_neRKfRK10intNDArrayI10octave_intIhEE@Base 3.4.3
 _Z8mx_el_neRKfRK10intNDArrayI10octave_intIiEE@Base 3.4.3
 _Z8mx_el_neRKfRK10intNDArrayI10octave_intIjEE@Base 3.4.3
 _Z8mx_el_neRKfRK10intNDArrayI10octave_intIsEE@Base 3.4.3
 _Z8mx_el_neRKfRK10intNDArrayI10octave_intItEE@Base 3.4.3
 _Z8mx_el_neRKfRK11FloatMatrix@Base 3.4.3
 _Z8mx_el_neRKfRK12FloatNDArray@Base 3.4.3
 _Z8mx_el_neRKfRK18FloatComplexMatrix@Base 3.4.3
 _Z8mx_el_neRKfRK19FloatComplexNDArray@Base 3.4.3
 _Z8mx_el_orRK10boolMatrixRK16SparseBoolMatrix@Base 3.4.3
 _Z8mx_el_orRK10boolMatrixRKb@Base 3.4.3
 _Z8mx_el_orRK10boolMatrixS1_@Base 3.4.3
 _Z8mx_el_orRK10charMatrixRKc@Base 3.4.3
 _Z8mx_el_orRK10charMatrixS1_@Base 3.4.3
 _Z8mx_el_orRK10intNDArrayI10octave_intIaEERK12FloatNDArray@Base 3.4.3
 _Z8mx_el_orRK10intNDArrayI10octave_intIaEERK7NDArray@Base 3.4.3
 _Z8mx_el_orRK10intNDArrayI10octave_intIaEERKS0_IhE@Base 3.4.3
 _Z8mx_el_orRK10intNDArrayI10octave_intIaEERKS0_IiE@Base 3.4.3
 _Z8mx_el_orRK10intNDArrayI10octave_intIaEERKS0_IjE@Base 3.4.3
 _Z8mx_el_orRK10intNDArrayI10octave_intIaEERKS0_IsE@Base 3.4.3
 _Z8mx_el_orRK10intNDArrayI10octave_intIaEERKS0_ItE@Base 3.4.3
 _Z8mx_el_orRK10intNDArrayI10octave_intIaEERKS1_@Base 3.4.3
 _Z8mx_el_orRK10intNDArrayI10octave_intIaEERKS_IS0_IhEE@Base 3.4.3
 _Z8mx_el_orRK10intNDArrayI10octave_intIaEERKS_IS0_IiEE@Base 3.4.3
 _Z8mx_el_orRK10intNDArrayI10octave_intIaEERKS_IS0_IjEE@Base 3.4.3
 _Z8mx_el_orRK10intNDArrayI10octave_intIaEERKS_IS0_IsEE@Base 3.4.3
 _Z8mx_el_orRK10intNDArrayI10octave_intIaEERKS_IS0_ItEE@Base 3.4.3
 _Z8mx_el_orRK10intNDArrayI10octave_intIaEERKd@Base 3.4.3
 _Z8mx_el_orRK10intNDArrayI10octave_intIaEERKf@Base 3.4.3
 _Z8mx_el_orRK10intNDArrayI10octave_intIaEES4_@Base 3.4.3
 _Z8mx_el_orRK10intNDArrayI10octave_intIhEERK12FloatNDArray@Base 3.4.3
 _Z8mx_el_orRK10intNDArrayI10octave_intIhEERK7NDArray@Base 3.4.3
 _Z8mx_el_orRK10intNDArrayI10octave_intIhEERKS0_IaE@Base 3.4.3
 _Z8mx_el_orRK10intNDArrayI10octave_intIhEERKS0_IiE@Base 3.4.3
 _Z8mx_el_orRK10intNDArrayI10octave_intIhEERKS0_IjE@Base 3.4.3
 _Z8mx_el_orRK10intNDArrayI10octave_intIhEERKS0_IsE@Base 3.4.3
 _Z8mx_el_orRK10intNDArrayI10octave_intIhEERKS0_ItE@Base 3.4.3
 _Z8mx_el_orRK10intNDArrayI10octave_intIhEERKS1_@Base 3.4.3
 _Z8mx_el_orRK10intNDArrayI10octave_intIhEERKS_IS0_IaEE@Base 3.4.3
 _Z8mx_el_orRK10intNDArrayI10octave_intIhEERKS_IS0_IiEE@Base 3.4.3
 _Z8mx_el_orRK10intNDArrayI10octave_intIhEERKS_IS0_IjEE@Base 3.4.3
 _Z8mx_el_orRK10intNDArrayI10octave_intIhEERKS_IS0_IsEE@Base 3.4.3
 _Z8mx_el_orRK10intNDArrayI10octave_intIhEERKS_IS0_ItEE@Base 3.4.3
 _Z8mx_el_orRK10intNDArrayI10octave_intIhEERKd@Base 3.4.3
 _Z8mx_el_orRK10intNDArrayI10octave_intIhEERKf@Base 3.4.3
 _Z8mx_el_orRK10intNDArrayI10octave_intIhEES4_@Base 3.4.3
 _Z8mx_el_orRK10intNDArrayI10octave_intIiEERK12FloatNDArray@Base 3.4.3
 _Z8mx_el_orRK10intNDArrayI10octave_intIiEERK7NDArray@Base 3.4.3
 _Z8mx_el_orRK10intNDArrayI10octave_intIiEERKS0_IaE@Base 3.4.3
 _Z8mx_el_orRK10intNDArrayI10octave_intIiEERKS0_IhE@Base 3.4.3
 _Z8mx_el_orRK10intNDArrayI10octave_intIiEERKS0_IjE@Base 3.4.3
 _Z8mx_el_orRK10intNDArrayI10octave_intIiEERKS0_IsE@Base 3.4.3
 _Z8mx_el_orRK10intNDArrayI10octave_intIiEERKS0_ItE@Base 3.4.3
 _Z8mx_el_orRK10intNDArrayI10octave_intIiEERKS1_@Base 3.4.3
 _Z8mx_el_orRK10intNDArrayI10octave_intIiEERKS_IS0_IaEE@Base 3.4.3
 _Z8mx_el_orRK10intNDArrayI10octave_intIiEERKS_IS0_IhEE@Base 3.4.3
 _Z8mx_el_orRK10intNDArrayI10octave_intIiEERKS_IS0_IjEE@Base 3.4.3
 _Z8mx_el_orRK10intNDArrayI10octave_intIiEERKS_IS0_IsEE@Base 3.4.3
 _Z8mx_el_orRK10intNDArrayI10octave_intIiEERKS_IS0_ItEE@Base 3.4.3
 _Z8mx_el_orRK10intNDArrayI10octave_intIiEERKd@Base 3.4.3
 _Z8mx_el_orRK10intNDArrayI10octave_intIiEERKf@Base 3.4.3
 _Z8mx_el_orRK10intNDArrayI10octave_intIiEES4_@Base 3.4.3
 _Z8mx_el_orRK10intNDArrayI10octave_intIjEERK12FloatNDArray@Base 3.4.3
 _Z8mx_el_orRK10intNDArrayI10octave_intIjEERK7NDArray@Base 3.4.3
 _Z8mx_el_orRK10intNDArrayI10octave_intIjEERKS0_IaE@Base 3.4.3
 _Z8mx_el_orRK10intNDArrayI10octave_intIjEERKS0_IhE@Base 3.4.3
 _Z8mx_el_orRK10intNDArrayI10octave_intIjEERKS0_IiE@Base 3.4.3
 _Z8mx_el_orRK10intNDArrayI10octave_intIjEERKS0_IsE@Base 3.4.3
 _Z8mx_el_orRK10intNDArrayI10octave_intIjEERKS0_ItE@Base 3.4.3
 _Z8mx_el_orRK10intNDArrayI10octave_intIjEERKS1_@Base 3.4.3
 _Z8mx_el_orRK10intNDArrayI10octave_intIjEERKS_IS0_IaEE@Base 3.4.3
 _Z8mx_el_orRK10intNDArrayI10octave_intIjEERKS_IS0_IhEE@Base 3.4.3
 _Z8mx_el_orRK10intNDArrayI10octave_intIjEERKS_IS0_IiEE@Base 3.4.3
 _Z8mx_el_orRK10intNDArrayI10octave_intIjEERKS_IS0_IsEE@Base 3.4.3
 _Z8mx_el_orRK10intNDArrayI10octave_intIjEERKS_IS0_ItEE@Base 3.4.3
 _Z8mx_el_orRK10intNDArrayI10octave_intIjEERKd@Base 3.4.3
 _Z8mx_el_orRK10intNDArrayI10octave_intIjEERKf@Base 3.4.3
 _Z8mx_el_orRK10intNDArrayI10octave_intIjEES4_@Base 3.4.3
 _Z8mx_el_orRK10intNDArrayI10octave_intIsEERK12FloatNDArray@Base 3.4.3
 _Z8mx_el_orRK10intNDArrayI10octave_intIsEERK7NDArray@Base 3.4.3
 _Z8mx_el_orRK10intNDArrayI10octave_intIsEERKS0_IaE@Base 3.4.3
 _Z8mx_el_orRK10intNDArrayI10octave_intIsEERKS0_IhE@Base 3.4.3
 _Z8mx_el_orRK10intNDArrayI10octave_intIsEERKS0_IiE@Base 3.4.3
 _Z8mx_el_orRK10intNDArrayI10octave_intIsEERKS0_IjE@Base 3.4.3
 _Z8mx_el_orRK10intNDArrayI10octave_intIsEERKS0_ItE@Base 3.4.3
 _Z8mx_el_orRK10intNDArrayI10octave_intIsEERKS1_@Base 3.4.3
 _Z8mx_el_orRK10intNDArrayI10octave_intIsEERKS_IS0_IaEE@Base 3.4.3
 _Z8mx_el_orRK10intNDArrayI10octave_intIsEERKS_IS0_IhEE@Base 3.4.3
 _Z8mx_el_orRK10intNDArrayI10octave_intIsEERKS_IS0_IiEE@Base 3.4.3
 _Z8mx_el_orRK10intNDArrayI10octave_intIsEERKS_IS0_IjEE@Base 3.4.3
 _Z8mx_el_orRK10intNDArrayI10octave_intIsEERKS_IS0_ItEE@Base 3.4.3
 _Z8mx_el_orRK10intNDArrayI10octave_intIsEERKd@Base 3.4.3
 _Z8mx_el_orRK10intNDArrayI10octave_intIsEERKf@Base 3.4.3
 _Z8mx_el_orRK10intNDArrayI10octave_intIsEES4_@Base 3.4.3
 _Z8mx_el_orRK10intNDArrayI10octave_intItEERK12FloatNDArray@Base 3.4.3
 _Z8mx_el_orRK10intNDArrayI10octave_intItEERK7NDArray@Base 3.4.3
 _Z8mx_el_orRK10intNDArrayI10octave_intItEERKS0_IaE@Base 3.4.3
 _Z8mx_el_orRK10intNDArrayI10octave_intItEERKS0_IhE@Base 3.4.3
 _Z8mx_el_orRK10intNDArrayI10octave_intItEERKS0_IiE@Base 3.4.3
 _Z8mx_el_orRK10intNDArrayI10octave_intItEERKS0_IjE@Base 3.4.3
 _Z8mx_el_orRK10intNDArrayI10octave_intItEERKS0_IsE@Base 3.4.3
 _Z8mx_el_orRK10intNDArrayI10octave_intItEERKS1_@Base 3.4.3
 _Z8mx_el_orRK10intNDArrayI10octave_intItEERKS_IS0_IaEE@Base 3.4.3
 _Z8mx_el_orRK10intNDArrayI10octave_intItEERKS_IS0_IhEE@Base 3.4.3
 _Z8mx_el_orRK10intNDArrayI10octave_intItEERKS_IS0_IiEE@Base 3.4.3
 _Z8mx_el_orRK10intNDArrayI10octave_intItEERKS_IS0_IjEE@Base 3.4.3
 _Z8mx_el_orRK10intNDArrayI10octave_intItEERKS_IS0_IsEE@Base 3.4.3
 _Z8mx_el_orRK10intNDArrayI10octave_intItEERKd@Base 3.4.3
 _Z8mx_el_orRK10intNDArrayI10octave_intItEERKf@Base 3.4.3
 _Z8mx_el_orRK10intNDArrayI10octave_intItEES4_@Base 3.4.3
 _Z8mx_el_orRK10octave_intIaERK10intNDArrayIS0_E@Base 3.4.3
 _Z8mx_el_orRK10octave_intIaERK10intNDArrayIS_IhEE@Base 3.4.3
 _Z8mx_el_orRK10octave_intIaERK10intNDArrayIS_IiEE@Base 3.4.3
 _Z8mx_el_orRK10octave_intIaERK10intNDArrayIS_IjEE@Base 3.4.3
 _Z8mx_el_orRK10octave_intIaERK10intNDArrayIS_IsEE@Base 3.4.3
 _Z8mx_el_orRK10octave_intIaERK10intNDArrayIS_ItEE@Base 3.4.3
 _Z8mx_el_orRK10octave_intIaERK12FloatNDArray@Base 3.4.3
 _Z8mx_el_orRK10octave_intIaERK7NDArray@Base 3.4.3
 _Z8mx_el_orRK10octave_intIhERK10intNDArrayIS0_E@Base 3.4.3
 _Z8mx_el_orRK10octave_intIhERK10intNDArrayIS_IaEE@Base 3.4.3
 _Z8mx_el_orRK10octave_intIhERK10intNDArrayIS_IiEE@Base 3.4.3
 _Z8mx_el_orRK10octave_intIhERK10intNDArrayIS_IjEE@Base 3.4.3
 _Z8mx_el_orRK10octave_intIhERK10intNDArrayIS_IsEE@Base 3.4.3
 _Z8mx_el_orRK10octave_intIhERK10intNDArrayIS_ItEE@Base 3.4.3
 _Z8mx_el_orRK10octave_intIhERK12FloatNDArray@Base 3.4.3
 _Z8mx_el_orRK10octave_intIhERK7NDArray@Base 3.4.3
 _Z8mx_el_orRK10octave_intIiERK10intNDArrayIS0_E@Base 3.4.3
 _Z8mx_el_orRK10octave_intIiERK10intNDArrayIS_IaEE@Base 3.4.3
 _Z8mx_el_orRK10octave_intIiERK10intNDArrayIS_IhEE@Base 3.4.3
 _Z8mx_el_orRK10octave_intIiERK10intNDArrayIS_IjEE@Base 3.4.3
 _Z8mx_el_orRK10octave_intIiERK10intNDArrayIS_IsEE@Base 3.4.3
 _Z8mx_el_orRK10octave_intIiERK10intNDArrayIS_ItEE@Base 3.4.3
 _Z8mx_el_orRK10octave_intIiERK12FloatNDArray@Base 3.4.3
 _Z8mx_el_orRK10octave_intIiERK7NDArray@Base 3.4.3
 _Z8mx_el_orRK10octave_intIjERK10intNDArrayIS0_E@Base 3.4.3
 _Z8mx_el_orRK10octave_intIjERK10intNDArrayIS_IaEE@Base 3.4.3
 _Z8mx_el_orRK10octave_intIjERK10intNDArrayIS_IhEE@Base 3.4.3
 _Z8mx_el_orRK10octave_intIjERK10intNDArrayIS_IiEE@Base 3.4.3
 _Z8mx_el_orRK10octave_intIjERK10intNDArrayIS_IsEE@Base 3.4.3
 _Z8mx_el_orRK10octave_intIjERK10intNDArrayIS_ItEE@Base 3.4.3
 _Z8mx_el_orRK10octave_intIjERK12FloatNDArray@Base 3.4.3
 _Z8mx_el_orRK10octave_intIjERK7NDArray@Base 3.4.3
 _Z8mx_el_orRK10octave_intIsERK10intNDArrayIS0_E@Base 3.4.3
 _Z8mx_el_orRK10octave_intIsERK10intNDArrayIS_IaEE@Base 3.4.3
 _Z8mx_el_orRK10octave_intIsERK10intNDArrayIS_IhEE@Base 3.4.3
 _Z8mx_el_orRK10octave_intIsERK10intNDArrayIS_IiEE@Base 3.4.3
 _Z8mx_el_orRK10octave_intIsERK10intNDArrayIS_IjEE@Base 3.4.3
 _Z8mx_el_orRK10octave_intIsERK10intNDArrayIS_ItEE@Base 3.4.3
 _Z8mx_el_orRK10octave_intIsERK12FloatNDArray@Base 3.4.3
 _Z8mx_el_orRK10octave_intIsERK7NDArray@Base 3.4.3
 _Z8mx_el_orRK10octave_intItERK10intNDArrayIS0_E@Base 3.4.3
 _Z8mx_el_orRK10octave_intItERK10intNDArrayIS_IaEE@Base 3.4.3
 _Z8mx_el_orRK10octave_intItERK10intNDArrayIS_IhEE@Base 3.4.3
 _Z8mx_el_orRK10octave_intItERK10intNDArrayIS_IiEE@Base 3.4.3
 _Z8mx_el_orRK10octave_intItERK10intNDArrayIS_IjEE@Base 3.4.3
 _Z8mx_el_orRK10octave_intItERK10intNDArrayIS_IsEE@Base 3.4.3
 _Z8mx_el_orRK10octave_intItERK12FloatNDArray@Base 3.4.3
 _Z8mx_el_orRK10octave_intItERK7NDArray@Base 3.4.3
 _Z8mx_el_orRK11FloatMatrixRK18FloatComplexMatrix@Base 3.4.3
 _Z8mx_el_orRK11FloatMatrixRKSt7complexIfE@Base 3.4.3
 _Z8mx_el_orRK11FloatMatrixRKf@Base 3.4.3
 _Z8mx_el_orRK11FloatMatrixS1_@Base 3.4.3
 _Z8mx_el_orRK11boolNDArrayRKb@Base 3.4.3
 _Z8mx_el_orRK11boolNDArrayS1_@Base 3.4.3
 _Z8mx_el_orRK11charNDArrayRKc@Base 3.4.3
 _Z8mx_el_orRK11charNDArrayS1_@Base 3.4.3
 _Z8mx_el_orRK12FloatNDArrayRK10intNDArrayI10octave_intIaEE@Base 3.4.3
 _Z8mx_el_orRK12FloatNDArrayRK10intNDArrayI10octave_intIhEE@Base 3.4.3
 _Z8mx_el_orRK12FloatNDArrayRK10intNDArrayI10octave_intIiEE@Base 3.4.3
 _Z8mx_el_orRK12FloatNDArrayRK10intNDArrayI10octave_intIjEE@Base 3.4.3
 _Z8mx_el_orRK12FloatNDArrayRK10intNDArrayI10octave_intIsEE@Base 3.4.3
 _Z8mx_el_orRK12FloatNDArrayRK10intNDArrayI10octave_intItEE@Base 3.4.3
 _Z8mx_el_orRK12FloatNDArrayRK10octave_intIaE@Base 3.4.3
 _Z8mx_el_orRK12FloatNDArrayRK10octave_intIhE@Base 3.4.3
 _Z8mx_el_orRK12FloatNDArrayRK10octave_intIiE@Base 3.4.3
 _Z8mx_el_orRK12FloatNDArrayRK10octave_intIjE@Base 3.4.3
 _Z8mx_el_orRK12FloatNDArrayRK10octave_intIsE@Base 3.4.3
 _Z8mx_el_orRK12FloatNDArrayRK10octave_intItE@Base 3.4.3
 _Z8mx_el_orRK12FloatNDArrayRK19FloatComplexNDArray@Base 3.4.3
 _Z8mx_el_orRK12FloatNDArrayRKSt7complexIfE@Base 3.4.3
 _Z8mx_el_orRK12FloatNDArrayRKf@Base 3.4.3
 _Z8mx_el_orRK12FloatNDArrayS1_@Base 3.4.3
 _Z8mx_el_orRK12SparseMatrixRK13ComplexMatrix@Base 3.4.3
 _Z8mx_el_orRK12SparseMatrixRK19SparseComplexMatrix@Base 3.4.3
 _Z8mx_el_orRK12SparseMatrixRK6Matrix@Base 3.4.3
 _Z8mx_el_orRK12SparseMatrixRKSt7complexIdE@Base 3.4.3
 _Z8mx_el_orRK12SparseMatrixRKd@Base 3.4.3
 _Z8mx_el_orRK12SparseMatrixS1_@Base 3.4.3
 _Z8mx_el_orRK13ComplexMatrixRK12SparseMatrix@Base 3.4.3
 _Z8mx_el_orRK13ComplexMatrixRK19SparseComplexMatrix@Base 3.4.3
 _Z8mx_el_orRK13ComplexMatrixRK6Matrix@Base 3.4.3
 _Z8mx_el_orRK13ComplexMatrixRKSt7complexIdE@Base 3.4.3
 _Z8mx_el_orRK13ComplexMatrixRKd@Base 3.4.3
 _Z8mx_el_orRK13ComplexMatrixS1_@Base 3.4.3
 _Z8mx_el_orRK14ComplexNDArrayRK7NDArray@Base 3.4.3
 _Z8mx_el_orRK14ComplexNDArrayRKSt7complexIdE@Base 3.4.3
 _Z8mx_el_orRK14ComplexNDArrayRKd@Base 3.4.3
 _Z8mx_el_orRK14ComplexNDArrayS1_@Base 3.4.3
 _Z8mx_el_orRK16SparseBoolMatrixRK10boolMatrix@Base 3.4.3
 _Z8mx_el_orRK16SparseBoolMatrixRKb@Base 3.4.3
 _Z8mx_el_orRK16SparseBoolMatrixS1_@Base 3.4.3
 _Z8mx_el_orRK18FloatComplexMatrixRK11FloatMatrix@Base 3.4.3
 _Z8mx_el_orRK18FloatComplexMatrixRKSt7complexIfE@Base 3.4.3
 _Z8mx_el_orRK18FloatComplexMatrixRKf@Base 3.4.3
 _Z8mx_el_orRK18FloatComplexMatrixS1_@Base 3.4.3
 _Z8mx_el_orRK19FloatComplexNDArrayRK12FloatNDArray@Base 3.4.3
 _Z8mx_el_orRK19FloatComplexNDArrayRKSt7complexIfE@Base 3.4.3
 _Z8mx_el_orRK19FloatComplexNDArrayRKf@Base 3.4.3
 _Z8mx_el_orRK19FloatComplexNDArrayS1_@Base 3.4.3
 _Z8mx_el_orRK19SparseComplexMatrixRK12SparseMatrix@Base 3.4.3
 _Z8mx_el_orRK19SparseComplexMatrixRK13ComplexMatrix@Base 3.4.3
 _Z8mx_el_orRK19SparseComplexMatrixRK6Matrix@Base 3.4.3
 _Z8mx_el_orRK19SparseComplexMatrixRKSt7complexIdE@Base 3.4.3
 _Z8mx_el_orRK19SparseComplexMatrixRKd@Base 3.4.3
 _Z8mx_el_orRK19SparseComplexMatrixS1_@Base 3.4.3
 _Z8mx_el_orRK6MatrixRK12SparseMatrix@Base 3.4.3
 _Z8mx_el_orRK6MatrixRK13ComplexMatrix@Base 3.4.3
 _Z8mx_el_orRK6MatrixRK19SparseComplexMatrix@Base 3.4.3
 _Z8mx_el_orRK6MatrixRKSt7complexIdE@Base 3.4.3
 _Z8mx_el_orRK6MatrixRKd@Base 3.4.3
 _Z8mx_el_orRK6MatrixS1_@Base 3.4.3
 _Z8mx_el_orRK7NDArrayRK10intNDArrayI10octave_intIaEE@Base 3.4.3
 _Z8mx_el_orRK7NDArrayRK10intNDArrayI10octave_intIhEE@Base 3.4.3
 _Z8mx_el_orRK7NDArrayRK10intNDArrayI10octave_intIiEE@Base 3.4.3
 _Z8mx_el_orRK7NDArrayRK10intNDArrayI10octave_intIjEE@Base 3.4.3
 _Z8mx_el_orRK7NDArrayRK10intNDArrayI10octave_intIsEE@Base 3.4.3
 _Z8mx_el_orRK7NDArrayRK10intNDArrayI10octave_intItEE@Base 3.4.3
 _Z8mx_el_orRK7NDArrayRK10octave_intIaE@Base 3.4.3
 _Z8mx_el_orRK7NDArrayRK10octave_intIhE@Base 3.4.3
 _Z8mx_el_orRK7NDArrayRK10octave_intIiE@Base 3.4.3
 _Z8mx_el_orRK7NDArrayRK10octave_intIjE@Base 3.4.3
 _Z8mx_el_orRK7NDArrayRK10octave_intIsE@Base 3.4.3
 _Z8mx_el_orRK7NDArrayRK10octave_intItE@Base 3.4.3
 _Z8mx_el_orRK7NDArrayRK14ComplexNDArray@Base 3.4.3
 _Z8mx_el_orRK7NDArrayRKSt7complexIdE@Base 3.4.3
 _Z8mx_el_orRK7NDArrayRKd@Base 3.4.3
 _Z8mx_el_orRK7NDArrayS1_@Base 3.4.3
 _Z8mx_el_orRKSt7complexIdERK12SparseMatrix@Base 3.4.3
 _Z8mx_el_orRKSt7complexIdERK13ComplexMatrix@Base 3.4.3
 _Z8mx_el_orRKSt7complexIdERK14ComplexNDArray@Base 3.4.3
 _Z8mx_el_orRKSt7complexIdERK19SparseComplexMatrix@Base 3.4.3
 _Z8mx_el_orRKSt7complexIdERK6Matrix@Base 3.4.3
 _Z8mx_el_orRKSt7complexIdERK7NDArray@Base 3.4.3
 _Z8mx_el_orRKSt7complexIfERK11FloatMatrix@Base 3.4.3
 _Z8mx_el_orRKSt7complexIfERK12FloatNDArray@Base 3.4.3
 _Z8mx_el_orRKSt7complexIfERK18FloatComplexMatrix@Base 3.4.3
 _Z8mx_el_orRKSt7complexIfERK19FloatComplexNDArray@Base 3.4.3
 _Z8mx_el_orRKbRK10boolMatrix@Base 3.4.3
 _Z8mx_el_orRKbRK11boolNDArray@Base 3.4.3
 _Z8mx_el_orRKbRK16SparseBoolMatrix@Base 3.4.3
 _Z8mx_el_orRKcRK10charMatrix@Base 3.4.3
 _Z8mx_el_orRKcRK11charNDArray@Base 3.4.3
 _Z8mx_el_orRKdRK10intNDArrayI10octave_intIaEE@Base 3.4.3
 _Z8mx_el_orRKdRK10intNDArrayI10octave_intIhEE@Base 3.4.3
 _Z8mx_el_orRKdRK10intNDArrayI10octave_intIiEE@Base 3.4.3
 _Z8mx_el_orRKdRK10intNDArrayI10octave_intIjEE@Base 3.4.3
 _Z8mx_el_orRKdRK10intNDArrayI10octave_intIsEE@Base 3.4.3
 _Z8mx_el_orRKdRK10intNDArrayI10octave_intItEE@Base 3.4.3
 _Z8mx_el_orRKdRK12SparseMatrix@Base 3.4.3
 _Z8mx_el_orRKdRK13ComplexMatrix@Base 3.4.3
 _Z8mx_el_orRKdRK14ComplexNDArray@Base 3.4.3
 _Z8mx_el_orRKdRK19SparseComplexMatrix@Base 3.4.3
 _Z8mx_el_orRKdRK6Matrix@Base 3.4.3
 _Z8mx_el_orRKdRK7NDArray@Base 3.4.3
 _Z8mx_el_orRKfRK10intNDArrayI10octave_intIaEE@Base 3.4.3
 _Z8mx_el_orRKfRK10intNDArrayI10octave_intIhEE@Base 3.4.3
 _Z8mx_el_orRKfRK10intNDArrayI10octave_intIiEE@Base 3.4.3
 _Z8mx_el_orRKfRK10intNDArrayI10octave_intIjEE@Base 3.4.3
 _Z8mx_el_orRKfRK10intNDArrayI10octave_intIsEE@Base 3.4.3
 _Z8mx_el_orRKfRK10intNDArrayI10octave_intItEE@Base 3.4.3
 _Z8mx_el_orRKfRK11FloatMatrix@Base 3.4.3
 _Z8mx_el_orRKfRK12FloatNDArray@Base 3.4.3
 _Z8mx_el_orRKfRK18FloatComplexMatrix@Base 3.4.3
 _Z8mx_el_orRKfRK19FloatComplexNDArray@Base 3.4.3
 _Z8num_onesRK5ArrayIiE@Base 3.4.3
 _Z8quotientI10octave_intIaEE6MArrayIT_ERKS4_S6_@Base 3.4.3
 _Z8quotientI10octave_intIhEE6MArrayIT_ERKS4_S6_@Base 3.4.3
 _Z8quotientI10octave_intIiEE6MArrayIT_ERKS4_S6_@Base 3.4.3
 _Z8quotientI10octave_intIjEE6MArrayIT_ERKS4_S6_@Base 3.4.3
 _Z8quotientI10octave_intIsEE6MArrayIT_ERKS4_S6_@Base 3.4.3
 _Z8quotientI10octave_intItEE6MArrayIT_ERKS4_S6_@Base 3.4.3
 _Z8quotientISt7complexIdEE6MArrayIT_ERKS4_S6_@Base 3.4.3
 _Z8quotientISt7complexIdEE7MSparseIT_ERKS4_S6_@Base 3.4.3
 _Z8quotientISt7complexIfEE6MArrayIT_ERKS4_S6_@Base 3.4.3
 _Z8quotientIdE6MArrayIT_ERKS2_S4_@Base 3.4.3
 _Z8quotientIdE7MSparseIT_ERKS2_S4_@Base 3.4.3
 _Z8quotientIfE6MArrayIT_ERKS2_S4_@Base 3.4.3
 _Z8quotientIiE6MArrayIT_ERKS2_S4_@Base 3.4.3
 _Z8quotientIlE6MArrayIT_ERKS2_S4_@Base 3.4.3
 _Z8quotientIsE6MArrayIT_ERKS2_S4_@Base 3.4.3
 _Z8quotientRK10intNDArrayI10octave_intIaEERK12FloatNDArray@Base 3.4.3
 _Z8quotientRK10intNDArrayI10octave_intIaEERK7NDArray@Base 3.4.3
 _Z8quotientRK10intNDArrayI10octave_intIhEERK12FloatNDArray@Base 3.4.3
 _Z8quotientRK10intNDArrayI10octave_intIhEERK7NDArray@Base 3.4.3
 _Z8quotientRK10intNDArrayI10octave_intIiEERK12FloatNDArray@Base 3.4.3
 _Z8quotientRK10intNDArrayI10octave_intIiEERK7NDArray@Base 3.4.3
 _Z8quotientRK10intNDArrayI10octave_intIjEERK12FloatNDArray@Base 3.4.3
 _Z8quotientRK10intNDArrayI10octave_intIjEERK7NDArray@Base 3.4.3
 _Z8quotientRK10intNDArrayI10octave_intIsEERK12FloatNDArray@Base 3.4.3
 _Z8quotientRK10intNDArrayI10octave_intIsEERK7NDArray@Base 3.4.3
 _Z8quotientRK10intNDArrayI10octave_intItEERK12FloatNDArray@Base 3.4.3
 _Z8quotientRK10intNDArrayI10octave_intItEERK7NDArray@Base 3.4.3
 _Z8quotientRK11FloatMatrixRK18FloatComplexMatrix@Base 3.4.3
 _Z8quotientRK12ColumnVectorRK19ComplexColumnVector@Base 3.4.3
 _Z8quotientRK12FloatNDArrayRK10intNDArrayI10octave_intIaEE@Base 3.4.3
 _Z8quotientRK12FloatNDArrayRK10intNDArrayI10octave_intIhEE@Base 3.4.3
 _Z8quotientRK12FloatNDArrayRK10intNDArrayI10octave_intIiEE@Base 3.4.3
 _Z8quotientRK12FloatNDArrayRK10intNDArrayI10octave_intIjEE@Base 3.4.3
 _Z8quotientRK12FloatNDArrayRK10intNDArrayI10octave_intIsEE@Base 3.4.3
 _Z8quotientRK12FloatNDArrayRK10intNDArrayI10octave_intItEE@Base 3.4.3
 _Z8quotientRK12FloatNDArrayRK19FloatComplexNDArray@Base 3.4.3
 _Z8quotientRK12SparseMatrixRK13ComplexMatrix@Base 3.4.3
 _Z8quotientRK12SparseMatrixRK19SparseComplexMatrix@Base 3.4.3
 _Z8quotientRK12SparseMatrixRK6Matrix@Base 3.4.3
 _Z8quotientRK13ComplexMatrixRK12SparseMatrix@Base 3.4.3
 _Z8quotientRK13ComplexMatrixRK19SparseComplexMatrix@Base 3.4.3
 _Z8quotientRK13ComplexMatrixRK6Matrix@Base 3.4.3
 _Z8quotientRK14ComplexNDArrayRK7NDArray@Base 3.4.3
 _Z8quotientRK14FloatRowVectorRK21FloatComplexRowVector@Base 3.4.3
 _Z8quotientRK16ComplexRowVectorRK9RowVector@Base 3.4.3
 _Z8quotientRK17FloatColumnVectorRK24FloatComplexColumnVector@Base 3.4.3
 _Z8quotientRK18FloatComplexMatrixRK11FloatMatrix@Base 3.4.3
 _Z8quotientRK19ComplexColumnVectorRK12ColumnVector@Base 3.4.3
 _Z8quotientRK19FloatComplexNDArrayRK12FloatNDArray@Base 3.4.3
 _Z8quotientRK19SparseComplexMatrixRK12SparseMatrix@Base 3.4.3
 _Z8quotientRK19SparseComplexMatrixRK13ComplexMatrix@Base 3.4.3
 _Z8quotientRK19SparseComplexMatrixRK6Matrix@Base 3.4.3
 _Z8quotientRK21FloatComplexRowVectorRK14FloatRowVector@Base 3.4.3
 _Z8quotientRK24FloatComplexColumnVectorRK17FloatColumnVector@Base 3.4.3
 _Z8quotientRK6MatrixRK12SparseMatrix@Base 3.4.3
 _Z8quotientRK6MatrixRK13ComplexMatrix@Base 3.4.3
 _Z8quotientRK6MatrixRK19SparseComplexMatrix@Base 3.4.3
 _Z8quotientRK7NDArrayRK10intNDArrayI10octave_intIaEE@Base 3.4.3
 _Z8quotientRK7NDArrayRK10intNDArrayI10octave_intIhEE@Base 3.4.3
 _Z8quotientRK7NDArrayRK10intNDArrayI10octave_intIiEE@Base 3.4.3
 _Z8quotientRK7NDArrayRK10intNDArrayI10octave_intIjEE@Base 3.4.3
 _Z8quotientRK7NDArrayRK10intNDArrayI10octave_intIsEE@Base 3.4.3
 _Z8quotientRK7NDArrayRK10intNDArrayI10octave_intItEE@Base 3.4.3
 _Z8quotientRK7NDArrayRK14ComplexNDArray@Base 3.4.3
 _Z8quotientRK9RowVectorRK16ComplexRowVector@Base 3.4.3
 _Z8rc_acoshd@Base 3.4.3
 _Z8rc_acoshf@Base 3.4.3
 _Z8rc_atanhd@Base 3.4.3
 _Z8rc_atanhf@Base 3.4.3
 _Z8rc_log10d@Base 3.4.3
 _Z8rc_log10f@Base 3.4.3
 _Z8rc_log1pd@Base 3.4.3
 _Z8rc_log1pf@Base 3.4.3
 _Z8xis_zerod@Base 3.4.3
 _Z8xis_zerof@Base 3.4.3
 _Z9SylvesterRK11FloatMatrixS1_S1_@Base 3.4.3
 _Z9SylvesterRK13ComplexMatrixS1_S1_@Base 3.4.3
 _Z9SylvesterRK18FloatComplexMatrixS1_S1_@Base 3.4.3
 _Z9SylvesterRK6MatrixS1_S1_@Base 3.4.3
 _Z9bsxfun_eqRK10intNDArrayI10octave_intIaEES4_@Base 3.4.3
 _Z9bsxfun_eqRK10intNDArrayI10octave_intIhEES4_@Base 3.4.3
 _Z9bsxfun_eqRK10intNDArrayI10octave_intIiEES4_@Base 3.4.3
 _Z9bsxfun_eqRK10intNDArrayI10octave_intIjEES4_@Base 3.4.3
 _Z9bsxfun_eqRK10intNDArrayI10octave_intIsEES4_@Base 3.4.3
 _Z9bsxfun_eqRK10intNDArrayI10octave_intItEES4_@Base 3.4.3
 _Z9bsxfun_eqRK11charNDArrayS1_@Base 3.4.3
 _Z9bsxfun_eqRK12FloatNDArrayS1_@Base 3.4.3
 _Z9bsxfun_eqRK14ComplexNDArrayS1_@Base 3.4.3
 _Z9bsxfun_eqRK19FloatComplexNDArrayS1_@Base 3.4.3
 _Z9bsxfun_eqRK7NDArrayS1_@Base 3.4.3
 _Z9bsxfun_geRK10intNDArrayI10octave_intIaEES4_@Base 3.4.3
 _Z9bsxfun_geRK10intNDArrayI10octave_intIhEES4_@Base 3.4.3
 _Z9bsxfun_geRK10intNDArrayI10octave_intIiEES4_@Base 3.4.3
 _Z9bsxfun_geRK10intNDArrayI10octave_intIjEES4_@Base 3.4.3
 _Z9bsxfun_geRK10intNDArrayI10octave_intIsEES4_@Base 3.4.3
 _Z9bsxfun_geRK10intNDArrayI10octave_intItEES4_@Base 3.4.3
 _Z9bsxfun_geRK11charNDArrayS1_@Base 3.4.3
 _Z9bsxfun_geRK12FloatNDArrayS1_@Base 3.4.3
 _Z9bsxfun_geRK14ComplexNDArrayS1_@Base 3.4.3
 _Z9bsxfun_geRK19FloatComplexNDArrayS1_@Base 3.4.3
 _Z9bsxfun_geRK7NDArrayS1_@Base 3.4.3
 _Z9bsxfun_gtRK10intNDArrayI10octave_intIaEES4_@Base 3.4.3
 _Z9bsxfun_gtRK10intNDArrayI10octave_intIhEES4_@Base 3.4.3
 _Z9bsxfun_gtRK10intNDArrayI10octave_intIiEES4_@Base 3.4.3
 _Z9bsxfun_gtRK10intNDArrayI10octave_intIjEES4_@Base 3.4.3
 _Z9bsxfun_gtRK10intNDArrayI10octave_intIsEES4_@Base 3.4.3
 _Z9bsxfun_gtRK10intNDArrayI10octave_intItEES4_@Base 3.4.3
 _Z9bsxfun_gtRK11charNDArrayS1_@Base 3.4.3
 _Z9bsxfun_gtRK12FloatNDArrayS1_@Base 3.4.3
 _Z9bsxfun_gtRK14ComplexNDArrayS1_@Base 3.4.3
 _Z9bsxfun_gtRK19FloatComplexNDArrayS1_@Base 3.4.3
 _Z9bsxfun_gtRK7NDArrayS1_@Base 3.4.3
 _Z9bsxfun_leRK10intNDArrayI10octave_intIaEES4_@Base 3.4.3
 _Z9bsxfun_leRK10intNDArrayI10octave_intIhEES4_@Base 3.4.3
 _Z9bsxfun_leRK10intNDArrayI10octave_intIiEES4_@Base 3.4.3
 _Z9bsxfun_leRK10intNDArrayI10octave_intIjEES4_@Base 3.4.3
 _Z9bsxfun_leRK10intNDArrayI10octave_intIsEES4_@Base 3.4.3
 _Z9bsxfun_leRK10intNDArrayI10octave_intItEES4_@Base 3.4.3
 _Z9bsxfun_leRK11charNDArrayS1_@Base 3.4.3
 _Z9bsxfun_leRK12FloatNDArrayS1_@Base 3.4.3
 _Z9bsxfun_leRK14ComplexNDArrayS1_@Base 3.4.3
 _Z9bsxfun_leRK19FloatComplexNDArrayS1_@Base 3.4.3
 _Z9bsxfun_leRK7NDArrayS1_@Base 3.4.3
 _Z9bsxfun_ltRK10intNDArrayI10octave_intIaEES4_@Base 3.4.3
 _Z9bsxfun_ltRK10intNDArrayI10octave_intIhEES4_@Base 3.4.3
 _Z9bsxfun_ltRK10intNDArrayI10octave_intIiEES4_@Base 3.4.3
 _Z9bsxfun_ltRK10intNDArrayI10octave_intIjEES4_@Base 3.4.3
 _Z9bsxfun_ltRK10intNDArrayI10octave_intIsEES4_@Base 3.4.3
 _Z9bsxfun_ltRK10intNDArrayI10octave_intItEES4_@Base 3.4.3
 _Z9bsxfun_ltRK11charNDArrayS1_@Base 3.4.3
 _Z9bsxfun_ltRK12FloatNDArrayS1_@Base 3.4.3
 _Z9bsxfun_ltRK14ComplexNDArrayS1_@Base 3.4.3
 _Z9bsxfun_ltRK19FloatComplexNDArrayS1_@Base 3.4.3
 _Z9bsxfun_ltRK7NDArrayS1_@Base 3.4.3
 _Z9bsxfun_neRK10intNDArrayI10octave_intIaEES4_@Base 3.4.3
 _Z9bsxfun_neRK10intNDArrayI10octave_intIhEES4_@Base 3.4.3
 _Z9bsxfun_neRK10intNDArrayI10octave_intIiEES4_@Base 3.4.3
 _Z9bsxfun_neRK10intNDArrayI10octave_intIjEES4_@Base 3.4.3
 _Z9bsxfun_neRK10intNDArrayI10octave_intIsEES4_@Base 3.4.3
 _Z9bsxfun_neRK10intNDArrayI10octave_intItEES4_@Base 3.4.3
 _Z9bsxfun_neRK11charNDArrayS1_@Base 3.4.3
 _Z9bsxfun_neRK12FloatNDArrayS1_@Base 3.4.3
 _Z9bsxfun_neRK14ComplexNDArrayS1_@Base 3.4.3
 _Z9bsxfun_neRK19FloatComplexNDArrayS1_@Base 3.4.3
 _Z9bsxfun_neRK7NDArrayS1_@Base 3.4.3
 _Z9bsxfun_orRK11boolNDArrayS1_@Base 3.4.3
 _Z9is_scalarRK10dim_vector@Base 3.4.3
 _Z9is_vectorRK10dim_vector@Base 3.4.3
 _Z9mul_transRK13ComplexMatrixRK19SparseComplexMatrix@Base 3.4.3
 _Z9mul_transRK6MatrixRK12SparseMatrix@Base 3.4.3
 _Z9mx_el_andRK10boolMatrixRK16SparseBoolMatrix@Base 3.4.3
 _Z9mx_el_andRK10boolMatrixRKb@Base 3.4.3
 _Z9mx_el_andRK10boolMatrixS1_@Base 3.4.3
 _Z9mx_el_andRK10charMatrixRKc@Base 3.4.3
 _Z9mx_el_andRK10charMatrixS1_@Base 3.4.3
 _Z9mx_el_andRK10intNDArrayI10octave_intIaEERK12FloatNDArray@Base 3.4.3
 _Z9mx_el_andRK10intNDArrayI10octave_intIaEERK7NDArray@Base 3.4.3
 _Z9mx_el_andRK10intNDArrayI10octave_intIaEERKS0_IhE@Base 3.4.3
 _Z9mx_el_andRK10intNDArrayI10octave_intIaEERKS0_IiE@Base 3.4.3
 _Z9mx_el_andRK10intNDArrayI10octave_intIaEERKS0_IjE@Base 3.4.3
 _Z9mx_el_andRK10intNDArrayI10octave_intIaEERKS0_IsE@Base 3.4.3
 _Z9mx_el_andRK10intNDArrayI10octave_intIaEERKS0_ItE@Base 3.4.3
 _Z9mx_el_andRK10intNDArrayI10octave_intIaEERKS1_@Base 3.4.3
 _Z9mx_el_andRK10intNDArrayI10octave_intIaEERKS_IS0_IhEE@Base 3.4.3
 _Z9mx_el_andRK10intNDArrayI10octave_intIaEERKS_IS0_IiEE@Base 3.4.3
 _Z9mx_el_andRK10intNDArrayI10octave_intIaEERKS_IS0_IjEE@Base 3.4.3
 _Z9mx_el_andRK10intNDArrayI10octave_intIaEERKS_IS0_IsEE@Base 3.4.3
 _Z9mx_el_andRK10intNDArrayI10octave_intIaEERKS_IS0_ItEE@Base 3.4.3
 _Z9mx_el_andRK10intNDArrayI10octave_intIaEERKd@Base 3.4.3
 _Z9mx_el_andRK10intNDArrayI10octave_intIaEERKf@Base 3.4.3
 _Z9mx_el_andRK10intNDArrayI10octave_intIaEES4_@Base 3.4.3
 _Z9mx_el_andRK10intNDArrayI10octave_intIhEERK12FloatNDArray@Base 3.4.3
 _Z9mx_el_andRK10intNDArrayI10octave_intIhEERK7NDArray@Base 3.4.3
 _Z9mx_el_andRK10intNDArrayI10octave_intIhEERKS0_IaE@Base 3.4.3
 _Z9mx_el_andRK10intNDArrayI10octave_intIhEERKS0_IiE@Base 3.4.3
 _Z9mx_el_andRK10intNDArrayI10octave_intIhEERKS0_IjE@Base 3.4.3
 _Z9mx_el_andRK10intNDArrayI10octave_intIhEERKS0_IsE@Base 3.4.3
 _Z9mx_el_andRK10intNDArrayI10octave_intIhEERKS0_ItE@Base 3.4.3
 _Z9mx_el_andRK10intNDArrayI10octave_intIhEERKS1_@Base 3.4.3
 _Z9mx_el_andRK10intNDArrayI10octave_intIhEERKS_IS0_IaEE@Base 3.4.3
 _Z9mx_el_andRK10intNDArrayI10octave_intIhEERKS_IS0_IiEE@Base 3.4.3
 _Z9mx_el_andRK10intNDArrayI10octave_intIhEERKS_IS0_IjEE@Base 3.4.3
 _Z9mx_el_andRK10intNDArrayI10octave_intIhEERKS_IS0_IsEE@Base 3.4.3
 _Z9mx_el_andRK10intNDArrayI10octave_intIhEERKS_IS0_ItEE@Base 3.4.3
 _Z9mx_el_andRK10intNDArrayI10octave_intIhEERKd@Base 3.4.3
 _Z9mx_el_andRK10intNDArrayI10octave_intIhEERKf@Base 3.4.3
 _Z9mx_el_andRK10intNDArrayI10octave_intIhEES4_@Base 3.4.3
 _Z9mx_el_andRK10intNDArrayI10octave_intIiEERK12FloatNDArray@Base 3.4.3
 _Z9mx_el_andRK10intNDArrayI10octave_intIiEERK7NDArray@Base 3.4.3
 _Z9mx_el_andRK10intNDArrayI10octave_intIiEERKS0_IaE@Base 3.4.3
 _Z9mx_el_andRK10intNDArrayI10octave_intIiEERKS0_IhE@Base 3.4.3
 _Z9mx_el_andRK10intNDArrayI10octave_intIiEERKS0_IjE@Base 3.4.3
 _Z9mx_el_andRK10intNDArrayI10octave_intIiEERKS0_IsE@Base 3.4.3
 _Z9mx_el_andRK10intNDArrayI10octave_intIiEERKS0_ItE@Base 3.4.3
 _Z9mx_el_andRK10intNDArrayI10octave_intIiEERKS1_@Base 3.4.3
 _Z9mx_el_andRK10intNDArrayI10octave_intIiEERKS_IS0_IaEE@Base 3.4.3
 _Z9mx_el_andRK10intNDArrayI10octave_intIiEERKS_IS0_IhEE@Base 3.4.3
 _Z9mx_el_andRK10intNDArrayI10octave_intIiEERKS_IS0_IjEE@Base 3.4.3
 _Z9mx_el_andRK10intNDArrayI10octave_intIiEERKS_IS0_IsEE@Base 3.4.3
 _Z9mx_el_andRK10intNDArrayI10octave_intIiEERKS_IS0_ItEE@Base 3.4.3
 _Z9mx_el_andRK10intNDArrayI10octave_intIiEERKd@Base 3.4.3
 _Z9mx_el_andRK10intNDArrayI10octave_intIiEERKf@Base 3.4.3
 _Z9mx_el_andRK10intNDArrayI10octave_intIiEES4_@Base 3.4.3
 _Z9mx_el_andRK10intNDArrayI10octave_intIjEERK12FloatNDArray@Base 3.4.3
 _Z9mx_el_andRK10intNDArrayI10octave_intIjEERK7NDArray@Base 3.4.3
 _Z9mx_el_andRK10intNDArrayI10octave_intIjEERKS0_IaE@Base 3.4.3
 _Z9mx_el_andRK10intNDArrayI10octave_intIjEERKS0_IhE@Base 3.4.3
 _Z9mx_el_andRK10intNDArrayI10octave_intIjEERKS0_IiE@Base 3.4.3
 _Z9mx_el_andRK10intNDArrayI10octave_intIjEERKS0_IsE@Base 3.4.3
 _Z9mx_el_andRK10intNDArrayI10octave_intIjEERKS0_ItE@Base 3.4.3
 _Z9mx_el_andRK10intNDArrayI10octave_intIjEERKS1_@Base 3.4.3
 _Z9mx_el_andRK10intNDArrayI10octave_intIjEERKS_IS0_IaEE@Base 3.4.3
 _Z9mx_el_andRK10intNDArrayI10octave_intIjEERKS_IS0_IhEE@Base 3.4.3
 _Z9mx_el_andRK10intNDArrayI10octave_intIjEERKS_IS0_IiEE@Base 3.4.3
 _Z9mx_el_andRK10intNDArrayI10octave_intIjEERKS_IS0_IsEE@Base 3.4.3
 _Z9mx_el_andRK10intNDArrayI10octave_intIjEERKS_IS0_ItEE@Base 3.4.3
 _Z9mx_el_andRK10intNDArrayI10octave_intIjEERKd@Base 3.4.3
 _Z9mx_el_andRK10intNDArrayI10octave_intIjEERKf@Base 3.4.3
 _Z9mx_el_andRK10intNDArrayI10octave_intIjEES4_@Base 3.4.3
 _Z9mx_el_andRK10intNDArrayI10octave_intIsEERK12FloatNDArray@Base 3.4.3
 _Z9mx_el_andRK10intNDArrayI10octave_intIsEERK7NDArray@Base 3.4.3
 _Z9mx_el_andRK10intNDArrayI10octave_intIsEERKS0_IaE@Base 3.4.3
 _Z9mx_el_andRK10intNDArrayI10octave_intIsEERKS0_IhE@Base 3.4.3
 _Z9mx_el_andRK10intNDArrayI10octave_intIsEERKS0_IiE@Base 3.4.3
 _Z9mx_el_andRK10intNDArrayI10octave_intIsEERKS0_IjE@Base 3.4.3
 _Z9mx_el_andRK10intNDArrayI10octave_intIsEERKS0_ItE@Base 3.4.3
 _Z9mx_el_andRK10intNDArrayI10octave_intIsEERKS1_@Base 3.4.3
 _Z9mx_el_andRK10intNDArrayI10octave_intIsEERKS_IS0_IaEE@Base 3.4.3
 _Z9mx_el_andRK10intNDArrayI10octave_intIsEERKS_IS0_IhEE@Base 3.4.3
 _Z9mx_el_andRK10intNDArrayI10octave_intIsEERKS_IS0_IiEE@Base 3.4.3
 _Z9mx_el_andRK10intNDArrayI10octave_intIsEERKS_IS0_IjEE@Base 3.4.3
 _Z9mx_el_andRK10intNDArrayI10octave_intIsEERKS_IS0_ItEE@Base 3.4.3
 _Z9mx_el_andRK10intNDArrayI10octave_intIsEERKd@Base 3.4.3
 _Z9mx_el_andRK10intNDArrayI10octave_intIsEERKf@Base 3.4.3
 _Z9mx_el_andRK10intNDArrayI10octave_intIsEES4_@Base 3.4.3
 _Z9mx_el_andRK10intNDArrayI10octave_intItEERK12FloatNDArray@Base 3.4.3
 _Z9mx_el_andRK10intNDArrayI10octave_intItEERK7NDArray@Base 3.4.3
 _Z9mx_el_andRK10intNDArrayI10octave_intItEERKS0_IaE@Base 3.4.3
 _Z9mx_el_andRK10intNDArrayI10octave_intItEERKS0_IhE@Base 3.4.3
 _Z9mx_el_andRK10intNDArrayI10octave_intItEERKS0_IiE@Base 3.4.3
 _Z9mx_el_andRK10intNDArrayI10octave_intItEERKS0_IjE@Base 3.4.3
 _Z9mx_el_andRK10intNDArrayI10octave_intItEERKS0_IsE@Base 3.4.3
 _Z9mx_el_andRK10intNDArrayI10octave_intItEERKS1_@Base 3.4.3
 _Z9mx_el_andRK10intNDArrayI10octave_intItEERKS_IS0_IaEE@Base 3.4.3
 _Z9mx_el_andRK10intNDArrayI10octave_intItEERKS_IS0_IhEE@Base 3.4.3
 _Z9mx_el_andRK10intNDArrayI10octave_intItEERKS_IS0_IiEE@Base 3.4.3
 _Z9mx_el_andRK10intNDArrayI10octave_intItEERKS_IS0_IjEE@Base 3.4.3
 _Z9mx_el_andRK10intNDArrayI10octave_intItEERKS_IS0_IsEE@Base 3.4.3
 _Z9mx_el_andRK10intNDArrayI10octave_intItEERKd@Base 3.4.3
 _Z9mx_el_andRK10intNDArrayI10octave_intItEERKf@Base 3.4.3
 _Z9mx_el_andRK10intNDArrayI10octave_intItEES4_@Base 3.4.3
 _Z9mx_el_andRK10octave_intIaERK10intNDArrayIS0_E@Base 3.4.3
 _Z9mx_el_andRK10octave_intIaERK10intNDArrayIS_IhEE@Base 3.4.3
 _Z9mx_el_andRK10octave_intIaERK10intNDArrayIS_IiEE@Base 3.4.3
 _Z9mx_el_andRK10octave_intIaERK10intNDArrayIS_IjEE@Base 3.4.3
 _Z9mx_el_andRK10octave_intIaERK10intNDArrayIS_IsEE@Base 3.4.3
 _Z9mx_el_andRK10octave_intIaERK10intNDArrayIS_ItEE@Base 3.4.3
 _Z9mx_el_andRK10octave_intIaERK12FloatNDArray@Base 3.4.3
 _Z9mx_el_andRK10octave_intIaERK7NDArray@Base 3.4.3
 _Z9mx_el_andRK10octave_intIhERK10intNDArrayIS0_E@Base 3.4.3
 _Z9mx_el_andRK10octave_intIhERK10intNDArrayIS_IaEE@Base 3.4.3
 _Z9mx_el_andRK10octave_intIhERK10intNDArrayIS_IiEE@Base 3.4.3
 _Z9mx_el_andRK10octave_intIhERK10intNDArrayIS_IjEE@Base 3.4.3
 _Z9mx_el_andRK10octave_intIhERK10intNDArrayIS_IsEE@Base 3.4.3
 _Z9mx_el_andRK10octave_intIhERK10intNDArrayIS_ItEE@Base 3.4.3
 _Z9mx_el_andRK10octave_intIhERK12FloatNDArray@Base 3.4.3
 _Z9mx_el_andRK10octave_intIhERK7NDArray@Base 3.4.3
 _Z9mx_el_andRK10octave_intIiERK10intNDArrayIS0_E@Base 3.4.3
 _Z9mx_el_andRK10octave_intIiERK10intNDArrayIS_IaEE@Base 3.4.3
 _Z9mx_el_andRK10octave_intIiERK10intNDArrayIS_IhEE@Base 3.4.3
 _Z9mx_el_andRK10octave_intIiERK10intNDArrayIS_IjEE@Base 3.4.3
 _Z9mx_el_andRK10octave_intIiERK10intNDArrayIS_IsEE@Base 3.4.3
 _Z9mx_el_andRK10octave_intIiERK10intNDArrayIS_ItEE@Base 3.4.3
 _Z9mx_el_andRK10octave_intIiERK12FloatNDArray@Base 3.4.3
 _Z9mx_el_andRK10octave_intIiERK7NDArray@Base 3.4.3
 _Z9mx_el_andRK10octave_intIjERK10intNDArrayIS0_E@Base 3.4.3
 _Z9mx_el_andRK10octave_intIjERK10intNDArrayIS_IaEE@Base 3.4.3
 _Z9mx_el_andRK10octave_intIjERK10intNDArrayIS_IhEE@Base 3.4.3
 _Z9mx_el_andRK10octave_intIjERK10intNDArrayIS_IiEE@Base 3.4.3
 _Z9mx_el_andRK10octave_intIjERK10intNDArrayIS_IsEE@Base 3.4.3
 _Z9mx_el_andRK10octave_intIjERK10intNDArrayIS_ItEE@Base 3.4.3
 _Z9mx_el_andRK10octave_intIjERK12FloatNDArray@Base 3.4.3
 _Z9mx_el_andRK10octave_intIjERK7NDArray@Base 3.4.3
 _Z9mx_el_andRK10octave_intIsERK10intNDArrayIS0_E@Base 3.4.3
 _Z9mx_el_andRK10octave_intIsERK10intNDArrayIS_IaEE@Base 3.4.3
 _Z9mx_el_andRK10octave_intIsERK10intNDArrayIS_IhEE@Base 3.4.3
 _Z9mx_el_andRK10octave_intIsERK10intNDArrayIS_IiEE@Base 3.4.3
 _Z9mx_el_andRK10octave_intIsERK10intNDArrayIS_IjEE@Base 3.4.3
 _Z9mx_el_andRK10octave_intIsERK10intNDArrayIS_ItEE@Base 3.4.3
 _Z9mx_el_andRK10octave_intIsERK12FloatNDArray@Base 3.4.3
 _Z9mx_el_andRK10octave_intIsERK7NDArray@Base 3.4.3
 _Z9mx_el_andRK10octave_intItERK10intNDArrayIS0_E@Base 3.4.3
 _Z9mx_el_andRK10octave_intItERK10intNDArrayIS_IaEE@Base 3.4.3
 _Z9mx_el_andRK10octave_intItERK10intNDArrayIS_IhEE@Base 3.4.3
 _Z9mx_el_andRK10octave_intItERK10intNDArrayIS_IiEE@Base 3.4.3
 _Z9mx_el_andRK10octave_intItERK10intNDArrayIS_IjEE@Base 3.4.3
 _Z9mx_el_andRK10octave_intItERK10intNDArrayIS_IsEE@Base 3.4.3
 _Z9mx_el_andRK10octave_intItERK12FloatNDArray@Base 3.4.3
 _Z9mx_el_andRK10octave_intItERK7NDArray@Base 3.4.3
 _Z9mx_el_andRK11FloatMatrixRK18FloatComplexMatrix@Base 3.4.3
 _Z9mx_el_andRK11FloatMatrixRKSt7complexIfE@Base 3.4.3
 _Z9mx_el_andRK11FloatMatrixRKf@Base 3.4.3
 _Z9mx_el_andRK11FloatMatrixS1_@Base 3.4.3
 _Z9mx_el_andRK11boolNDArrayRKb@Base 3.4.3
 _Z9mx_el_andRK11boolNDArrayS1_@Base 3.4.3
 _Z9mx_el_andRK11charNDArrayRKc@Base 3.4.3
 _Z9mx_el_andRK11charNDArrayS1_@Base 3.4.3
 _Z9mx_el_andRK12FloatNDArrayRK10intNDArrayI10octave_intIaEE@Base 3.4.3
 _Z9mx_el_andRK12FloatNDArrayRK10intNDArrayI10octave_intIhEE@Base 3.4.3
 _Z9mx_el_andRK12FloatNDArrayRK10intNDArrayI10octave_intIiEE@Base 3.4.3
 _Z9mx_el_andRK12FloatNDArrayRK10intNDArrayI10octave_intIjEE@Base 3.4.3
 _Z9mx_el_andRK12FloatNDArrayRK10intNDArrayI10octave_intIsEE@Base 3.4.3
 _Z9mx_el_andRK12FloatNDArrayRK10intNDArrayI10octave_intItEE@Base 3.4.3
 _Z9mx_el_andRK12FloatNDArrayRK10octave_intIaE@Base 3.4.3
 _Z9mx_el_andRK12FloatNDArrayRK10octave_intIhE@Base 3.4.3
 _Z9mx_el_andRK12FloatNDArrayRK10octave_intIiE@Base 3.4.3
 _Z9mx_el_andRK12FloatNDArrayRK10octave_intIjE@Base 3.4.3
 _Z9mx_el_andRK12FloatNDArrayRK10octave_intIsE@Base 3.4.3
 _Z9mx_el_andRK12FloatNDArrayRK10octave_intItE@Base 3.4.3
 _Z9mx_el_andRK12FloatNDArrayRK19FloatComplexNDArray@Base 3.4.3
 _Z9mx_el_andRK12FloatNDArrayRKSt7complexIfE@Base 3.4.3
 _Z9mx_el_andRK12FloatNDArrayRKf@Base 3.4.3
 _Z9mx_el_andRK12FloatNDArrayS1_@Base 3.4.3
 _Z9mx_el_andRK12SparseMatrixRK13ComplexMatrix@Base 3.4.3
 _Z9mx_el_andRK12SparseMatrixRK19SparseComplexMatrix@Base 3.4.3
 _Z9mx_el_andRK12SparseMatrixRK6Matrix@Base 3.4.3
 _Z9mx_el_andRK12SparseMatrixRKSt7complexIdE@Base 3.4.3
 _Z9mx_el_andRK12SparseMatrixRKd@Base 3.4.3
 _Z9mx_el_andRK12SparseMatrixS1_@Base 3.4.3
 _Z9mx_el_andRK13ComplexMatrixRK12SparseMatrix@Base 3.4.3
 _Z9mx_el_andRK13ComplexMatrixRK19SparseComplexMatrix@Base 3.4.3
 _Z9mx_el_andRK13ComplexMatrixRK6Matrix@Base 3.4.3
 _Z9mx_el_andRK13ComplexMatrixRKSt7complexIdE@Base 3.4.3
 _Z9mx_el_andRK13ComplexMatrixRKd@Base 3.4.3
 _Z9mx_el_andRK13ComplexMatrixS1_@Base 3.4.3
 _Z9mx_el_andRK14ComplexNDArrayRK7NDArray@Base 3.4.3
 _Z9mx_el_andRK14ComplexNDArrayRKSt7complexIdE@Base 3.4.3
 _Z9mx_el_andRK14ComplexNDArrayRKd@Base 3.4.3
 _Z9mx_el_andRK14ComplexNDArrayS1_@Base 3.4.3
 _Z9mx_el_andRK16SparseBoolMatrixRK10boolMatrix@Base 3.4.3
 _Z9mx_el_andRK16SparseBoolMatrixRKb@Base 3.4.3
 _Z9mx_el_andRK16SparseBoolMatrixS1_@Base 3.4.3
 _Z9mx_el_andRK18FloatComplexMatrixRK11FloatMatrix@Base 3.4.3
 _Z9mx_el_andRK18FloatComplexMatrixRKSt7complexIfE@Base 3.4.3
 _Z9mx_el_andRK18FloatComplexMatrixRKf@Base 3.4.3
 _Z9mx_el_andRK18FloatComplexMatrixS1_@Base 3.4.3
 _Z9mx_el_andRK19FloatComplexNDArrayRK12FloatNDArray@Base 3.4.3
 _Z9mx_el_andRK19FloatComplexNDArrayRKSt7complexIfE@Base 3.4.3
 _Z9mx_el_andRK19FloatComplexNDArrayRKf@Base 3.4.3
 _Z9mx_el_andRK19FloatComplexNDArrayS1_@Base 3.4.3
 _Z9mx_el_andRK19SparseComplexMatrixRK12SparseMatrix@Base 3.4.3
 _Z9mx_el_andRK19SparseComplexMatrixRK13ComplexMatrix@Base 3.4.3
 _Z9mx_el_andRK19SparseComplexMatrixRK6Matrix@Base 3.4.3
 _Z9mx_el_andRK19SparseComplexMatrixRKSt7complexIdE@Base 3.4.3
 _Z9mx_el_andRK19SparseComplexMatrixRKd@Base 3.4.3
 _Z9mx_el_andRK19SparseComplexMatrixS1_@Base 3.4.3
 _Z9mx_el_andRK6MatrixRK12SparseMatrix@Base 3.4.3
 _Z9mx_el_andRK6MatrixRK13ComplexMatrix@Base 3.4.3
 _Z9mx_el_andRK6MatrixRK19SparseComplexMatrix@Base 3.4.3
 _Z9mx_el_andRK6MatrixRKSt7complexIdE@Base 3.4.3
 _Z9mx_el_andRK6MatrixRKd@Base 3.4.3
 _Z9mx_el_andRK6MatrixS1_@Base 3.4.3
 _Z9mx_el_andRK7NDArrayRK10intNDArrayI10octave_intIaEE@Base 3.4.3
 _Z9mx_el_andRK7NDArrayRK10intNDArrayI10octave_intIhEE@Base 3.4.3
 _Z9mx_el_andRK7NDArrayRK10intNDArrayI10octave_intIiEE@Base 3.4.3
 _Z9mx_el_andRK7NDArrayRK10intNDArrayI10octave_intIjEE@Base 3.4.3
 _Z9mx_el_andRK7NDArrayRK10intNDArrayI10octave_intIsEE@Base 3.4.3
 _Z9mx_el_andRK7NDArrayRK10intNDArrayI10octave_intItEE@Base 3.4.3
 _Z9mx_el_andRK7NDArrayRK10octave_intIaE@Base 3.4.3
 _Z9mx_el_andRK7NDArrayRK10octave_intIhE@Base 3.4.3
 _Z9mx_el_andRK7NDArrayRK10octave_intIiE@Base 3.4.3
 _Z9mx_el_andRK7NDArrayRK10octave_intIjE@Base 3.4.3
 _Z9mx_el_andRK7NDArrayRK10octave_intIsE@Base 3.4.3
 _Z9mx_el_andRK7NDArrayRK10octave_intItE@Base 3.4.3
 _Z9mx_el_andRK7NDArrayRK14ComplexNDArray@Base 3.4.3
 _Z9mx_el_andRK7NDArrayRKSt7complexIdE@Base 3.4.3
 _Z9mx_el_andRK7NDArrayRKd@Base 3.4.3
 _Z9mx_el_andRK7NDArrayS1_@Base 3.4.3
 _Z9mx_el_andRKSt7complexIdERK12SparseMatrix@Base 3.4.3
 _Z9mx_el_andRKSt7complexIdERK13ComplexMatrix@Base 3.4.3
 _Z9mx_el_andRKSt7complexIdERK14ComplexNDArray@Base 3.4.3
 _Z9mx_el_andRKSt7complexIdERK19SparseComplexMatrix@Base 3.4.3
 _Z9mx_el_andRKSt7complexIdERK6Matrix@Base 3.4.3
 _Z9mx_el_andRKSt7complexIdERK7NDArray@Base 3.4.3
 _Z9mx_el_andRKSt7complexIfERK11FloatMatrix@Base 3.4.3
 _Z9mx_el_andRKSt7complexIfERK12FloatNDArray@Base 3.4.3
 _Z9mx_el_andRKSt7complexIfERK18FloatComplexMatrix@Base 3.4.3
 _Z9mx_el_andRKSt7complexIfERK19FloatComplexNDArray@Base 3.4.3
 _Z9mx_el_andRKbRK10boolMatrix@Base 3.4.3
 _Z9mx_el_andRKbRK11boolNDArray@Base 3.4.3
 _Z9mx_el_andRKbRK16SparseBoolMatrix@Base 3.4.3
 _Z9mx_el_andRKcRK10charMatrix@Base 3.4.3
 _Z9mx_el_andRKcRK11charNDArray@Base 3.4.3
 _Z9mx_el_andRKdRK10intNDArrayI10octave_intIaEE@Base 3.4.3
 _Z9mx_el_andRKdRK10intNDArrayI10octave_intIhEE@Base 3.4.3
 _Z9mx_el_andRKdRK10intNDArrayI10octave_intIiEE@Base 3.4.3
 _Z9mx_el_andRKdRK10intNDArrayI10octave_intIjEE@Base 3.4.3
 _Z9mx_el_andRKdRK10intNDArrayI10octave_intIsEE@Base 3.4.3
 _Z9mx_el_andRKdRK10intNDArrayI10octave_intItEE@Base 3.4.3
 _Z9mx_el_andRKdRK12SparseMatrix@Base 3.4.3
 _Z9mx_el_andRKdRK13ComplexMatrix@Base 3.4.3
 _Z9mx_el_andRKdRK14ComplexNDArray@Base 3.4.3
 _Z9mx_el_andRKdRK19SparseComplexMatrix@Base 3.4.3
 _Z9mx_el_andRKdRK6Matrix@Base 3.4.3
 _Z9mx_el_andRKdRK7NDArray@Base 3.4.3
 _Z9mx_el_andRKfRK10intNDArrayI10octave_intIaEE@Base 3.4.3
 _Z9mx_el_andRKfRK10intNDArrayI10octave_intIhEE@Base 3.4.3
 _Z9mx_el_andRKfRK10intNDArrayI10octave_intIiEE@Base 3.4.3
 _Z9mx_el_andRKfRK10intNDArrayI10octave_intIjEE@Base 3.4.3
 _Z9mx_el_andRKfRK10intNDArrayI10octave_intIsEE@Base 3.4.3
 _Z9mx_el_andRKfRK10intNDArrayI10octave_intItEE@Base 3.4.3
 _Z9mx_el_andRKfRK11FloatMatrix@Base 3.4.3
 _Z9mx_el_andRKfRK12FloatNDArray@Base 3.4.3
 _Z9mx_el_andRKfRK18FloatComplexMatrix@Base 3.4.3
 _Z9mx_el_andRKfRK19FloatComplexNDArray@Base 3.4.3
 _Z9rc_lgammad@Base 3.4.3
 _Z9rc_lgammaf@Base 3.4.3
 _Z9row_normsISt7complexIdEd18norm_accumulator_0IdEEvRK6MArrayIT_ERS4_IT0_ET1_@Base 3.4.3
 _Z9row_normsISt7complexIdEd18norm_accumulator_0IdEEvRK7MSparseIT_ER6MArrayIT0_ET1_@Base 3.4.3
 _Z9row_normsISt7complexIdEd18norm_accumulator_1IdEEvRK6MArrayIT_ERS4_IT0_ET1_@Base 3.4.3
 _Z9row_normsISt7complexIdEd18norm_accumulator_1IdEEvRK7MSparseIT_ER6MArrayIT0_ET1_@Base 3.4.3
 _Z9row_normsISt7complexIdEd18norm_accumulator_2IdEEvRK6MArrayIT_ERS4_IT0_ET1_@Base 3.4.3
 _Z9row_normsISt7complexIdEd18norm_accumulator_2IdEEvRK7MSparseIT_ER6MArrayIT0_ET1_@Base 3.4.3
 _Z9row_normsISt7complexIdEd18norm_accumulator_pIdEEvRK6MArrayIT_ERS4_IT0_ET1_@Base 3.4.3
 _Z9row_normsISt7complexIdEd18norm_accumulator_pIdEEvRK7MSparseIT_ER6MArrayIT0_ET1_@Base 3.4.3
 _Z9row_normsISt7complexIdEd19norm_accumulator_mpIdEEvRK6MArrayIT_ERS4_IT0_ET1_@Base 3.4.3
 _Z9row_normsISt7complexIdEd19norm_accumulator_mpIdEEvRK7MSparseIT_ER6MArrayIT0_ET1_@Base 3.4.3
 _Z9row_normsISt7complexIdEd20norm_accumulator_infIdEEvRK6MArrayIT_ERS4_IT0_ET1_@Base 3.4.3
 _Z9row_normsISt7complexIdEd20norm_accumulator_infIdEEvRK7MSparseIT_ER6MArrayIT0_ET1_@Base 3.4.3
 _Z9row_normsISt7complexIdEd21norm_accumulator_minfIdEEvRK6MArrayIT_ERS4_IT0_ET1_@Base 3.4.3
 _Z9row_normsISt7complexIdEd21norm_accumulator_minfIdEEvRK7MSparseIT_ER6MArrayIT0_ET1_@Base 3.4.3
 _Z9row_normsISt7complexIdEdE6MArrayIT0_ERK7MSparseIT_ES3_@Base 3.4.3
 _Z9row_normsISt7complexIdEdE6MArrayIT0_ERKS2_IT_ES3_@Base 3.4.3
 _Z9row_normsISt7complexIfEf18norm_accumulator_0IfEEvRK6MArrayIT_ERS4_IT0_ET1_@Base 3.4.3
 _Z9row_normsISt7complexIfEf18norm_accumulator_1IfEEvRK6MArrayIT_ERS4_IT0_ET1_@Base 3.4.3
 _Z9row_normsISt7complexIfEf18norm_accumulator_2IfEEvRK6MArrayIT_ERS4_IT0_ET1_@Base 3.4.3
 _Z9row_normsISt7complexIfEf18norm_accumulator_pIfEEvRK6MArrayIT_ERS4_IT0_ET1_@Base 3.4.3
 _Z9row_normsISt7complexIfEf19norm_accumulator_mpIfEEvRK6MArrayIT_ERS4_IT0_ET1_@Base 3.4.3
 _Z9row_normsISt7complexIfEf20norm_accumulator_infIfEEvRK6MArrayIT_ERS4_IT0_ET1_@Base 3.4.3
 _Z9row_normsISt7complexIfEf21norm_accumulator_minfIfEEvRK6MArrayIT_ERS4_IT0_ET1_@Base 3.4.3
 _Z9row_normsISt7complexIfEfE6MArrayIT0_ERKS2_IT_ES3_@Base 3.4.3
 _Z9row_normsIdd18norm_accumulator_0IdEEvRK6MArrayIT_ERS2_IT0_ET1_@Base 3.4.3
 _Z9row_normsIdd18norm_accumulator_0IdEEvRK7MSparseIT_ER6MArrayIT0_ET1_@Base 3.4.3
 _Z9row_normsIdd18norm_accumulator_1IdEEvRK6MArrayIT_ERS2_IT0_ET1_@Base 3.4.3
 _Z9row_normsIdd18norm_accumulator_1IdEEvRK7MSparseIT_ER6MArrayIT0_ET1_@Base 3.4.3
 _Z9row_normsIdd18norm_accumulator_2IdEEvRK6MArrayIT_ERS2_IT0_ET1_@Base 3.4.3
 _Z9row_normsIdd18norm_accumulator_2IdEEvRK7MSparseIT_ER6MArrayIT0_ET1_@Base 3.4.3
 _Z9row_normsIdd18norm_accumulator_pIdEEvRK6MArrayIT_ERS2_IT0_ET1_@Base 3.4.3
 _Z9row_normsIdd18norm_accumulator_pIdEEvRK7MSparseIT_ER6MArrayIT0_ET1_@Base 3.4.3
 _Z9row_normsIdd19norm_accumulator_mpIdEEvRK6MArrayIT_ERS2_IT0_ET1_@Base 3.4.3
 _Z9row_normsIdd19norm_accumulator_mpIdEEvRK7MSparseIT_ER6MArrayIT0_ET1_@Base 3.4.3
 _Z9row_normsIdd20norm_accumulator_infIdEEvRK6MArrayIT_ERS2_IT0_ET1_@Base 3.4.3
 _Z9row_normsIdd20norm_accumulator_infIdEEvRK7MSparseIT_ER6MArrayIT0_ET1_@Base 3.4.3
 _Z9row_normsIdd21norm_accumulator_minfIdEEvRK6MArrayIT_ERS2_IT0_ET1_@Base 3.4.3
 _Z9row_normsIdd21norm_accumulator_minfIdEEvRK7MSparseIT_ER6MArrayIT0_ET1_@Base 3.4.3
 _Z9row_normsIddE6MArrayIT0_ERK7MSparseIT_ES1_@Base 3.4.3
 _Z9row_normsIddE6MArrayIT0_ERKS0_IT_ES1_@Base 3.4.3
 _Z9row_normsIff18norm_accumulator_0IfEEvRK6MArrayIT_ERS2_IT0_ET1_@Base 3.4.3
 _Z9row_normsIff18norm_accumulator_1IfEEvRK6MArrayIT_ERS2_IT0_ET1_@Base 3.4.3
 _Z9row_normsIff18norm_accumulator_2IfEEvRK6MArrayIT_ERS2_IT0_ET1_@Base 3.4.3
 _Z9row_normsIff18norm_accumulator_pIfEEvRK6MArrayIT_ERS2_IT0_ET1_@Base 3.4.3
 _Z9row_normsIff19norm_accumulator_mpIfEEvRK6MArrayIT_ERS2_IT0_ET1_@Base 3.4.3
 _Z9row_normsIff20norm_accumulator_infIfEEvRK6MArrayIT_ERS2_IT0_ET1_@Base 3.4.3
 _Z9row_normsIff21norm_accumulator_minfIfEEvRK6MArrayIT_ERS2_IT0_ET1_@Base 3.4.3
 _Z9row_normsIffE6MArrayIT0_ERKS0_IT_ES1_@Base 3.4.3
 _Z9trans_mulRK12SparseMatrixRK6Matrix@Base 3.4.3
 _Z9trans_mulRK19SparseComplexMatrixRK13ComplexMatrix@Base 3.4.3
 _Z9xcolnormsRK11FloatMatrixf@Base 3.4.3
 _Z9xcolnormsRK12SparseMatrixd@Base 3.4.3
 _Z9xcolnormsRK13ComplexMatrixd@Base 3.4.3
 _Z9xcolnormsRK18FloatComplexMatrixf@Base 3.4.3
 _Z9xcolnormsRK19SparseComplexMatrixd@Base 3.4.3
 _Z9xcolnormsRK6Matrixd@Base 3.4.3
 _Z9xfrobnormRK11FloatMatrix@Base 3.4.3
 _Z9xfrobnormRK12SparseMatrix@Base 3.4.3
 _Z9xfrobnormRK13ComplexMatrix@Base 3.4.3
 _Z9xfrobnormRK18FloatComplexMatrix@Base 3.4.3
 _Z9xfrobnormRK19SparseComplexMatrix@Base 3.4.3
 _Z9xfrobnormRK6Matrix@Base 3.4.3
 _Z9xrownormsRK11FloatMatrixf@Base 3.4.3
 _Z9xrownormsRK12SparseMatrixd@Base 3.4.3
 _Z9xrownormsRK13ComplexMatrixd@Base 3.4.3
 _Z9xrownormsRK18FloatComplexMatrixf@Base 3.4.3
 _Z9xrownormsRK19SparseComplexMatrixd@Base 3.4.3
 _Z9xrownormsRK6Matrixd@Base 3.4.3
 _ZGVN10octave_intIaE3oneE@Base 3.4.3
 _ZGVN10octave_intIaE4zeroE@Base 3.4.3
 _ZGVN10octave_intIhE3oneE@Base 3.4.3
 _ZGVN10octave_intIhE4zeroE@Base 3.4.3
 _ZGVN10octave_intIiE3oneE@Base 3.4.3
 _ZGVN10octave_intIiE4zeroE@Base 3.4.3
 _ZGVN10octave_intIjE3oneE@Base 3.4.3
 _ZGVN10octave_intIjE4zeroE@Base 3.4.3
 _ZGVN10octave_intIsE3oneE@Base 3.4.3
 _ZGVN10octave_intIsE4zeroE@Base 3.4.3
 _ZGVN10octave_intItE3oneE@Base 3.4.3
 _ZGVN10octave_intItE4zeroE@Base 3.4.3
 _ZGVZN10DiagArray2ISt7complexIdEE4elemEiiE4zero@Base 3.4.3
 _ZGVZN10DiagArray2ISt7complexIfEE4elemEiiE4zero@Base 3.4.3
 _ZGVZN10dim_vector7nil_repEvE2zv@Base 3.4.3
 _ZGVZN10idx_vector7err_repEvE3ivr@Base 3.4.3
 _ZGVZN10idx_vector7nil_repEvE3ivr@Base 3.4.3
# template instantiation
 (c++|regex|optional=templateInstantiation)".*octave_int_base<.*>::convert_real<.*>.*@Base" 3.4.3
 _ZGVZN5ArrayI10idx_vectorE17resize_fill_valueEvE4zero@Base 3.4.3
 _ZGVZN5ArrayI10octave_intIaEE17resize_fill_valueEvE4zero@Base 3.4.3
 _ZGVZN5ArrayI10octave_intIhEE17resize_fill_valueEvE4zero@Base 3.4.3
 _ZGVZN5ArrayI10octave_intIiEE17resize_fill_valueEvE4zero@Base 3.4.3
 _ZGVZN5ArrayI10octave_intIjEE17resize_fill_valueEvE4zero@Base 3.4.3
 _ZGVZN5ArrayI10octave_intIsEE17resize_fill_valueEvE4zero@Base 3.4.3
 _ZGVZN5ArrayI10octave_intItEE17resize_fill_valueEvE4zero@Base 3.4.3
 _ZGVZN5ArrayISsE17resize_fill_valueEvE4zero@Base 3.4.3
 _ZGVZN5ArrayISt7complexIdEE17resize_fill_valueEvE4zero@Base 3.4.3
 _ZGVZN5ArrayISt7complexIfEE17resize_fill_valueEvE4zero@Base 3.4.3
 _ZGVZN6SparseISt7complexIdEE11range_errorEPKcRK5ArrayIiEE3foo@Base 3.4.3
 _ZGVZN6SparseISt7complexIdEE11range_errorEPKciE3foo@Base 3.4.3
 _ZGVZN6SparseISt7complexIdEE11range_errorEPKciiE3foo@Base 3.4.3
 _ZGVZNK5ArrayI10idx_vectorE7nil_repEvE2nr@Base 3.4.3
 _ZGVZNK5ArrayI10octave_intIaEE7nil_repEvE2nr@Base 3.4.3
 _ZGVZNK5ArrayI10octave_intIhEE7nil_repEvE2nr@Base 3.4.3
 _ZGVZNK5ArrayI10octave_intIiEE7nil_repEvE2nr@Base 3.4.3
 _ZGVZNK5ArrayI10octave_intIjEE7nil_repEvE2nr@Base 3.4.3
 _ZGVZNK5ArrayI10octave_intIsEE7nil_repEvE2nr@Base 3.4.3
 _ZGVZNK5ArrayI10octave_intItEE7nil_repEvE2nr@Base 3.4.3
 _ZGVZNK5ArrayIPvE7nil_repEvE2nr@Base 3.4.3
 _ZGVZNK5ArrayISsE7nil_repEvE2nr@Base 3.4.3
 _ZGVZNK5ArrayISt7complexIdEE7nil_repEvE2nr@Base 3.4.3
 _ZGVZNK5ArrayISt7complexIfEE7nil_repEvE2nr@Base 3.4.3
 _ZGVZNK5ArrayIbE7nil_repEvE2nr@Base 3.4.3
 _ZGVZNK5ArrayIcE7nil_repEvE2nr@Base 3.4.3
 _ZGVZNK5ArrayIdE7nil_repEvE2nr@Base 3.4.3
 _ZGVZNK5ArrayIfE7nil_repEvE2nr@Base 3.4.3
 _ZGVZNK5ArrayIiE7nil_repEvE2nr@Base 3.4.3
 _ZGVZNK5ArrayIlE7nil_repEvE2nr@Base 3.4.3
 _ZGVZNK5ArrayIsE7nil_repEvE2nr@Base 3.4.3
 _ZGVZNK5ArrayIxE7nil_repEvE2nr@Base 3.4.3
 _ZGVZNK6SparseISt7complexIdEE7nil_repEvE2nr@Base 3.4.3
 _ZGVZNK6SparseIbE7nil_repEvE2nr@Base 3.4.3
 _ZGVZNK6SparseIdE7nil_repEvE2nr@Base 3.4.3
 _ZN10AEPBALANCEC1ERK6Matrixbb@Base 3.4.3
 _ZN10AEPBALANCEC2ERK6Matrixbb@Base 3.4.3
 _ZN10AEPBALANCED0Ev@Base 3.4.3
 _ZN10AEPBALANCED1Ev@Base 3.4.3
 _ZN10AEPBALANCED2Ev@Base 3.4.3
 _ZN10ComplexQRP4initERK13ComplexMatrix9qr_type_t@Base 3.4.3
 _ZN10ComplexQRPC1ERK13ComplexMatrix9qr_type_t@Base 3.4.3
 _ZN10ComplexQRPC2ERK13ComplexMatrix9qr_type_t@Base 3.4.3
 _ZN10ComplexQRPD0Ev@Base 3.4.3
 _ZN10ComplexQRPD1Ev@Base 3.4.3
 _ZN10ComplexQRPD2Ev@Base 3.4.3
 _ZN10ComplexSVD4initERK13ComplexMatrixN3SVD4typeENS3_6driverE@Base 3.4.3
 _ZN10ComplexSVDD1Ev@Base 3.4.3
 _ZN10ComplexSVDD2Ev@Base 3.4.3
 _ZN10DiagArray2ISt7complexIdEE11fortran_vecEv@Base 3.4.3
 _ZN10DiagArray2ISt7complexIdEE4elemEii@Base 3.4.3
 _ZN10DiagArray2ISt7complexIdEE6dgelemEi@Base 3.4.3
 _ZN10DiagArray2ISt7complexIdEE6resizeEiiRKS1_@Base 3.4.3
 _ZN10DiagArray2ISt7complexIdEE7dgxelemEi@Base 3.4.3
 _ZN10DiagArray2ISt7complexIdEEC1ERK5ArrayIS1_E@Base 3.4.3
 _ZN10DiagArray2ISt7complexIdEEC1ERK5ArrayIS1_Eii@Base 3.4.3
 _ZN10DiagArray2ISt7complexIdEEC1ERKS2_@Base 3.4.3
 _ZN10DiagArray2ISt7complexIdEEC1Eii@Base 3.4.3
 _ZN10DiagArray2ISt7complexIdEEC1EiiRKS1_@Base 3.4.3
 _ZN10DiagArray2ISt7complexIdEEC1Ev@Base 3.4.3
 _ZN10DiagArray2ISt7complexIdEEC2ERK5ArrayIS1_E@Base 3.4.3
 _ZN10DiagArray2ISt7complexIdEEC2ERK5ArrayIS1_Eii@Base 3.4.3
 _ZN10DiagArray2ISt7complexIdEEC2ERKS2_@Base 3.4.3
 _ZN10DiagArray2ISt7complexIdEEC2Eii@Base 3.4.3
 _ZN10DiagArray2ISt7complexIdEEC2EiiRKS1_@Base 3.4.3
 _ZN10DiagArray2ISt7complexIdEEC2Ev@Base 3.4.3
 _ZN10DiagArray2ISt7complexIdEED1Ev@Base 3.4.3
 _ZN10DiagArray2ISt7complexIdEED2Ev@Base 3.4.3
 _ZN10DiagArray2ISt7complexIdEEaSERKS2_@Base 3.4.3
 _ZN10DiagArray2ISt7complexIfEE11fortran_vecEv@Base 3.4.3
 _ZN10DiagArray2ISt7complexIfEE4elemEii@Base 3.4.3
 _ZN10DiagArray2ISt7complexIfEE6dgelemEi@Base 3.4.3
 _ZN10DiagArray2ISt7complexIfEE6resizeEiiRKS1_@Base 3.4.3
 _ZN10DiagArray2ISt7complexIfEE7dgxelemEi@Base 3.4.3
 _ZN10DiagArray2ISt7complexIfEEC1ERK5ArrayIS1_E@Base 3.4.3
 _ZN10DiagArray2ISt7complexIfEEC1ERK5ArrayIS1_Eii@Base 3.4.3
 _ZN10DiagArray2ISt7complexIfEEC1ERKS2_@Base 3.4.3
 _ZN10DiagArray2ISt7complexIfEEC1Eii@Base 3.4.3
 _ZN10DiagArray2ISt7complexIfEEC1EiiRKS1_@Base 3.4.3
 _ZN10DiagArray2ISt7complexIfEEC1Ev@Base 3.4.3
 _ZN10DiagArray2ISt7complexIfEEC2ERK5ArrayIS1_E@Base 3.4.3
 _ZN10DiagArray2ISt7complexIfEEC2ERK5ArrayIS1_Eii@Base 3.4.3
 _ZN10DiagArray2ISt7complexIfEEC2ERKS2_@Base 3.4.3
 _ZN10DiagArray2ISt7complexIfEEC2Eii@Base 3.4.3
 _ZN10DiagArray2ISt7complexIfEEC2EiiRKS1_@Base 3.4.3
 _ZN10DiagArray2ISt7complexIfEEC2Ev@Base 3.4.3
 _ZN10DiagArray2ISt7complexIfEED1Ev@Base 3.4.3
 _ZN10DiagArray2ISt7complexIfEED2Ev@Base 3.4.3
 _ZN10DiagArray2ISt7complexIfEEaSERKS2_@Base 3.4.3
 _ZN10DiagArray2IbE11fortran_vecEv@Base 3.4.3
 _ZN10DiagArray2IbE4elemEii@Base 3.4.3
 _ZN10DiagArray2IbE6dgelemEi@Base 3.4.3
 _ZN10DiagArray2IbE6resizeEiiRKb@Base 3.4.3
 _ZN10DiagArray2IbE7dgxelemEi@Base 3.4.3
 _ZN10DiagArray2IbEC1ERK5ArrayIbE@Base 3.4.3
 _ZN10DiagArray2IbEC1ERK5ArrayIbEii@Base 3.4.3
 _ZN10DiagArray2IbEC1ERKS0_@Base 3.4.3
 _ZN10DiagArray2IbEC1Eii@Base 3.4.3
 _ZN10DiagArray2IbEC1EiiRKb@Base 3.4.3
 _ZN10DiagArray2IbEC1Ev@Base 3.4.3
 _ZN10DiagArray2IbEC2ERK5ArrayIbE@Base 3.4.3
 _ZN10DiagArray2IbEC2ERK5ArrayIbEii@Base 3.4.3
 _ZN10DiagArray2IbEC2ERKS0_@Base 3.4.3
 _ZN10DiagArray2IbEC2Eii@Base 3.4.3
 _ZN10DiagArray2IbEC2EiiRKb@Base 3.4.3
 _ZN10DiagArray2IbEC2Ev@Base 3.4.3
 _ZN10DiagArray2IbED1Ev@Base 3.4.3
 _ZN10DiagArray2IbED2Ev@Base 3.4.3
 _ZN10DiagArray2IbEaSERKS0_@Base 3.4.3
 _ZN10DiagArray2IcE11fortran_vecEv@Base 3.4.3
 _ZN10DiagArray2IcE4elemEii@Base 3.4.3
 _ZN10DiagArray2IcE6dgelemEi@Base 3.4.3
 _ZN10DiagArray2IcE6resizeEiiRKc@Base 3.4.3
 _ZN10DiagArray2IcE7dgxelemEi@Base 3.4.3
 _ZN10DiagArray2IcEC1ERK5ArrayIcE@Base 3.4.3
 _ZN10DiagArray2IcEC1ERK5ArrayIcEii@Base 3.4.3
 _ZN10DiagArray2IcEC1ERKS0_@Base 3.4.3
 _ZN10DiagArray2IcEC1Eii@Base 3.4.3
 _ZN10DiagArray2IcEC1EiiRKc@Base 3.4.3
 _ZN10DiagArray2IcEC1Ev@Base 3.4.3
 _ZN10DiagArray2IcEC2ERK5ArrayIcE@Base 3.4.3
 _ZN10DiagArray2IcEC2ERK5ArrayIcEii@Base 3.4.3
 _ZN10DiagArray2IcEC2ERKS0_@Base 3.4.3
 _ZN10DiagArray2IcEC2Eii@Base 3.4.3
 _ZN10DiagArray2IcEC2EiiRKc@Base 3.4.3
 _ZN10DiagArray2IcEC2Ev@Base 3.4.3
 _ZN10DiagArray2IcED1Ev@Base 3.4.3
 _ZN10DiagArray2IcED2Ev@Base 3.4.3
 _ZN10DiagArray2IcEaSERKS0_@Base 3.4.3
 _ZN10DiagArray2IdE11fortran_vecEv@Base 3.4.3
 _ZN10DiagArray2IdE4elemEii@Base 3.4.3
 _ZN10DiagArray2IdE6dgelemEi@Base 3.4.3
 _ZN10DiagArray2IdE6resizeEiiRKd@Base 3.4.3
 _ZN10DiagArray2IdE7dgxelemEi@Base 3.4.3
 _ZN10DiagArray2IdEC1ERK5ArrayIdE@Base 3.4.3
 _ZN10DiagArray2IdEC1ERK5ArrayIdEii@Base 3.4.3
 _ZN10DiagArray2IdEC1ERKS0_@Base 3.4.3
 _ZN10DiagArray2IdEC1Eii@Base 3.4.3
 _ZN10DiagArray2IdEC1EiiRKd@Base 3.4.3
 _ZN10DiagArray2IdEC1Ev@Base 3.4.3
 _ZN10DiagArray2IdEC2ERK5ArrayIdE@Base 3.4.3
 _ZN10DiagArray2IdEC2ERK5ArrayIdEii@Base 3.4.3
 _ZN10DiagArray2IdEC2ERKS0_@Base 3.4.3
 _ZN10DiagArray2IdEC2Eii@Base 3.4.3
 _ZN10DiagArray2IdEC2EiiRKd@Base 3.4.3
 _ZN10DiagArray2IdEC2Ev@Base 3.4.3
 _ZN10DiagArray2IdED1Ev@Base 3.4.3
 _ZN10DiagArray2IdED2Ev@Base 3.4.3
 _ZN10DiagArray2IdEaSERKS0_@Base 3.4.3
 _ZN10DiagArray2IfE11fortran_vecEv@Base 3.4.3
 _ZN10DiagArray2IfE4elemEii@Base 3.4.3
 _ZN10DiagArray2IfE6dgelemEi@Base 3.4.3
 _ZN10DiagArray2IfE6resizeEiiRKf@Base 3.4.3
 _ZN10DiagArray2IfE7dgxelemEi@Base 3.4.3
 _ZN10DiagArray2IfEC1ERK5ArrayIfE@Base 3.4.3
 _ZN10DiagArray2IfEC1ERK5ArrayIfEii@Base 3.4.3
 _ZN10DiagArray2IfEC1ERKS0_@Base 3.4.3
 _ZN10DiagArray2IfEC1Eii@Base 3.4.3
 _ZN10DiagArray2IfEC1EiiRKf@Base 3.4.3
 _ZN10DiagArray2IfEC1Ev@Base 3.4.3
 _ZN10DiagArray2IfEC2ERK5ArrayIfE@Base 3.4.3
 _ZN10DiagArray2IfEC2ERK5ArrayIfEii@Base 3.4.3
 _ZN10DiagArray2IfEC2ERKS0_@Base 3.4.3
 _ZN10DiagArray2IfEC2Eii@Base 3.4.3
 _ZN10DiagArray2IfEC2EiiRKf@Base 3.4.3
 _ZN10DiagArray2IfEC2Ev@Base 3.4.3
 _ZN10DiagArray2IfED1Ev@Base 3.4.3
 _ZN10DiagArray2IfED2Ev@Base 3.4.3
 _ZN10DiagArray2IfEaSERKS0_@Base 3.4.3
 _ZN10DiagArray2IiE11fortran_vecEv@Base 3.4.3
 _ZN10DiagArray2IiE4elemEii@Base 3.4.3
 _ZN10DiagArray2IiE6dgelemEi@Base 3.4.3
 _ZN10DiagArray2IiE6resizeEiiRKi@Base 3.4.3
 _ZN10DiagArray2IiE7dgxelemEi@Base 3.4.3
 _ZN10DiagArray2IiEC1ERK5ArrayIiE@Base 3.4.3
 _ZN10DiagArray2IiEC1ERK5ArrayIiEii@Base 3.4.3
 _ZN10DiagArray2IiEC1ERKS0_@Base 3.4.3
 _ZN10DiagArray2IiEC1Eii@Base 3.4.3
 _ZN10DiagArray2IiEC1EiiRKi@Base 3.4.3
 _ZN10DiagArray2IiEC1Ev@Base 3.4.3
 _ZN10DiagArray2IiEC2ERK5ArrayIiE@Base 3.4.3
 _ZN10DiagArray2IiEC2ERK5ArrayIiEii@Base 3.4.3
 _ZN10DiagArray2IiEC2ERKS0_@Base 3.4.3
 _ZN10DiagArray2IiEC2Eii@Base 3.4.3
 _ZN10DiagArray2IiEC2EiiRKi@Base 3.4.3
 _ZN10DiagArray2IiEC2Ev@Base 3.4.3
 _ZN10DiagArray2IiED1Ev@Base 3.4.3
 _ZN10DiagArray2IiED2Ev@Base 3.4.3
 _ZN10DiagArray2IiEaSERKS0_@Base 3.4.3
 _ZN10DiagArray2IsE11fortran_vecEv@Base 3.4.3
 _ZN10DiagArray2IsE4elemEii@Base 3.4.3
 _ZN10DiagArray2IsE6dgelemEi@Base 3.4.3
 _ZN10DiagArray2IsE6resizeEiiRKs@Base 3.4.3
 _ZN10DiagArray2IsE7dgxelemEi@Base 3.4.3
 _ZN10DiagArray2IsEC1ERK5ArrayIsE@Base 3.4.3
 _ZN10DiagArray2IsEC1ERK5ArrayIsEii@Base 3.4.3
 _ZN10DiagArray2IsEC1ERKS0_@Base 3.4.3
 _ZN10DiagArray2IsEC1Eii@Base 3.4.3
 _ZN10DiagArray2IsEC1EiiRKs@Base 3.4.3
 _ZN10DiagArray2IsEC1Ev@Base 3.4.3
 _ZN10DiagArray2IsEC2ERK5ArrayIsE@Base 3.4.3
 _ZN10DiagArray2IsEC2ERK5ArrayIsEii@Base 3.4.3
 _ZN10DiagArray2IsEC2ERKS0_@Base 3.4.3
 _ZN10DiagArray2IsEC2Eii@Base 3.4.3
 _ZN10DiagArray2IsEC2EiiRKs@Base 3.4.3
 _ZN10DiagArray2IsEC2Ev@Base 3.4.3
 _ZN10DiagArray2IsED1Ev@Base 3.4.3
 _ZN10DiagArray2IsED2Ev@Base 3.4.3
 _ZN10DiagArray2IsEaSERKS0_@Base 3.4.3
 _ZN10DiagMatrix4fillERK12ColumnVector@Base 3.4.3
 _ZN10DiagMatrix4fillERK12ColumnVectori@Base 3.4.3
 _ZN10DiagMatrix4fillERK9RowVector@Base 3.4.3
 _ZN10DiagMatrix4fillERK9RowVectori@Base 3.4.3
 _ZN10DiagMatrix4fillEd@Base 3.4.3
 _ZN10DiagMatrix4fillEdii@Base 3.4.3
 _ZN10FloatSCHUR4initERK11FloatMatrixRKSsb@Base 3.4.3
 _ZN10FloatSCHURC1ERK11FloatMatrixS2_@Base 3.4.3
 _ZN10FloatSCHURC2ERK11FloatMatrixS2_@Base 3.4.3
 _ZN10GEPBALANCE4initERK6MatrixS2_RKSs@Base 3.4.3
 _ZN10MatrixType16mark_as_permutedEiPKi@Base 3.4.3
 _ZN10MatrixType17mark_as_symmetricEv@Base 3.4.3
 _ZN10MatrixType18mark_as_unpermutedEv@Base 3.4.3
 _ZN10MatrixType19mark_as_unsymmetricEv@Base 3.4.3
 _ZN10MatrixType4typeERK11FloatMatrix@Base 3.4.3
 _ZN10MatrixType4typeERK12SparseMatrix@Base 3.4.3
 _ZN10MatrixType4typeERK13ComplexMatrix@Base 3.4.3
 _ZN10MatrixType4typeERK18FloatComplexMatrix@Base 3.4.3
 _ZN10MatrixType4typeERK19SparseComplexMatrix@Base 3.4.3
 _ZN10MatrixType4typeERK6Matrix@Base 3.4.3
 _ZN10MatrixType4typeEb@Base 3.4.3
 _ZN10MatrixTypeC1ENS_11matrix_typeEb@Base 3.4.3
 _ZN10MatrixTypeC1ENS_11matrix_typeEiPKib@Base 3.4.3
 _ZN10MatrixTypeC1ENS_11matrix_typeEiib@Base 3.4.3
 _ZN10MatrixTypeC1ERK11FloatMatrix@Base 3.4.3
 _ZN10MatrixTypeC1ERK12SparseMatrix@Base 3.4.3
 _ZN10MatrixTypeC1ERK13ComplexMatrix@Base 3.4.3
 _ZN10MatrixTypeC1ERK18FloatComplexMatrix@Base 3.4.3
 _ZN10MatrixTypeC1ERK19SparseComplexMatrix@Base 3.4.3
 _ZN10MatrixTypeC1ERK6Matrix@Base 3.4.3
 _ZN10MatrixTypeC1ERKS_@Base 3.4.3
 _ZN10MatrixTypeC1Ev@Base 3.4.3
 _ZN10MatrixTypeC2ENS_11matrix_typeEb@Base 3.4.3
 _ZN10MatrixTypeC2ENS_11matrix_typeEiPKib@Base 3.4.3
 _ZN10MatrixTypeC2ENS_11matrix_typeEiib@Base 3.4.3
 _ZN10MatrixTypeC2ERK11FloatMatrix@Base 3.4.3
 _ZN10MatrixTypeC2ERK12SparseMatrix@Base 3.4.3
 _ZN10MatrixTypeC2ERK13ComplexMatrix@Base 3.4.3
 _ZN10MatrixTypeC2ERK18FloatComplexMatrix@Base 3.4.3
 _ZN10MatrixTypeC2ERK19SparseComplexMatrix@Base 3.4.3
 _ZN10MatrixTypeC2ERK6Matrix@Base 3.4.3
 _ZN10MatrixTypeC2ERKS_@Base 3.4.3
 _ZN10MatrixTypeC2Ev@Base 3.4.3
 _ZN10MatrixTypeD1Ev@Base 3.4.3
 _ZN10MatrixTypeD2Ev@Base 3.4.3
 _ZN10MatrixTypeaSERKS_@Base 3.4.3
 _ZN10PermMatrix3eyeEi@Base 3.4.3
 _ZN10PermMatrixC1ERK10idx_vectorbi@Base 3.4.3
 _ZN10PermMatrixC1ERK5ArrayIiEbb@Base 3.4.3
 _ZN10PermMatrixC1Ei@Base 3.4.3
 _ZN10PermMatrixC2ERK10idx_vectorbi@Base 3.4.3
 _ZN10PermMatrixC2ERK5ArrayIiEbb@Base 3.4.3
 _ZN10PermMatrixC2Ei@Base 3.4.3
 _ZN10SparseCHOLD0Ev@Base 3.4.3
 _ZN10SparseCHOLD1Ev@Base 3.4.3
 _ZN10SparseCHOLD2Ev@Base 3.4.3
 _ZN10boolMatrix6insertERKS_ii@Base 3.4.3
 _ZN10boolMatrixC1ERK5ArrayIbE@Base 3.4.3
 _ZN10boolMatrixC2ERK5ArrayIbE@Base 3.4.3
 _ZN10boolMatrixD1Ev@Base 3.4.3
 _ZN10boolMatrixD2Ev@Base 3.4.3
 _ZN10charMatrix6insertEPKcii@Base 3.4.3
 _ZN10charMatrix6insertERKS_ii@Base 3.4.3
 _ZN10charMatrixC1EPKc@Base 3.4.3
 _ZN10charMatrixC1ERK13string_vector@Base 3.4.3
 _ZN10charMatrixC1ERKSs@Base 3.4.3
 _ZN10charMatrixC1Ec@Base 3.4.3
 _ZN10charMatrixC2EPKc@Base 3.4.3
 _ZN10charMatrixC2ERK13string_vector@Base 3.4.3
 _ZN10charMatrixC2ERKSs@Base 3.4.3
 _ZN10charMatrixC2Ec@Base 3.4.3
 _ZN10dim_vector19chop_all_singletonsEv@Base 3.4.3
 _ZN10dim_vector24chop_trailing_singletonsEv@Base 3.4.3
 _ZN10dim_vector5hvcatERKS_i@Base 3.4.3
 _ZN10dim_vector6concatERKS_i@Base 3.4.3
 _ZN10dim_vector6resizeEii@Base 3.4.3
 _ZN10dim_vector7dim_maxEv@Base 3.4.3
 _ZN10dim_vectorC1Eii@Base 3.4.3
 _ZN10dim_vectorC1Ev@Base 3.4.3
 _ZN10dim_vectorC2Eii@Base 3.4.3
 _ZN10dim_vectorC2Ev@Base 3.4.3
 _ZN10dim_vectorD1Ev@Base 3.4.3
 _ZN10dim_vectorD2Ev@Base 3.4.3
 _ZN10dim_vectoraSERKS_@Base 3.4.3
 _ZN10dim_vectorclEi@Base 3.4.3
 _ZN10file_fstat15update_internalEb@Base 3.4.3
 _ZN10idx_vector12idx_base_rep8as_arrayEv@Base 3.4.3
 _ZN10idx_vector12idx_base_repD0Ev@Base 3.4.3
 _ZN10idx_vector12idx_base_repD1Ev@Base 3.4.3
 _ZN10idx_vector12idx_base_repD2Ev@Base 3.4.3
 _ZN10idx_vector12idx_mask_rep15sort_uniq_cloneEb@Base 3.4.3
 _ZN10idx_vector12idx_mask_rep8as_arrayEv@Base 3.4.3
 _ZN10idx_vector12idx_mask_rep8sort_idxER5ArrayIiE@Base 3.4.3
 _ZN10idx_vector12idx_mask_rep9allocatorE@Base 3.4.3
 _ZN10idx_vector12idx_mask_repC1ERK5ArrayIbEi@Base 3.4.3
 _ZN10idx_vector12idx_mask_repC1Eb@Base 3.4.3
 _ZN10idx_vector12idx_mask_repC2ERK5ArrayIbEi@Base 3.4.3
 _ZN10idx_vector12idx_mask_repC2Eb@Base 3.4.3
 _ZN10idx_vector12idx_mask_repD0Ev@Base 3.4.3
 _ZN10idx_vector12idx_mask_repD1Ev@Base 3.4.3
 _ZN10idx_vector12idx_mask_repD2Ev@Base 3.4.3
 _ZN10idx_vector12maybe_reduceEiRKS_i@Base 3.4.3
 _ZN10idx_vector13idx_colon_rep15sort_uniq_cloneEb@Base 3.4.3
 _ZN10idx_vector13idx_colon_rep8sort_idxER5ArrayIiE@Base 3.4.3
 _ZN10idx_vector13idx_colon_rep9allocatorE@Base 3.4.3
 _ZN10idx_vector13idx_colon_repC1Ec@Base 3.4.3
 _ZN10idx_vector13idx_colon_repC2Ec@Base 3.4.3
 _ZN10idx_vector13idx_colon_repD0Ev@Base 3.4.3
 _ZN10idx_vector13idx_colon_repD1Ev@Base 3.4.3
 _ZN10idx_vector13idx_colon_repD2Ev@Base 3.4.3
 _ZN10idx_vector13idx_range_rep15sort_uniq_cloneEb@Base 3.4.3
 _ZN10idx_vector13idx_range_rep8as_arrayEv@Base 3.4.3
 _ZN10idx_vector13idx_range_rep8sort_idxER5ArrayIiE@Base 3.4.3
 _ZN10idx_vector13idx_range_rep9allocatorE@Base 3.4.3
 _ZN10idx_vector13idx_range_repC1ERK5Range@Base 3.4.3
 _ZN10idx_vector13idx_range_repC1Eiii@Base 3.4.3
 _ZN10idx_vector13idx_range_repC2ERK5Range@Base 3.4.3
 _ZN10idx_vector13idx_range_repC2Eiii@Base 3.4.3
 _ZN10idx_vector13idx_range_repD0Ev@Base 3.4.3
 _ZN10idx_vector13idx_range_repD1Ev@Base 3.4.3
 _ZN10idx_vector13idx_range_repD2Ev@Base 3.4.3
 _ZN10idx_vector14idx_scalar_rep15sort_uniq_cloneEb@Base 3.4.3
 _ZN10idx_vector14idx_scalar_rep8as_arrayEv@Base 3.4.3
 _ZN10idx_vector14idx_scalar_rep8sort_idxER5ArrayIiE@Base 3.4.3
 _ZN10idx_vector14idx_scalar_rep9allocatorE@Base 3.4.3
 _ZN10idx_vector14idx_scalar_repC1Ei@Base 3.4.3
 _ZN10idx_vector14idx_scalar_repC1I10octave_intIaEEET_@Base 3.4.3
 _ZN10idx_vector14idx_scalar_repC1I10octave_intIhEEET_@Base 3.4.3
 _ZN10idx_vector14idx_scalar_repC1I10octave_intIiEEET_@Base 3.4.3
 _ZN10idx_vector14idx_scalar_repC1I10octave_intIjEEET_@Base 3.4.3
 _ZN10idx_vector14idx_scalar_repC1I10octave_intIsEEET_@Base 3.4.3
 _ZN10idx_vector14idx_scalar_repC1I10octave_intItEEET_@Base 3.4.3
 _ZN10idx_vector14idx_scalar_repC1IdEET_@Base 3.4.3
 _ZN10idx_vector14idx_scalar_repC1IfEET_@Base 3.4.3
 _ZN10idx_vector14idx_scalar_repC2Ei@Base 3.4.3
 _ZN10idx_vector14idx_scalar_repC2I10octave_intIaEEET_@Base 3.4.3
 _ZN10idx_vector14idx_scalar_repC2I10octave_intIhEEET_@Base 3.4.3
 _ZN10idx_vector14idx_scalar_repC2I10octave_intIiEEET_@Base 3.4.3
 _ZN10idx_vector14idx_scalar_repC2I10octave_intIjEEET_@Base 3.4.3
 _ZN10idx_vector14idx_scalar_repC2I10octave_intIsEEET_@Base 3.4.3
 _ZN10idx_vector14idx_scalar_repC2I10octave_intItEEET_@Base 3.4.3
 _ZN10idx_vector14idx_scalar_repC2IdEET_@Base 3.4.3
 _ZN10idx_vector14idx_scalar_repC2IfEET_@Base 3.4.3
 _ZN10idx_vector14idx_scalar_repD0Ev@Base 3.4.3
 _ZN10idx_vector14idx_scalar_repD1Ev@Base 3.4.3
 _ZN10idx_vector14idx_scalar_repD2Ev@Base 3.4.3
 _ZN10idx_vector14idx_vector_rep15sort_uniq_cloneEb@Base 3.4.3
 _ZN10idx_vector14idx_vector_rep8as_arrayEv@Base 3.4.3
 _ZN10idx_vector14idx_vector_rep8sort_idxER5ArrayIiE@Base 3.4.3
 _ZN10idx_vector14idx_vector_rep9allocatorE@Base 3.4.3
 _ZN10idx_vector14idx_vector_repC1ERK5ArrayIbEi@Base 3.4.3
 _ZN10idx_vector14idx_vector_repC1ERK5ArrayIiE@Base 3.4.3
 _ZN10idx_vector14idx_vector_repC1ERK5ArrayIiEiNS_6directE@Base 3.4.3
 _ZN10idx_vector14idx_vector_repC1ERK6SparseIbE@Base 3.4.3
 _ZN10idx_vector14idx_vector_repC1Eb@Base 3.4.3
 _ZN10idx_vector14idx_vector_repC1I10octave_intIaEEERK5ArrayIT_E@Base 3.4.3
 _ZN10idx_vector14idx_vector_repC1I10octave_intIhEEERK5ArrayIT_E@Base 3.4.3
 _ZN10idx_vector14idx_vector_repC1I10octave_intIiEEERK5ArrayIT_E@Base 3.4.3
 _ZN10idx_vector14idx_vector_repC1I10octave_intIjEEERK5ArrayIT_E@Base 3.4.3
 _ZN10idx_vector14idx_vector_repC1I10octave_intIsEEERK5ArrayIT_E@Base 3.4.3
 _ZN10idx_vector14idx_vector_repC1I10octave_intItEEERK5ArrayIT_E@Base 3.4.3
 _ZN10idx_vector14idx_vector_repC1IdEERK5ArrayIT_E@Base 3.4.3
 _ZN10idx_vector14idx_vector_repC1IfEERK5ArrayIT_E@Base 3.4.3
 _ZN10idx_vector14idx_vector_repC2ERK5ArrayIbEi@Base 3.4.3
 _ZN10idx_vector14idx_vector_repC2ERK5ArrayIiE@Base 3.4.3
 _ZN10idx_vector14idx_vector_repC2ERK5ArrayIiEiNS_6directE@Base 3.4.3
 _ZN10idx_vector14idx_vector_repC2ERK6SparseIbE@Base 3.4.3
 _ZN10idx_vector14idx_vector_repC2Eb@Base 3.4.3
 _ZN10idx_vector14idx_vector_repC2I10octave_intIaEEERK5ArrayIT_E@Base 3.4.3
 _ZN10idx_vector14idx_vector_repC2I10octave_intIhEEERK5ArrayIT_E@Base 3.4.3
 _ZN10idx_vector14idx_vector_repC2I10octave_intIiEEERK5ArrayIT_E@Base 3.4.3
 _ZN10idx_vector14idx_vector_repC2I10octave_intIjEEERK5ArrayIT_E@Base 3.4.3
 _ZN10idx_vector14idx_vector_repC2I10octave_intIsEEERK5ArrayIT_E@Base 3.4.3
 _ZN10idx_vector14idx_vector_repC2I10octave_intItEEERK5ArrayIT_E@Base 3.4.3
 _ZN10idx_vector14idx_vector_repC2IdEERK5ArrayIT_E@Base 3.4.3
 _ZN10idx_vector14idx_vector_repC2IfEERK5ArrayIT_E@Base 3.4.3
 _ZN10idx_vector14idx_vector_repD0Ev@Base 3.4.3
 _ZN10idx_vector14idx_vector_repD1Ev@Base 3.4.3
 _ZN10idx_vector14idx_vector_repD2Ev@Base 3.4.3
 _ZN10idx_vector3rawEv@Base 3.4.3
 _ZN10idx_vector5colonE@Base 3.4.3
# not part of API (private function)
 (c++|optional=notPartOfAPI)"idx_vector::chkerr()@Base" 3.4.3
 _ZN10idx_vector6freezeEiPKcb@Base 3.4.3
# inline method in the header file idx-vector.h => always available!
 (c++|optional=inlineMethod)"idx_vector::nil_rep()@Base" 3.4.3
 _ZN10idx_vectorC1ERK5ArrayIbE@Base 3.4.3
 _ZN10idx_vectorC1Eiii@Base 3.4.3
# inline method in the header file idx-vector.h => always available!
 (c++|optional=inlineMethod)"idx_vector::idx_vector()@Base" 3.4.3
 _ZN10idx_vectorC2ERK5ArrayIbE@Base 3.4.3
 _ZN10idx_vectorC2Eiii@Base 3.4.3
 _ZN10idx_vectorD1Ev@Base 3.4.3
 _ZN10idx_vectorD2Ev@Base 3.4.3
 _ZN10idx_vectoraSERKS_@Base 3.4.3
 _ZN10intNDArrayI10octave_intIaEE10changesignEv@Base 3.4.3
 _ZN10intNDArrayI10octave_intIaEE13compute_indexER5ArrayIiERK10dim_vector@Base 3.4.3
 _ZN10intNDArrayI10octave_intIaEE15increment_indexER5ArrayIiERK10dim_vectori@Base 3.4.3
 _ZN10intNDArrayI10octave_intIaEE17resize_fill_valueEv@Base 3.4.3
 _ZN10intNDArrayI10octave_intIaEE6concatERKS2_RK5ArrayIiE@Base 3.4.3
 _ZN10intNDArrayI10octave_intIaEE6insertERKS2_RK5ArrayIiE@Base 3.4.3
 _ZN10intNDArrayI10octave_intIaEE6insertERKS2_ii@Base 3.4.3
 _ZN10intNDArrayI10octave_intIaEEC1ERK10dim_vector@Base 3.4.3
 _ZN10intNDArrayI10octave_intIaEEC1ERK10dim_vectorS1_@Base 3.4.3
 _ZN10intNDArrayI10octave_intIaEEC1ES1_@Base 3.4.3
 _ZN10intNDArrayI10octave_intIaEEC1Ev@Base 3.4.3
 _ZN10intNDArrayI10octave_intIaEEC2ERK10dim_vector@Base 3.4.3
 _ZN10intNDArrayI10octave_intIaEEC2ERK10dim_vectorS1_@Base 3.4.3
 _ZN10intNDArrayI10octave_intIaEEC2ES1_@Base 3.4.3
 _ZN10intNDArrayI10octave_intIaEEC2Ev@Base 3.4.3
 _ZN10intNDArrayI10octave_intIaEEaSERKS2_@Base 3.4.3
 _ZN10intNDArrayI10octave_intIhEE10changesignEv@Base 3.4.3
 _ZN10intNDArrayI10octave_intIhEE13compute_indexER5ArrayIiERK10dim_vector@Base 3.4.3
 _ZN10intNDArrayI10octave_intIhEE15increment_indexER5ArrayIiERK10dim_vectori@Base 3.4.3
 _ZN10intNDArrayI10octave_intIhEE17resize_fill_valueEv@Base 3.4.3
 _ZN10intNDArrayI10octave_intIhEE6concatERKS2_RK5ArrayIiE@Base 3.4.3
 _ZN10intNDArrayI10octave_intIhEE6insertERKS2_RK5ArrayIiE@Base 3.4.3
 _ZN10intNDArrayI10octave_intIhEE6insertERKS2_ii@Base 3.4.3
 _ZN10intNDArrayI10octave_intIhEEC1ERK10dim_vector@Base 3.4.3
 _ZN10intNDArrayI10octave_intIhEEC1ERK10dim_vectorS1_@Base 3.4.3
 _ZN10intNDArrayI10octave_intIhEEC1ES1_@Base 3.4.3
 _ZN10intNDArrayI10octave_intIhEEC1Ev@Base 3.4.3
 _ZN10intNDArrayI10octave_intIhEEC2ERK10dim_vector@Base 3.4.3
 _ZN10intNDArrayI10octave_intIhEEC2ERK10dim_vectorS1_@Base 3.4.3
 _ZN10intNDArrayI10octave_intIhEEC2ES1_@Base 3.4.3
 _ZN10intNDArrayI10octave_intIhEEC2Ev@Base 3.4.3
 _ZN10intNDArrayI10octave_intIhEEaSERKS2_@Base 3.4.3
 _ZN10intNDArrayI10octave_intIiEE10changesignEv@Base 3.4.3
 _ZN10intNDArrayI10octave_intIiEE13compute_indexER5ArrayIiERK10dim_vector@Base 3.4.3
 _ZN10intNDArrayI10octave_intIiEE15increment_indexER5ArrayIiERK10dim_vectori@Base 3.4.3
 _ZN10intNDArrayI10octave_intIiEE17resize_fill_valueEv@Base 3.4.3
 _ZN10intNDArrayI10octave_intIiEE6concatERKS2_RK5ArrayIiE@Base 3.4.3
 _ZN10intNDArrayI10octave_intIiEE6insertERKS2_RK5ArrayIiE@Base 3.4.3
 _ZN10intNDArrayI10octave_intIiEE6insertERKS2_ii@Base 3.4.3
 _ZN10intNDArrayI10octave_intIiEEC1ERK10dim_vector@Base 3.4.3
 _ZN10intNDArrayI10octave_intIiEEC1ERK10dim_vectorS1_@Base 3.4.3
 _ZN10intNDArrayI10octave_intIiEEC1ES1_@Base 3.4.3
 _ZN10intNDArrayI10octave_intIiEEC1Ev@Base 3.4.3
 _ZN10intNDArrayI10octave_intIiEEC2ERK10dim_vector@Base 3.4.3
 _ZN10intNDArrayI10octave_intIiEEC2ERK10dim_vectorS1_@Base 3.4.3
 _ZN10intNDArrayI10octave_intIiEEC2ES1_@Base 3.4.3
 _ZN10intNDArrayI10octave_intIiEEC2Ev@Base 3.4.3
 _ZN10intNDArrayI10octave_intIiEEaSERKS2_@Base 3.4.3
 _ZN10intNDArrayI10octave_intIjEE10changesignEv@Base 3.4.3
 _ZN10intNDArrayI10octave_intIjEE13compute_indexER5ArrayIiERK10dim_vector@Base 3.4.3
 _ZN10intNDArrayI10octave_intIjEE15increment_indexER5ArrayIiERK10dim_vectori@Base 3.4.3
 _ZN10intNDArrayI10octave_intIjEE17resize_fill_valueEv@Base 3.4.3
 _ZN10intNDArrayI10octave_intIjEE6concatERKS2_RK5ArrayIiE@Base 3.4.3
 _ZN10intNDArrayI10octave_intIjEE6insertERKS2_RK5ArrayIiE@Base 3.4.3
 _ZN10intNDArrayI10octave_intIjEE6insertERKS2_ii@Base 3.4.3
 _ZN10intNDArrayI10octave_intIjEEC1ERK10dim_vector@Base 3.4.3
 _ZN10intNDArrayI10octave_intIjEEC1ERK10dim_vectorS1_@Base 3.4.3
 _ZN10intNDArrayI10octave_intIjEEC1ES1_@Base 3.4.3
 _ZN10intNDArrayI10octave_intIjEEC1Ev@Base 3.4.3
 _ZN10intNDArrayI10octave_intIjEEC2ERK10dim_vector@Base 3.4.3
 _ZN10intNDArrayI10octave_intIjEEC2ERK10dim_vectorS1_@Base 3.4.3
 _ZN10intNDArrayI10octave_intIjEEC2ES1_@Base 3.4.3
 _ZN10intNDArrayI10octave_intIjEEC2Ev@Base 3.4.3
 _ZN10intNDArrayI10octave_intIjEEaSERKS2_@Base 3.4.3
 _ZN10intNDArrayI10octave_intIsEE10changesignEv@Base 3.4.3
 _ZN10intNDArrayI10octave_intIsEE13compute_indexER5ArrayIiERK10dim_vector@Base 3.4.3
 _ZN10intNDArrayI10octave_intIsEE15increment_indexER5ArrayIiERK10dim_vectori@Base 3.4.3
 _ZN10intNDArrayI10octave_intIsEE17resize_fill_valueEv@Base 3.4.3
 _ZN10intNDArrayI10octave_intIsEE6concatERKS2_RK5ArrayIiE@Base 3.4.3
 _ZN10intNDArrayI10octave_intIsEE6insertERKS2_RK5ArrayIiE@Base 3.4.3
 _ZN10intNDArrayI10octave_intIsEE6insertERKS2_ii@Base 3.4.3
 _ZN10intNDArrayI10octave_intIsEEC1ERK10dim_vector@Base 3.4.3
 _ZN10intNDArrayI10octave_intIsEEC1ERK10dim_vectorS1_@Base 3.4.3
 _ZN10intNDArrayI10octave_intIsEEC1ES1_@Base 3.4.3
 _ZN10intNDArrayI10octave_intIsEEC1Ev@Base 3.4.3
 _ZN10intNDArrayI10octave_intIsEEC2ERK10dim_vector@Base 3.4.3
 _ZN10intNDArrayI10octave_intIsEEC2ERK10dim_vectorS1_@Base 3.4.3
 _ZN10intNDArrayI10octave_intIsEEC2ES1_@Base 3.4.3
 _ZN10intNDArrayI10octave_intIsEEC2Ev@Base 3.4.3
 _ZN10intNDArrayI10octave_intIsEEaSERKS2_@Base 3.4.3
 _ZN10intNDArrayI10octave_intItEE10changesignEv@Base 3.4.3
 _ZN10intNDArrayI10octave_intItEE13compute_indexER5ArrayIiERK10dim_vector@Base 3.4.3
 _ZN10intNDArrayI10octave_intItEE15increment_indexER5ArrayIiERK10dim_vectori@Base 3.4.3
 _ZN10intNDArrayI10octave_intItEE17resize_fill_valueEv@Base 3.4.3
 _ZN10intNDArrayI10octave_intItEE6concatERKS2_RK5ArrayIiE@Base 3.4.3
 _ZN10intNDArrayI10octave_intItEE6insertERKS2_RK5ArrayIiE@Base 3.4.3
 _ZN10intNDArrayI10octave_intItEE6insertERKS2_ii@Base 3.4.3
 _ZN10intNDArrayI10octave_intItEEC1ERK10dim_vector@Base 3.4.3
 _ZN10intNDArrayI10octave_intItEEC1ERK10dim_vectorS1_@Base 3.4.3
 _ZN10intNDArrayI10octave_intItEEC1ES1_@Base 3.4.3
 _ZN10intNDArrayI10octave_intItEEC1Ev@Base 3.4.3
 _ZN10intNDArrayI10octave_intItEEC2ERK10dim_vector@Base 3.4.3
 _ZN10intNDArrayI10octave_intItEEC2ERK10dim_vectorS1_@Base 3.4.3
 _ZN10intNDArrayI10octave_intItEEC2ES1_@Base 3.4.3
 _ZN10intNDArrayI10octave_intItEEC2Ev@Base 3.4.3
 _ZN10intNDArrayI10octave_intItEEaSERKS2_@Base 3.4.3
 _ZN10octave_env11instance_okEv@Base 3.4.3
 _ZN10octave_env13base_pathnameERKSs@Base 3.4.3
 _ZN10octave_env13get_host_nameEv@Base 3.4.3
 _ZN10octave_env13get_user_nameEv@Base 3.4.3
 _ZN10octave_env13make_absoluteERKSsS1_@Base 3.4.3
 _ZN10octave_env16get_program_nameEv@Base 3.4.3
 _ZN10octave_env16have_x11_displayEv@Base 3.4.3
 _ZN10octave_env16set_program_nameERKSs@Base 3.4.3
 _ZN10octave_env17absolute_pathnameERKSs@Base 3.4.3
 _ZN10octave_env18get_home_directoryEv@Base 3.4.3
 _ZN10octave_env21get_current_directoryEv@Base 3.4.3
 _ZN10octave_env23polite_directory_formatERKSs@Base 3.4.3
 _ZN10octave_env24rooted_relative_pathnameERKSs@Base 3.4.3
 _ZN10octave_env27get_program_invocation_nameEv@Base 3.4.3
 _ZN10octave_env5chdirERKSs@Base 3.4.3
 _ZN10octave_env6getenvERKSs@Base 3.4.3
 _ZN10octave_env6putenvERKSsS1_@Base 3.4.3
 _ZN10octave_env8do_chdirERKSs@Base 3.4.3
 _ZN10octave_env8instanceE@Base 3.4.3
 _ZN10octave_envC1Ev@Base 3.4.3
 _ZN10octave_envC2Ev@Base 3.4.3
# template instantiation
 (c++|regex|optional=templateInstantiation)"octave_int<.*>::.*@Base" 3.4.3
 _ZN11ComplexCHOL10delete_symEi@Base 3.4.3
 _ZN11ComplexCHOL10insert_symERK19ComplexColumnVectori@Base 3.4.3
 _ZN11ComplexCHOL3setERK13ComplexMatrix@Base 3.4.3
 _ZN11ComplexCHOL4initERK13ComplexMatrixb@Base 3.4.3
 _ZN11ComplexCHOL6updateERK19ComplexColumnVector@Base 3.4.3
 _ZN11ComplexCHOL8downdateERK19ComplexColumnVector@Base 3.4.3
 _ZN11ComplexCHOL9shift_symEii@Base 3.4.3
 _ZN11ComplexHESS4initERK13ComplexMatrix@Base 3.4.3
 _ZN11FloatMatrix4fillEf@Base 3.4.3
 _ZN11FloatMatrix4fillEfiiii@Base 3.4.3
 _ZN11FloatMatrix6insertERK14FloatRowVectorii@Base 3.4.3
 _ZN11FloatMatrix6insertERK15FloatDiagMatrixii@Base 3.4.3
 _ZN11FloatMatrix6insertERK17FloatColumnVectorii@Base 3.4.3
 _ZN11FloatMatrix6insertERKS_ii@Base 3.4.3
# inline method in the header file fMatrix.h => always available!
 (c++|regex|optional=inlineMethod)"^FloatMatrix::resize\(.*\)@Base" 3.4.3
 _ZN11FloatMatrixC1ERK10PermMatrix@Base 3.4.3
 _ZN11FloatMatrixC1ERK10boolMatrix@Base 3.4.3
 _ZN11FloatMatrixC1ERK10charMatrix@Base 3.4.3
 _ZN11FloatMatrixC1ERK14FloatRowVector@Base 3.4.3
 _ZN11FloatMatrixC1ERK15FloatDiagMatrix@Base 3.4.3
 _ZN11FloatMatrixC1ERK17FloatColumnVector@Base 3.4.3
# template instantiation
 (c++|regex|optional=templateInstantiation)"FloatMatrix::FloatMatrix<.*@Base" 3.4.3
 _ZN11FloatMatrixC2ERK10PermMatrix@Base 3.4.3
 _ZN11FloatMatrixC2ERK10boolMatrix@Base 3.4.3
 _ZN11FloatMatrixC2ERK10charMatrix@Base 3.4.3
 _ZN11FloatMatrixC2ERK14FloatRowVector@Base 3.4.3
 _ZN11FloatMatrixC2ERK15FloatDiagMatrix@Base 3.4.3
 _ZN11FloatMatrixC2ERK17FloatColumnVector@Base 3.4.3
 _ZN11FloatMatrixD1Ev@Base 3.4.3
 _ZN11FloatMatrixD2Ev@Base 3.4.3
 _ZN11FloatMatrixmIERK15FloatDiagMatrix@Base 3.4.3
 _ZN11FloatMatrixpLERK15FloatDiagMatrix@Base 3.4.3
 _ZN11MDiagArray2ISt7complexIdEEC1ERK10DiagArray2IS1_E@Base 3.4.3
 _ZN11MDiagArray2ISt7complexIdEEC1ERK5ArrayIS1_E@Base 3.4.3
 _ZN11MDiagArray2ISt7complexIdEEC1ERK5ArrayIS1_Eii@Base 3.4.3
 _ZN11MDiagArray2ISt7complexIdEEC1ERKS2_@Base 3.4.3
 _ZN11MDiagArray2ISt7complexIdEEC1Eii@Base 3.4.3
 _ZN11MDiagArray2ISt7complexIdEEC1EiiRKS1_@Base 3.4.3
 _ZN11MDiagArray2ISt7complexIdEEC1Ev@Base 3.4.3
 _ZN11MDiagArray2ISt7complexIdEEC2ERK10DiagArray2IS1_E@Base 3.4.3
 _ZN11MDiagArray2ISt7complexIdEEC2ERK5ArrayIS1_E@Base 3.4.3
 _ZN11MDiagArray2ISt7complexIdEEC2ERK5ArrayIS1_Eii@Base 3.4.3
 _ZN11MDiagArray2ISt7complexIdEEC2ERKS2_@Base 3.4.3
 _ZN11MDiagArray2ISt7complexIdEEC2Eii@Base 3.4.3
 _ZN11MDiagArray2ISt7complexIdEEC2EiiRKS1_@Base 3.4.3
 _ZN11MDiagArray2ISt7complexIdEEC2Ev@Base 3.4.3
 _ZN11MDiagArray2ISt7complexIdEED1Ev@Base 3.4.3
 _ZN11MDiagArray2ISt7complexIdEED2Ev@Base 3.4.3
 _ZN11MDiagArray2ISt7complexIdEEaSERKS2_@Base 3.4.3
 _ZN11MDiagArray2ISt7complexIfEEC1ERK10DiagArray2IS1_E@Base 3.4.3
 _ZN11MDiagArray2ISt7complexIfEEC1ERK5ArrayIS1_E@Base 3.4.3
 _ZN11MDiagArray2ISt7complexIfEEC1ERK5ArrayIS1_Eii@Base 3.4.3
 _ZN11MDiagArray2ISt7complexIfEEC1ERKS2_@Base 3.4.3
 _ZN11MDiagArray2ISt7complexIfEEC1Eii@Base 3.4.3
 _ZN11MDiagArray2ISt7complexIfEEC1EiiRKS1_@Base 3.4.3
 _ZN11MDiagArray2ISt7complexIfEEC1Ev@Base 3.4.3
 _ZN11MDiagArray2ISt7complexIfEEC2ERK10DiagArray2IS1_E@Base 3.4.3
 _ZN11MDiagArray2ISt7complexIfEEC2ERK5ArrayIS1_E@Base 3.4.3
 _ZN11MDiagArray2ISt7complexIfEEC2ERK5ArrayIS1_Eii@Base 3.4.3
 _ZN11MDiagArray2ISt7complexIfEEC2ERKS2_@Base 3.4.3
 _ZN11MDiagArray2ISt7complexIfEEC2Eii@Base 3.4.3
 _ZN11MDiagArray2ISt7complexIfEEC2EiiRKS1_@Base 3.4.3
 _ZN11MDiagArray2ISt7complexIfEEC2Ev@Base 3.4.3
 _ZN11MDiagArray2ISt7complexIfEED1Ev@Base 3.4.3
 _ZN11MDiagArray2ISt7complexIfEED2Ev@Base 3.4.3
 _ZN11MDiagArray2ISt7complexIfEEaSERKS2_@Base 3.4.3
 _ZN11MDiagArray2IdEC1ERK10DiagArray2IdE@Base 3.4.3
 _ZN11MDiagArray2IdEC1ERK5ArrayIdE@Base 3.4.3
 _ZN11MDiagArray2IdEC1ERK5ArrayIdEii@Base 3.4.3
 _ZN11MDiagArray2IdEC1ERKS0_@Base 3.4.3
 _ZN11MDiagArray2IdEC1Eii@Base 3.4.3
 _ZN11MDiagArray2IdEC1EiiRKd@Base 3.4.3
 _ZN11MDiagArray2IdEC1Ev@Base 3.4.3
 _ZN11MDiagArray2IdEC2ERK10DiagArray2IdE@Base 3.4.3
 _ZN11MDiagArray2IdEC2ERK5ArrayIdE@Base 3.4.3
 _ZN11MDiagArray2IdEC2ERK5ArrayIdEii@Base 3.4.3
 _ZN11MDiagArray2IdEC2ERKS0_@Base 3.4.3
 _ZN11MDiagArray2IdEC2Eii@Base 3.4.3
 _ZN11MDiagArray2IdEC2EiiRKd@Base 3.4.3
 _ZN11MDiagArray2IdEC2Ev@Base 3.4.3
 _ZN11MDiagArray2IdED1Ev@Base 3.4.3
 _ZN11MDiagArray2IdED2Ev@Base 3.4.3
 _ZN11MDiagArray2IdEaSERKS0_@Base 3.4.3
 _ZN11MDiagArray2IfEC1ERK10DiagArray2IfE@Base 3.4.3
 _ZN11MDiagArray2IfEC1ERK5ArrayIfE@Base 3.4.3
 _ZN11MDiagArray2IfEC1ERK5ArrayIfEii@Base 3.4.3
 _ZN11MDiagArray2IfEC1ERKS0_@Base 3.4.3
 _ZN11MDiagArray2IfEC1Eii@Base 3.4.3
 _ZN11MDiagArray2IfEC1EiiRKf@Base 3.4.3
 _ZN11MDiagArray2IfEC1Ev@Base 3.4.3
 _ZN11MDiagArray2IfEC2ERK10DiagArray2IfE@Base 3.4.3
 _ZN11MDiagArray2IfEC2ERK5ArrayIfE@Base 3.4.3
 _ZN11MDiagArray2IfEC2ERK5ArrayIfEii@Base 3.4.3
 _ZN11MDiagArray2IfEC2ERKS0_@Base 3.4.3
 _ZN11MDiagArray2IfEC2Eii@Base 3.4.3
 _ZN11MDiagArray2IfEC2EiiRKf@Base 3.4.3
 _ZN11MDiagArray2IfEC2Ev@Base 3.4.3
 _ZN11MDiagArray2IfED1Ev@Base 3.4.3
 _ZN11MDiagArray2IfED2Ev@Base 3.4.3
 _ZN11MDiagArray2IfEaSERKS0_@Base 3.4.3
 _ZN11MDiagArray2IiEC1ERK10DiagArray2IiE@Base 3.4.3
 _ZN11MDiagArray2IiEC1ERK5ArrayIiE@Base 3.4.3
 _ZN11MDiagArray2IiEC1ERK5ArrayIiEii@Base 3.4.3
 _ZN11MDiagArray2IiEC1ERKS0_@Base 3.4.3
 _ZN11MDiagArray2IiEC1Eii@Base 3.4.3
 _ZN11MDiagArray2IiEC1EiiRKi@Base 3.4.3
 _ZN11MDiagArray2IiEC1Ev@Base 3.4.3
 _ZN11MDiagArray2IiEC2ERK10DiagArray2IiE@Base 3.4.3
 _ZN11MDiagArray2IiEC2ERK5ArrayIiE@Base 3.4.3
 _ZN11MDiagArray2IiEC2ERK5ArrayIiEii@Base 3.4.3
 _ZN11MDiagArray2IiEC2ERKS0_@Base 3.4.3
 _ZN11MDiagArray2IiEC2Eii@Base 3.4.3
 _ZN11MDiagArray2IiEC2EiiRKi@Base 3.4.3
 _ZN11MDiagArray2IiEC2Ev@Base 3.4.3
 _ZN11MDiagArray2IiED1Ev@Base 3.4.3
 _ZN11MDiagArray2IiED2Ev@Base 3.4.3
 _ZN11MDiagArray2IiEaSERKS0_@Base 3.4.3
 _ZN11MDiagArray2IsEC1ERK10DiagArray2IsE@Base 3.4.3
 _ZN11MDiagArray2IsEC1ERK5ArrayIsE@Base 3.4.3
 _ZN11MDiagArray2IsEC1ERK5ArrayIsEii@Base 3.4.3
 _ZN11MDiagArray2IsEC1ERKS0_@Base 3.4.3
 _ZN11MDiagArray2IsEC1Eii@Base 3.4.3
 _ZN11MDiagArray2IsEC1EiiRKs@Base 3.4.3
 _ZN11MDiagArray2IsEC1Ev@Base 3.4.3
 _ZN11MDiagArray2IsEC2ERK10DiagArray2IsE@Base 3.4.3
 _ZN11MDiagArray2IsEC2ERK5ArrayIsE@Base 3.4.3
 _ZN11MDiagArray2IsEC2ERK5ArrayIsEii@Base 3.4.3
 _ZN11MDiagArray2IsEC2ERKS0_@Base 3.4.3
 _ZN11MDiagArray2IsEC2Eii@Base 3.4.3
 _ZN11MDiagArray2IsEC2EiiRKs@Base 3.4.3
 _ZN11MDiagArray2IsEC2Ev@Base 3.4.3
 _ZN11MDiagArray2IsED1Ev@Base 3.4.3
 _ZN11MDiagArray2IsED2Ev@Base 3.4.3
 _ZN11MDiagArray2IsEaSERKS0_@Base 3.4.3
 _ZN11base_aepbalI11FloatMatrix17FloatColumnVectorED0Ev@Base 3.4.3
 _ZN11base_aepbalI11FloatMatrix17FloatColumnVectorED1Ev@Base 3.4.3
 _ZN11base_aepbalI11FloatMatrix17FloatColumnVectorED2Ev@Base 3.4.3
 _ZN11base_aepbalI13ComplexMatrix12ColumnVectorED0Ev@Base 3.4.3
 _ZN11base_aepbalI13ComplexMatrix12ColumnVectorED1Ev@Base 3.4.3
 _ZN11base_aepbalI13ComplexMatrix12ColumnVectorED2Ev@Base 3.4.3
 _ZN11base_aepbalI18FloatComplexMatrix17FloatColumnVectorED0Ev@Base 3.4.3
 _ZN11base_aepbalI18FloatComplexMatrix17FloatColumnVectorED1Ev@Base 3.4.3
 _ZN11base_aepbalI18FloatComplexMatrix17FloatColumnVectorED2Ev@Base 3.4.3
 _ZN11base_aepbalI6Matrix12ColumnVectorED0Ev@Base 3.4.3
 _ZN11base_aepbalI6Matrix12ColumnVectorED1Ev@Base 3.4.3
 _ZN11base_aepbalI6Matrix12ColumnVectorED2Ev@Base 3.4.3
 _ZN11boolNDArray13compute_indexER5ArrayIiERK10dim_vector@Base 3.4.3
 _ZN11boolNDArray15increment_indexER5ArrayIiERK10dim_vectori@Base 3.4.3
 _ZN11boolNDArray6concatERKS_RK5ArrayIiE@Base 3.4.3
 _ZN11boolNDArray6insertERKS_RK5ArrayIiE@Base 3.4.3
 _ZN11boolNDArray6insertERKS_ii@Base 3.4.3
 _ZN11boolNDArray6invertEv@Base 3.4.3
 _ZN11charNDArray13compute_indexER5ArrayIiERK10dim_vector@Base 3.4.3
 _ZN11charNDArray15increment_indexER5ArrayIiERK10dim_vectori@Base 3.4.3
 _ZN11charNDArray6concatERK7NDArrayRK5ArrayIiE@Base 3.4.3
 _ZN11charNDArray6concatERKS_RK5ArrayIiE@Base 3.4.3
 _ZN11charNDArray6insertERKS_RK5ArrayIiE@Base 3.4.3
 _ZN11charNDArray6insertERKS_ii@Base 3.4.3
 _ZN11gnu_history11do_set_markEi@Base 3.4.3
 _ZN11gnu_history11do_unstifleEv@Base 3.4.3
 _ZN11gnu_history12do_goto_markEv@Base 3.4.3
 _ZN11gnu_history13do_read_rangeERKSsiib@Base 3.4.3
 _ZN11gnu_history16do_replace_entryEiRKSs@Base 3.4.3
 _ZN11gnu_history20do_clean_up_and_saveERKSsi@Base 3.4.3
 _ZN11gnu_history22do_process_histcontrolERKSs@Base 3.4.3
 _ZN11gnu_history6do_addERKSs@Base 3.4.3
 _ZN11gnu_history7do_readERKSsb@Base 3.4.3
 _ZN11gnu_history9do_appendERKSs@Base 3.4.3
 _ZN11gnu_history9do_removeEi@Base 3.4.3
 _ZN11gnu_history9do_stifleEi@Base 3.4.3
 _ZN11gnu_historyD0Ev@Base 3.4.3
 _ZN11gnu_historyD1Ev@Base 3.4.3
 _ZN11gnu_historyD2Ev@Base 3.4.3
 _ZN11octave_fftw5fftNdEPKSt7complexIdEPS1_iRK10dim_vector@Base 3.4.3
 _ZN11octave_fftw5fftNdEPKSt7complexIfEPS1_iRK10dim_vector@Base 3.4.3
 _ZN11octave_fftw5fftNdEPKdPSt7complexIdEiRK10dim_vector@Base 3.4.3
 _ZN11octave_fftw5fftNdEPKfPSt7complexIfEiRK10dim_vector@Base 3.4.3
 _ZN11octave_fftw6ifftNdEPKSt7complexIdEPS1_iRK10dim_vector@Base 3.4.3
 _ZN11octave_fftw6ifftNdEPKSt7complexIfEPS1_iRK10dim_vector@Base 3.4.3
 _ZN11octave_rand10save_stateEv@Base 3.4.3
 _ZN11octave_rand11do_nd_arrayERK10dim_vectord@Base 3.4.3
 _ZN11octave_rand11get_dist_idERKSs@Base 3.4.3
 _ZN11octave_rand11instance_okEv@Base 3.4.3
 _ZN11octave_rand15do_distributionERKSs@Base 3.4.3
 _ZN11octave_rand15do_distributionEv@Base 3.4.3
 _ZN11octave_rand18get_internal_stateEv@Base 3.4.3
 _ZN11octave_rand18set_internal_stateERK12ColumnVector@Base 3.4.3
 _ZN11octave_rand19switch_to_generatorEi@Base 3.4.3
 _ZN11octave_rand21do_gamma_distributionEv@Base 3.4.3
 _ZN11octave_rand22do_normal_distributionEv@Base 3.4.3
 _ZN11octave_rand23do_poisson_distributionEv@Base 3.4.3
 _ZN11octave_rand23do_uniform_distributionEv@Base 3.4.3
 _ZN11octave_rand27do_exponential_distributionEv@Base 3.4.3
 _ZN11octave_rand27initialize_mersenne_twisterEv@Base 3.4.3
 _ZN11octave_rand28initialize_ranlib_generatorsEv@Base 3.4.3
 _ZN11octave_rand4fillEiPdd@Base 3.4.3
 _ZN11octave_rand7do_seedEd@Base 3.4.3
 _ZN11octave_rand7do_seedEv@Base 3.4.3
 _ZN11octave_rand8do_resetERKSs@Base 3.4.3
 _ZN11octave_rand8do_resetEv@Base 3.4.3
 _ZN11octave_rand8do_stateERK12ColumnVectorRKSs@Base 3.4.3
 _ZN11octave_rand8do_stateERKSs@Base 3.4.3
 _ZN11octave_rand8instanceE@Base 3.4.3
 _ZN11octave_rand9do_matrixEiid@Base 3.4.3
 _ZN11octave_rand9do_scalarEd@Base 3.4.3
 _ZN11octave_rand9do_vectorEid@Base 3.4.3
 _ZN11octave_randC1Ev@Base 3.4.3
 _ZN11octave_randC2Ev@Base 3.4.3
 _ZN11octave_sortI10octave_intIaEE10MergeState5resetEv@Base 3.4.3
 _ZN11octave_sortI10octave_intIaEE10MergeState6getmemEi@Base 3.4.3
 _ZN11octave_sortI10octave_intIaEE10MergeState7getmemiEi@Base 3.4.3
 _ZN11octave_sortI10octave_intIaEE10MergeStateC1Ev@Base 3.4.3
 _ZN11octave_sortI10octave_intIaEE10MergeStateC2Ev@Base 3.4.3
 _ZN11octave_sortI10octave_intIaEE10MergeStateD1Ev@Base 3.4.3
 _ZN11octave_sortI10octave_intIaEE10MergeStateD2Ev@Base 3.4.3
# template instantiation
 (c++|regex|optional=templateInstantiation)"void octave_sort<.*>::binarysort<.*>\(.*\)@Base" 3.4.3
 _ZN11octave_sortI10octave_intIaEE11gallop_leftIPFbRKS1_S5_EEEiS1_PS1_iiT_@Base 3.4.3
 _ZN11octave_sortI10octave_intIaEE11gallop_leftISt4lessIS1_EEEiS1_PS1_iiT_@Base 3.4.3
 _ZN11octave_sortI10octave_intIaEE11gallop_leftISt7greaterIS1_EEEiS1_PS1_iiT_@Base 3.4.3
 _ZN11octave_sortI10octave_intIaEE11nth_elementEPS1_iii@Base 3.4.3
 _ZN11octave_sortI10octave_intIaEE11nth_elementISt26pointer_to_binary_functionIRKS1_S6_bEEEvPS1_iiiT_@Base 3.4.3
 _ZN11octave_sortI10octave_intIaEE11nth_elementISt4lessIS1_EEEvPS1_iiiT_@Base 3.4.3
 _ZN11octave_sortI10octave_intIaEE11nth_elementISt7greaterIS1_EEEvPS1_iiiT_@Base 3.4.3
 _ZN11octave_sortI10octave_intIaEE11set_compareE8sortmode@Base 3.4.3
 _ZN11octave_sortI10octave_intIaEE11set_compareEPFbRKS1_S4_E@Base 3.4.3
 _ZN11octave_sortI10octave_intIaEE12gallop_rightIPFbRKS1_S5_EEEiS1_PS1_iiT_@Base 3.4.3
 _ZN11octave_sortI10octave_intIaEE12gallop_rightISt4lessIS1_EEEiS1_PS1_iiT_@Base 3.4.3
 _ZN11octave_sortI10octave_intIaEE12gallop_rightISt7greaterIS1_EEEiS1_PS1_iiT_@Base 3.4.3
 _ZN11octave_sortI10octave_intIaEE13lookup_sortedEPKS1_iS4_iPib@Base 3.4.3
 _ZN11octave_sortI10octave_intIaEE13lookup_sortedISt26pointer_to_binary_functionIRKS1_S6_bEEEvPS5_iS8_iPibT_@Base 3.4.3
 _ZN11octave_sortI10octave_intIaEE13lookup_sortedISt4lessIS1_EEEvPKS1_iS7_iPibT_@Base 3.4.3
 _ZN11octave_sortI10octave_intIaEE13lookup_sortedISt7greaterIS1_EEEvPKS1_iS7_iPibT_@Base 3.4.3
 _ZN11octave_sortI10octave_intIaEE14is_sorted_rowsEPKS1_ii@Base 3.4.3
 _ZN11octave_sortI10octave_intIaEE14is_sorted_rowsIPFbRKS1_S5_EEEbPS4_iiT_@Base 3.4.3
 _ZN11octave_sortI10octave_intIaEE14is_sorted_rowsISt4lessIS1_EEEbPKS1_iiT_@Base 3.4.3
 _ZN11octave_sortI10octave_intIaEE14is_sorted_rowsISt7greaterIS1_EEEbPKS1_iiT_@Base 3.4.3
 _ZN11octave_sortI10octave_intIaEE14merge_collapseIPFbRKS1_S5_EEEiPS1_PiT_@Base 3.4.3
 _ZN11octave_sortI10octave_intIaEE14merge_collapseIPFbRKS1_S5_EEEiPS1_T_@Base 3.4.3
 _ZN11octave_sortI10octave_intIaEE14merge_collapseISt4lessIS1_EEEiPS1_PiT_@Base 3.4.3
 _ZN11octave_sortI10octave_intIaEE14merge_collapseISt4lessIS1_EEEiPS1_T_@Base 3.4.3
 _ZN11octave_sortI10octave_intIaEE14merge_collapseISt7greaterIS1_EEEiPS1_PiT_@Base 3.4.3
 _ZN11octave_sortI10octave_intIaEE14merge_collapseISt7greaterIS1_EEEiPS1_T_@Base 3.4.3
 _ZN11octave_sortI10octave_intIaEE17ascending_compareERKS1_S4_@Base 3.4.3
 _ZN11octave_sortI10octave_intIaEE18descending_compareERKS1_S4_@Base 3.4.3
 _ZN11octave_sortI10octave_intIaEE20merge_compute_minrunEi@Base 3.4.3
 _ZN11octave_sortI10octave_intIaEE4sortEPS1_Pii@Base 3.4.3
 _ZN11octave_sortI10octave_intIaEE4sortEPS1_i@Base 3.4.3
 _ZN11octave_sortI10octave_intIaEE4sortIPFbRKS1_S5_EEEvPS1_PiiT_@Base 3.4.3
 _ZN11octave_sortI10octave_intIaEE4sortIPFbRKS1_S5_EEEvPS1_iT_@Base 3.4.3
 _ZN11octave_sortI10octave_intIaEE4sortISt4lessIS1_EEEvPS1_PiiT_@Base 3.4.3
 _ZN11octave_sortI10octave_intIaEE4sortISt4lessIS1_EEEvPS1_iT_@Base 3.4.3
 _ZN11octave_sortI10octave_intIaEE4sortISt7greaterIS1_EEEvPS1_PiiT_@Base 3.4.3
 _ZN11octave_sortI10octave_intIaEE4sortISt7greaterIS1_EEEvPS1_iT_@Base 3.4.3
 _ZN11octave_sortI10octave_intIaEE6lookupEPKS1_iRS3_@Base 3.4.3
 _ZN11octave_sortI10octave_intIaEE6lookupEPKS1_iS4_iPi@Base 3.4.3
 _ZN11octave_sortI10octave_intIaEE8merge_atIPFbRKS1_S5_EEEiiPS1_PiT_@Base 3.4.3
 _ZN11octave_sortI10octave_intIaEE8merge_atIPFbRKS1_S5_EEEiiPS1_T_@Base 3.4.3
 _ZN11octave_sortI10octave_intIaEE8merge_atISt4lessIS1_EEEiiPS1_PiT_@Base 3.4.3
 _ZN11octave_sortI10octave_intIaEE8merge_atISt4lessIS1_EEEiiPS1_T_@Base 3.4.3
 _ZN11octave_sortI10octave_intIaEE8merge_atISt7greaterIS1_EEEiiPS1_PiT_@Base 3.4.3
 _ZN11octave_sortI10octave_intIaEE8merge_atISt7greaterIS1_EEEiiPS1_T_@Base 3.4.3
 _ZN11octave_sortI10octave_intIaEE8merge_hiIPFbRKS1_S5_EEEiPS1_PiiS8_S9_iT_@Base 3.4.3
 _ZN11octave_sortI10octave_intIaEE8merge_hiIPFbRKS1_S5_EEEiPS1_iS8_iT_@Base 3.4.3
 _ZN11octave_sortI10octave_intIaEE8merge_hiISt4lessIS1_EEEiPS1_PiiS6_S7_iT_@Base 3.4.3
 _ZN11octave_sortI10octave_intIaEE8merge_hiISt4lessIS1_EEEiPS1_iS6_iT_@Base 3.4.3
 _ZN11octave_sortI10octave_intIaEE8merge_hiISt7greaterIS1_EEEiPS1_PiiS6_S7_iT_@Base 3.4.3
 _ZN11octave_sortI10octave_intIaEE8merge_hiISt7greaterIS1_EEEiPS1_iS6_iT_@Base 3.4.3
 _ZN11octave_sortI10octave_intIaEE8merge_loIPFbRKS1_S5_EEEiPS1_PiiS8_S9_iT_@Base 3.4.3
 _ZN11octave_sortI10octave_intIaEE8merge_loIPFbRKS1_S5_EEEiPS1_iS8_iT_@Base 3.4.3
 _ZN11octave_sortI10octave_intIaEE8merge_loISt4lessIS1_EEEiPS1_PiiS6_S7_iT_@Base 3.4.3
 _ZN11octave_sortI10octave_intIaEE8merge_loISt4lessIS1_EEEiPS1_iS6_iT_@Base 3.4.3
 _ZN11octave_sortI10octave_intIaEE8merge_loISt7greaterIS1_EEEiPS1_PiiS6_S7_iT_@Base 3.4.3
 _ZN11octave_sortI10octave_intIaEE8merge_loISt7greaterIS1_EEEiPS1_iS6_iT_@Base 3.4.3
# template instantiation
 (c++|regex|optional=templateInstantiation)"int octave_sort<.*>::count_run<.*>\(.*\)@Base" 3.4.3
 _ZN11octave_sortI10octave_intIaEE9is_sortedEPKS1_i@Base 3.4.3
 _ZN11octave_sortI10octave_intIaEE9sort_rowsEPKS1_Piii@Base 3.4.3
 _ZN11octave_sortI10octave_intIaEE9sort_rowsIPFbRKS1_S5_EEEvPS4_PiiiT_@Base 3.4.3
 _ZN11octave_sortI10octave_intIaEE9sort_rowsISt4lessIS1_EEEvPKS1_PiiiT_@Base 3.4.3
 _ZN11octave_sortI10octave_intIaEE9sort_rowsISt7greaterIS1_EEEvPKS1_PiiiT_@Base 3.4.3
 _ZN11octave_sortI10octave_intIaEEC1EPFbRKS1_S4_E@Base 3.4.3
 _ZN11octave_sortI10octave_intIaEEC1Ev@Base 3.4.3
 _ZN11octave_sortI10octave_intIaEEC2EPFbRKS1_S4_E@Base 3.4.3
 _ZN11octave_sortI10octave_intIaEEC2Ev@Base 3.4.3
 _ZN11octave_sortI10octave_intIaEED1Ev@Base 3.4.3
 _ZN11octave_sortI10octave_intIaEED2Ev@Base 3.4.3
 _ZN11octave_sortI10octave_intIhEE10MergeState5resetEv@Base 3.4.3
 _ZN11octave_sortI10octave_intIhEE10MergeState6getmemEi@Base 3.4.3
 _ZN11octave_sortI10octave_intIhEE10MergeState7getmemiEi@Base 3.4.3
 _ZN11octave_sortI10octave_intIhEE10MergeStateC1Ev@Base 3.4.3
 _ZN11octave_sortI10octave_intIhEE10MergeStateC2Ev@Base 3.4.3
 _ZN11octave_sortI10octave_intIhEE10MergeStateD1Ev@Base 3.4.3
 _ZN11octave_sortI10octave_intIhEE10MergeStateD2Ev@Base 3.4.3
 _ZN11octave_sortI10octave_intIhEE11gallop_leftIPFbRKS1_S5_EEEiS1_PS1_iiT_@Base 3.4.3
 _ZN11octave_sortI10octave_intIhEE11gallop_leftISt4lessIS1_EEEiS1_PS1_iiT_@Base 3.4.3
 _ZN11octave_sortI10octave_intIhEE11gallop_leftISt7greaterIS1_EEEiS1_PS1_iiT_@Base 3.4.3
 _ZN11octave_sortI10octave_intIhEE11nth_elementEPS1_iii@Base 3.4.3
 _ZN11octave_sortI10octave_intIhEE11nth_elementISt26pointer_to_binary_functionIRKS1_S6_bEEEvPS1_iiiT_@Base 3.4.3
 _ZN11octave_sortI10octave_intIhEE11nth_elementISt4lessIS1_EEEvPS1_iiiT_@Base 3.4.3
 _ZN11octave_sortI10octave_intIhEE11nth_elementISt7greaterIS1_EEEvPS1_iiiT_@Base 3.4.3
 _ZN11octave_sortI10octave_intIhEE11set_compareE8sortmode@Base 3.4.3
 _ZN11octave_sortI10octave_intIhEE11set_compareEPFbRKS1_S4_E@Base 3.4.3
 _ZN11octave_sortI10octave_intIhEE12gallop_rightIPFbRKS1_S5_EEEiS1_PS1_iiT_@Base 3.4.3
 _ZN11octave_sortI10octave_intIhEE12gallop_rightISt4lessIS1_EEEiS1_PS1_iiT_@Base 3.4.3
 _ZN11octave_sortI10octave_intIhEE12gallop_rightISt7greaterIS1_EEEiS1_PS1_iiT_@Base 3.4.3
 _ZN11octave_sortI10octave_intIhEE13lookup_sortedEPKS1_iS4_iPib@Base 3.4.3
 _ZN11octave_sortI10octave_intIhEE13lookup_sortedISt26pointer_to_binary_functionIRKS1_S6_bEEEvPS5_iS8_iPibT_@Base 3.4.3
 _ZN11octave_sortI10octave_intIhEE13lookup_sortedISt4lessIS1_EEEvPKS1_iS7_iPibT_@Base 3.4.3
 _ZN11octave_sortI10octave_intIhEE13lookup_sortedISt7greaterIS1_EEEvPKS1_iS7_iPibT_@Base 3.4.3
 _ZN11octave_sortI10octave_intIhEE14is_sorted_rowsEPKS1_ii@Base 3.4.3
 _ZN11octave_sortI10octave_intIhEE14is_sorted_rowsIPFbRKS1_S5_EEEbPS4_iiT_@Base 3.4.3
 _ZN11octave_sortI10octave_intIhEE14is_sorted_rowsISt4lessIS1_EEEbPKS1_iiT_@Base 3.4.3
 _ZN11octave_sortI10octave_intIhEE14is_sorted_rowsISt7greaterIS1_EEEbPKS1_iiT_@Base 3.4.3
 _ZN11octave_sortI10octave_intIhEE14merge_collapseIPFbRKS1_S5_EEEiPS1_PiT_@Base 3.4.3
 _ZN11octave_sortI10octave_intIhEE14merge_collapseIPFbRKS1_S5_EEEiPS1_T_@Base 3.4.3
 _ZN11octave_sortI10octave_intIhEE14merge_collapseISt4lessIS1_EEEiPS1_PiT_@Base 3.4.3
 _ZN11octave_sortI10octave_intIhEE14merge_collapseISt4lessIS1_EEEiPS1_T_@Base 3.4.3
 _ZN11octave_sortI10octave_intIhEE14merge_collapseISt7greaterIS1_EEEiPS1_PiT_@Base 3.4.3
 _ZN11octave_sortI10octave_intIhEE14merge_collapseISt7greaterIS1_EEEiPS1_T_@Base 3.4.3
 _ZN11octave_sortI10octave_intIhEE17ascending_compareERKS1_S4_@Base 3.4.3
 _ZN11octave_sortI10octave_intIhEE18descending_compareERKS1_S4_@Base 3.4.3
 _ZN11octave_sortI10octave_intIhEE20merge_compute_minrunEi@Base 3.4.3
 _ZN11octave_sortI10octave_intIhEE4sortEPS1_Pii@Base 3.4.3
 _ZN11octave_sortI10octave_intIhEE4sortEPS1_i@Base 3.4.3
 _ZN11octave_sortI10octave_intIhEE4sortIPFbRKS1_S5_EEEvPS1_PiiT_@Base 3.4.3
 _ZN11octave_sortI10octave_intIhEE4sortIPFbRKS1_S5_EEEvPS1_iT_@Base 3.4.3
 _ZN11octave_sortI10octave_intIhEE4sortISt4lessIS1_EEEvPS1_PiiT_@Base 3.4.3
 _ZN11octave_sortI10octave_intIhEE4sortISt4lessIS1_EEEvPS1_iT_@Base 3.4.3
 _ZN11octave_sortI10octave_intIhEE4sortISt7greaterIS1_EEEvPS1_PiiT_@Base 3.4.3
 _ZN11octave_sortI10octave_intIhEE4sortISt7greaterIS1_EEEvPS1_iT_@Base 3.4.3
 _ZN11octave_sortI10octave_intIhEE6lookupEPKS1_iRS3_@Base 3.4.3
 _ZN11octave_sortI10octave_intIhEE6lookupEPKS1_iS4_iPi@Base 3.4.3
 _ZN11octave_sortI10octave_intIhEE8merge_atIPFbRKS1_S5_EEEiiPS1_PiT_@Base 3.4.3
 _ZN11octave_sortI10octave_intIhEE8merge_atIPFbRKS1_S5_EEEiiPS1_T_@Base 3.4.3
 _ZN11octave_sortI10octave_intIhEE8merge_atISt4lessIS1_EEEiiPS1_PiT_@Base 3.4.3
 _ZN11octave_sortI10octave_intIhEE8merge_atISt4lessIS1_EEEiiPS1_T_@Base 3.4.3
 _ZN11octave_sortI10octave_intIhEE8merge_atISt7greaterIS1_EEEiiPS1_PiT_@Base 3.4.3
 _ZN11octave_sortI10octave_intIhEE8merge_atISt7greaterIS1_EEEiiPS1_T_@Base 3.4.3
 _ZN11octave_sortI10octave_intIhEE8merge_hiIPFbRKS1_S5_EEEiPS1_PiiS8_S9_iT_@Base 3.4.3
 _ZN11octave_sortI10octave_intIhEE8merge_hiIPFbRKS1_S5_EEEiPS1_iS8_iT_@Base 3.4.3
 _ZN11octave_sortI10octave_intIhEE8merge_hiISt4lessIS1_EEEiPS1_PiiS6_S7_iT_@Base 3.4.3
 _ZN11octave_sortI10octave_intIhEE8merge_hiISt4lessIS1_EEEiPS1_iS6_iT_@Base 3.4.3
 _ZN11octave_sortI10octave_intIhEE8merge_hiISt7greaterIS1_EEEiPS1_PiiS6_S7_iT_@Base 3.4.3
 _ZN11octave_sortI10octave_intIhEE8merge_hiISt7greaterIS1_EEEiPS1_iS6_iT_@Base 3.4.3
 _ZN11octave_sortI10octave_intIhEE8merge_loIPFbRKS1_S5_EEEiPS1_PiiS8_S9_iT_@Base 3.4.3
 _ZN11octave_sortI10octave_intIhEE8merge_loIPFbRKS1_S5_EEEiPS1_iS8_iT_@Base 3.4.3
 _ZN11octave_sortI10octave_intIhEE8merge_loISt4lessIS1_EEEiPS1_PiiS6_S7_iT_@Base 3.4.3
 _ZN11octave_sortI10octave_intIhEE8merge_loISt4lessIS1_EEEiPS1_iS6_iT_@Base 3.4.3
 _ZN11octave_sortI10octave_intIhEE8merge_loISt7greaterIS1_EEEiPS1_PiiS6_S7_iT_@Base 3.4.3
 _ZN11octave_sortI10octave_intIhEE8merge_loISt7greaterIS1_EEEiPS1_iS6_iT_@Base 3.4.3
 _ZN11octave_sortI10octave_intIhEE9is_sortedEPKS1_i@Base 3.4.3
 _ZN11octave_sortI10octave_intIhEE9sort_rowsEPKS1_Piii@Base 3.4.3
 _ZN11octave_sortI10octave_intIhEE9sort_rowsIPFbRKS1_S5_EEEvPS4_PiiiT_@Base 3.4.3
 _ZN11octave_sortI10octave_intIhEE9sort_rowsISt4lessIS1_EEEvPKS1_PiiiT_@Base 3.4.3
 _ZN11octave_sortI10octave_intIhEE9sort_rowsISt7greaterIS1_EEEvPKS1_PiiiT_@Base 3.4.3
 _ZN11octave_sortI10octave_intIhEEC1EPFbRKS1_S4_E@Base 3.4.3
 _ZN11octave_sortI10octave_intIhEEC1Ev@Base 3.4.3
 _ZN11octave_sortI10octave_intIhEEC2EPFbRKS1_S4_E@Base 3.4.3
 _ZN11octave_sortI10octave_intIhEEC2Ev@Base 3.4.3
 _ZN11octave_sortI10octave_intIhEED1Ev@Base 3.4.3
 _ZN11octave_sortI10octave_intIhEED2Ev@Base 3.4.3
 _ZN11octave_sortI10octave_intIiEE10MergeState5resetEv@Base 3.4.3
 _ZN11octave_sortI10octave_intIiEE10MergeState6getmemEi@Base 3.4.3
 _ZN11octave_sortI10octave_intIiEE10MergeState7getmemiEi@Base 3.4.3
 _ZN11octave_sortI10octave_intIiEE10MergeStateC1Ev@Base 3.4.3
 _ZN11octave_sortI10octave_intIiEE10MergeStateC2Ev@Base 3.4.3
 _ZN11octave_sortI10octave_intIiEE10MergeStateD1Ev@Base 3.4.3
 _ZN11octave_sortI10octave_intIiEE10MergeStateD2Ev@Base 3.4.3
 _ZN11octave_sortI10octave_intIiEE11gallop_leftIPFbRKS1_S5_EEEiS1_PS1_iiT_@Base 3.4.3
 _ZN11octave_sortI10octave_intIiEE11gallop_leftISt4lessIS1_EEEiS1_PS1_iiT_@Base 3.4.3
 _ZN11octave_sortI10octave_intIiEE11gallop_leftISt7greaterIS1_EEEiS1_PS1_iiT_@Base 3.4.3
 _ZN11octave_sortI10octave_intIiEE11nth_elementEPS1_iii@Base 3.4.3
 _ZN11octave_sortI10octave_intIiEE11nth_elementISt26pointer_to_binary_functionIRKS1_S6_bEEEvPS1_iiiT_@Base 3.4.3
 _ZN11octave_sortI10octave_intIiEE11nth_elementISt4lessIS1_EEEvPS1_iiiT_@Base 3.4.3
 _ZN11octave_sortI10octave_intIiEE11nth_elementISt7greaterIS1_EEEvPS1_iiiT_@Base 3.4.3
 _ZN11octave_sortI10octave_intIiEE11set_compareE8sortmode@Base 3.4.3
 _ZN11octave_sortI10octave_intIiEE11set_compareEPFbRKS1_S4_E@Base 3.4.3
 _ZN11octave_sortI10octave_intIiEE12gallop_rightIPFbRKS1_S5_EEEiS1_PS1_iiT_@Base 3.4.3
 _ZN11octave_sortI10octave_intIiEE12gallop_rightISt4lessIS1_EEEiS1_PS1_iiT_@Base 3.4.3
 _ZN11octave_sortI10octave_intIiEE12gallop_rightISt7greaterIS1_EEEiS1_PS1_iiT_@Base 3.4.3
 _ZN11octave_sortI10octave_intIiEE13lookup_sortedEPKS1_iS4_iPib@Base 3.4.3
 _ZN11octave_sortI10octave_intIiEE13lookup_sortedISt26pointer_to_binary_functionIRKS1_S6_bEEEvPS5_iS8_iPibT_@Base 3.4.3
 _ZN11octave_sortI10octave_intIiEE13lookup_sortedISt4lessIS1_EEEvPKS1_iS7_iPibT_@Base 3.4.3
 _ZN11octave_sortI10octave_intIiEE13lookup_sortedISt7greaterIS1_EEEvPKS1_iS7_iPibT_@Base 3.4.3
 _ZN11octave_sortI10octave_intIiEE14is_sorted_rowsEPKS1_ii@Base 3.4.3
 _ZN11octave_sortI10octave_intIiEE14is_sorted_rowsIPFbRKS1_S5_EEEbPS4_iiT_@Base 3.4.3
 _ZN11octave_sortI10octave_intIiEE14is_sorted_rowsISt4lessIS1_EEEbPKS1_iiT_@Base 3.4.3
 _ZN11octave_sortI10octave_intIiEE14is_sorted_rowsISt7greaterIS1_EEEbPKS1_iiT_@Base 3.4.3
 _ZN11octave_sortI10octave_intIiEE14merge_collapseIPFbRKS1_S5_EEEiPS1_PiT_@Base 3.4.3
 _ZN11octave_sortI10octave_intIiEE14merge_collapseIPFbRKS1_S5_EEEiPS1_T_@Base 3.4.3
 _ZN11octave_sortI10octave_intIiEE14merge_collapseISt4lessIS1_EEEiPS1_PiT_@Base 3.4.3
 _ZN11octave_sortI10octave_intIiEE14merge_collapseISt4lessIS1_EEEiPS1_T_@Base 3.4.3
 _ZN11octave_sortI10octave_intIiEE14merge_collapseISt7greaterIS1_EEEiPS1_PiT_@Base 3.4.3
 _ZN11octave_sortI10octave_intIiEE14merge_collapseISt7greaterIS1_EEEiPS1_T_@Base 3.4.3
 _ZN11octave_sortI10octave_intIiEE17ascending_compareERKS1_S4_@Base 3.4.3
 _ZN11octave_sortI10octave_intIiEE18descending_compareERKS1_S4_@Base 3.4.3
 _ZN11octave_sortI10octave_intIiEE20merge_compute_minrunEi@Base 3.4.3
 _ZN11octave_sortI10octave_intIiEE4sortEPS1_Pii@Base 3.4.3
 _ZN11octave_sortI10octave_intIiEE4sortEPS1_i@Base 3.4.3
 _ZN11octave_sortI10octave_intIiEE4sortIPFbRKS1_S5_EEEvPS1_PiiT_@Base 3.4.3
 _ZN11octave_sortI10octave_intIiEE4sortIPFbRKS1_S5_EEEvPS1_iT_@Base 3.4.3
 _ZN11octave_sortI10octave_intIiEE4sortISt4lessIS1_EEEvPS1_PiiT_@Base 3.4.3
 _ZN11octave_sortI10octave_intIiEE4sortISt4lessIS1_EEEvPS1_iT_@Base 3.4.3
 _ZN11octave_sortI10octave_intIiEE4sortISt7greaterIS1_EEEvPS1_PiiT_@Base 3.4.3
 _ZN11octave_sortI10octave_intIiEE4sortISt7greaterIS1_EEEvPS1_iT_@Base 3.4.3
 _ZN11octave_sortI10octave_intIiEE6lookupEPKS1_iRS3_@Base 3.4.3
 _ZN11octave_sortI10octave_intIiEE6lookupEPKS1_iS4_iPi@Base 3.4.3
 _ZN11octave_sortI10octave_intIiEE8merge_atIPFbRKS1_S5_EEEiiPS1_PiT_@Base 3.4.3
 _ZN11octave_sortI10octave_intIiEE8merge_atIPFbRKS1_S5_EEEiiPS1_T_@Base 3.4.3
 _ZN11octave_sortI10octave_intIiEE8merge_atISt4lessIS1_EEEiiPS1_PiT_@Base 3.4.3
 _ZN11octave_sortI10octave_intIiEE8merge_atISt4lessIS1_EEEiiPS1_T_@Base 3.4.3
 _ZN11octave_sortI10octave_intIiEE8merge_atISt7greaterIS1_EEEiiPS1_PiT_@Base 3.4.3
 _ZN11octave_sortI10octave_intIiEE8merge_atISt7greaterIS1_EEEiiPS1_T_@Base 3.4.3
 _ZN11octave_sortI10octave_intIiEE8merge_hiIPFbRKS1_S5_EEEiPS1_PiiS8_S9_iT_@Base 3.4.3
 _ZN11octave_sortI10octave_intIiEE8merge_hiIPFbRKS1_S5_EEEiPS1_iS8_iT_@Base 3.4.3
 _ZN11octave_sortI10octave_intIiEE8merge_hiISt4lessIS1_EEEiPS1_PiiS6_S7_iT_@Base 3.4.3
 _ZN11octave_sortI10octave_intIiEE8merge_hiISt4lessIS1_EEEiPS1_iS6_iT_@Base 3.4.3
 _ZN11octave_sortI10octave_intIiEE8merge_hiISt7greaterIS1_EEEiPS1_PiiS6_S7_iT_@Base 3.4.3
 _ZN11octave_sortI10octave_intIiEE8merge_hiISt7greaterIS1_EEEiPS1_iS6_iT_@Base 3.4.3
 _ZN11octave_sortI10octave_intIiEE8merge_loIPFbRKS1_S5_EEEiPS1_PiiS8_S9_iT_@Base 3.4.3
 _ZN11octave_sortI10octave_intIiEE8merge_loIPFbRKS1_S5_EEEiPS1_iS8_iT_@Base 3.4.3
 _ZN11octave_sortI10octave_intIiEE8merge_loISt4lessIS1_EEEiPS1_PiiS6_S7_iT_@Base 3.4.3
 _ZN11octave_sortI10octave_intIiEE8merge_loISt4lessIS1_EEEiPS1_iS6_iT_@Base 3.4.3
 _ZN11octave_sortI10octave_intIiEE8merge_loISt7greaterIS1_EEEiPS1_PiiS6_S7_iT_@Base 3.4.3
 _ZN11octave_sortI10octave_intIiEE8merge_loISt7greaterIS1_EEEiPS1_iS6_iT_@Base 3.4.3
 _ZN11octave_sortI10octave_intIiEE9is_sortedEPKS1_i@Base 3.4.3
 _ZN11octave_sortI10octave_intIiEE9sort_rowsEPKS1_Piii@Base 3.4.3
 _ZN11octave_sortI10octave_intIiEE9sort_rowsIPFbRKS1_S5_EEEvPS4_PiiiT_@Base 3.4.3
 _ZN11octave_sortI10octave_intIiEE9sort_rowsISt4lessIS1_EEEvPKS1_PiiiT_@Base 3.4.3
 _ZN11octave_sortI10octave_intIiEE9sort_rowsISt7greaterIS1_EEEvPKS1_PiiiT_@Base 3.4.3
 _ZN11octave_sortI10octave_intIiEEC1EPFbRKS1_S4_E@Base 3.4.3
 _ZN11octave_sortI10octave_intIiEEC1Ev@Base 3.4.3
 _ZN11octave_sortI10octave_intIiEEC2EPFbRKS1_S4_E@Base 3.4.3
 _ZN11octave_sortI10octave_intIiEEC2Ev@Base 3.4.3
 _ZN11octave_sortI10octave_intIiEED1Ev@Base 3.4.3
 _ZN11octave_sortI10octave_intIiEED2Ev@Base 3.4.3
 _ZN11octave_sortI10octave_intIjEE10MergeState5resetEv@Base 3.4.3
 _ZN11octave_sortI10octave_intIjEE10MergeState6getmemEi@Base 3.4.3
 _ZN11octave_sortI10octave_intIjEE10MergeState7getmemiEi@Base 3.4.3
 _ZN11octave_sortI10octave_intIjEE10MergeStateC1Ev@Base 3.4.3
 _ZN11octave_sortI10octave_intIjEE10MergeStateC2Ev@Base 3.4.3
 _ZN11octave_sortI10octave_intIjEE10MergeStateD1Ev@Base 3.4.3
 _ZN11octave_sortI10octave_intIjEE10MergeStateD2Ev@Base 3.4.3
 _ZN11octave_sortI10octave_intIjEE11gallop_leftIPFbRKS1_S5_EEEiS1_PS1_iiT_@Base 3.4.3
 _ZN11octave_sortI10octave_intIjEE11gallop_leftISt4lessIS1_EEEiS1_PS1_iiT_@Base 3.4.3
 _ZN11octave_sortI10octave_intIjEE11gallop_leftISt7greaterIS1_EEEiS1_PS1_iiT_@Base 3.4.3
 _ZN11octave_sortI10octave_intIjEE11nth_elementEPS1_iii@Base 3.4.3
 _ZN11octave_sortI10octave_intIjEE11nth_elementISt26pointer_to_binary_functionIRKS1_S6_bEEEvPS1_iiiT_@Base 3.4.3
 _ZN11octave_sortI10octave_intIjEE11nth_elementISt4lessIS1_EEEvPS1_iiiT_@Base 3.4.3
 _ZN11octave_sortI10octave_intIjEE11nth_elementISt7greaterIS1_EEEvPS1_iiiT_@Base 3.4.3
 _ZN11octave_sortI10octave_intIjEE11set_compareE8sortmode@Base 3.4.3
 _ZN11octave_sortI10octave_intIjEE11set_compareEPFbRKS1_S4_E@Base 3.4.3
 _ZN11octave_sortI10octave_intIjEE12gallop_rightIPFbRKS1_S5_EEEiS1_PS1_iiT_@Base 3.4.3
 _ZN11octave_sortI10octave_intIjEE12gallop_rightISt4lessIS1_EEEiS1_PS1_iiT_@Base 3.4.3
 _ZN11octave_sortI10octave_intIjEE12gallop_rightISt7greaterIS1_EEEiS1_PS1_iiT_@Base 3.4.3
 _ZN11octave_sortI10octave_intIjEE13lookup_sortedEPKS1_iS4_iPib@Base 3.4.3
 _ZN11octave_sortI10octave_intIjEE13lookup_sortedISt26pointer_to_binary_functionIRKS1_S6_bEEEvPS5_iS8_iPibT_@Base 3.4.3
 _ZN11octave_sortI10octave_intIjEE13lookup_sortedISt4lessIS1_EEEvPKS1_iS7_iPibT_@Base 3.4.3
 _ZN11octave_sortI10octave_intIjEE13lookup_sortedISt7greaterIS1_EEEvPKS1_iS7_iPibT_@Base 3.4.3
 _ZN11octave_sortI10octave_intIjEE14is_sorted_rowsEPKS1_ii@Base 3.4.3
 _ZN11octave_sortI10octave_intIjEE14is_sorted_rowsIPFbRKS1_S5_EEEbPS4_iiT_@Base 3.4.3
 _ZN11octave_sortI10octave_intIjEE14is_sorted_rowsISt4lessIS1_EEEbPKS1_iiT_@Base 3.4.3
 _ZN11octave_sortI10octave_intIjEE14is_sorted_rowsISt7greaterIS1_EEEbPKS1_iiT_@Base 3.4.3
 _ZN11octave_sortI10octave_intIjEE14merge_collapseIPFbRKS1_S5_EEEiPS1_PiT_@Base 3.4.3
 _ZN11octave_sortI10octave_intIjEE14merge_collapseIPFbRKS1_S5_EEEiPS1_T_@Base 3.4.3
 _ZN11octave_sortI10octave_intIjEE14merge_collapseISt4lessIS1_EEEiPS1_PiT_@Base 3.4.3
 _ZN11octave_sortI10octave_intIjEE14merge_collapseISt4lessIS1_EEEiPS1_T_@Base 3.4.3
 _ZN11octave_sortI10octave_intIjEE14merge_collapseISt7greaterIS1_EEEiPS1_PiT_@Base 3.4.3
 _ZN11octave_sortI10octave_intIjEE14merge_collapseISt7greaterIS1_EEEiPS1_T_@Base 3.4.3
 _ZN11octave_sortI10octave_intIjEE17ascending_compareERKS1_S4_@Base 3.4.3
 _ZN11octave_sortI10octave_intIjEE18descending_compareERKS1_S4_@Base 3.4.3
 _ZN11octave_sortI10octave_intIjEE20merge_compute_minrunEi@Base 3.4.3
 _ZN11octave_sortI10octave_intIjEE4sortEPS1_Pii@Base 3.4.3
 _ZN11octave_sortI10octave_intIjEE4sortEPS1_i@Base 3.4.3
 _ZN11octave_sortI10octave_intIjEE4sortIPFbRKS1_S5_EEEvPS1_PiiT_@Base 3.4.3
 _ZN11octave_sortI10octave_intIjEE4sortIPFbRKS1_S5_EEEvPS1_iT_@Base 3.4.3
 _ZN11octave_sortI10octave_intIjEE4sortISt4lessIS1_EEEvPS1_PiiT_@Base 3.4.3
 _ZN11octave_sortI10octave_intIjEE4sortISt4lessIS1_EEEvPS1_iT_@Base 3.4.3
 _ZN11octave_sortI10octave_intIjEE4sortISt7greaterIS1_EEEvPS1_PiiT_@Base 3.4.3
 _ZN11octave_sortI10octave_intIjEE4sortISt7greaterIS1_EEEvPS1_iT_@Base 3.4.3
 _ZN11octave_sortI10octave_intIjEE6lookupEPKS1_iRS3_@Base 3.4.3
 _ZN11octave_sortI10octave_intIjEE6lookupEPKS1_iS4_iPi@Base 3.4.3
 _ZN11octave_sortI10octave_intIjEE8merge_atIPFbRKS1_S5_EEEiiPS1_PiT_@Base 3.4.3
 _ZN11octave_sortI10octave_intIjEE8merge_atIPFbRKS1_S5_EEEiiPS1_T_@Base 3.4.3
 _ZN11octave_sortI10octave_intIjEE8merge_atISt4lessIS1_EEEiiPS1_PiT_@Base 3.4.3
 _ZN11octave_sortI10octave_intIjEE8merge_atISt4lessIS1_EEEiiPS1_T_@Base 3.4.3
 _ZN11octave_sortI10octave_intIjEE8merge_atISt7greaterIS1_EEEiiPS1_PiT_@Base 3.4.3
 _ZN11octave_sortI10octave_intIjEE8merge_atISt7greaterIS1_EEEiiPS1_T_@Base 3.4.3
 _ZN11octave_sortI10octave_intIjEE8merge_hiIPFbRKS1_S5_EEEiPS1_PiiS8_S9_iT_@Base 3.4.3
 _ZN11octave_sortI10octave_intIjEE8merge_hiIPFbRKS1_S5_EEEiPS1_iS8_iT_@Base 3.4.3
 _ZN11octave_sortI10octave_intIjEE8merge_hiISt4lessIS1_EEEiPS1_PiiS6_S7_iT_@Base 3.4.3
 _ZN11octave_sortI10octave_intIjEE8merge_hiISt4lessIS1_EEEiPS1_iS6_iT_@Base 3.4.3
 _ZN11octave_sortI10octave_intIjEE8merge_hiISt7greaterIS1_EEEiPS1_PiiS6_S7_iT_@Base 3.4.3
 _ZN11octave_sortI10octave_intIjEE8merge_hiISt7greaterIS1_EEEiPS1_iS6_iT_@Base 3.4.3
 _ZN11octave_sortI10octave_intIjEE8merge_loIPFbRKS1_S5_EEEiPS1_PiiS8_S9_iT_@Base 3.4.3
 _ZN11octave_sortI10octave_intIjEE8merge_loIPFbRKS1_S5_EEEiPS1_iS8_iT_@Base 3.4.3
 _ZN11octave_sortI10octave_intIjEE8merge_loISt4lessIS1_EEEiPS1_PiiS6_S7_iT_@Base 3.4.3
 _ZN11octave_sortI10octave_intIjEE8merge_loISt4lessIS1_EEEiPS1_iS6_iT_@Base 3.4.3
 _ZN11octave_sortI10octave_intIjEE8merge_loISt7greaterIS1_EEEiPS1_PiiS6_S7_iT_@Base 3.4.3
 _ZN11octave_sortI10octave_intIjEE8merge_loISt7greaterIS1_EEEiPS1_iS6_iT_@Base 3.4.3
 _ZN11octave_sortI10octave_intIjEE9is_sortedEPKS1_i@Base 3.4.3
 _ZN11octave_sortI10octave_intIjEE9sort_rowsEPKS1_Piii@Base 3.4.3
 _ZN11octave_sortI10octave_intIjEE9sort_rowsIPFbRKS1_S5_EEEvPS4_PiiiT_@Base 3.4.3
 _ZN11octave_sortI10octave_intIjEE9sort_rowsISt4lessIS1_EEEvPKS1_PiiiT_@Base 3.4.3
 _ZN11octave_sortI10octave_intIjEE9sort_rowsISt7greaterIS1_EEEvPKS1_PiiiT_@Base 3.4.3
 _ZN11octave_sortI10octave_intIjEEC1EPFbRKS1_S4_E@Base 3.4.3
 _ZN11octave_sortI10octave_intIjEEC1Ev@Base 3.4.3
 _ZN11octave_sortI10octave_intIjEEC2EPFbRKS1_S4_E@Base 3.4.3
 _ZN11octave_sortI10octave_intIjEEC2Ev@Base 3.4.3
 _ZN11octave_sortI10octave_intIjEED1Ev@Base 3.4.3
 _ZN11octave_sortI10octave_intIjEED2Ev@Base 3.4.3
 _ZN11octave_sortI10octave_intIsEE10MergeState5resetEv@Base 3.4.3
 _ZN11octave_sortI10octave_intIsEE10MergeState6getmemEi@Base 3.4.3
 _ZN11octave_sortI10octave_intIsEE10MergeState7getmemiEi@Base 3.4.3
 _ZN11octave_sortI10octave_intIsEE10MergeStateC1Ev@Base 3.4.3
 _ZN11octave_sortI10octave_intIsEE10MergeStateC2Ev@Base 3.4.3
 _ZN11octave_sortI10octave_intIsEE10MergeStateD1Ev@Base 3.4.3
 _ZN11octave_sortI10octave_intIsEE10MergeStateD2Ev@Base 3.4.3
 _ZN11octave_sortI10octave_intIsEE11gallop_leftIPFbRKS1_S5_EEEiS1_PS1_iiT_@Base 3.4.3
 _ZN11octave_sortI10octave_intIsEE11gallop_leftISt4lessIS1_EEEiS1_PS1_iiT_@Base 3.4.3
 _ZN11octave_sortI10octave_intIsEE11gallop_leftISt7greaterIS1_EEEiS1_PS1_iiT_@Base 3.4.3
 _ZN11octave_sortI10octave_intIsEE11nth_elementEPS1_iii@Base 3.4.3
 _ZN11octave_sortI10octave_intIsEE11nth_elementISt26pointer_to_binary_functionIRKS1_S6_bEEEvPS1_iiiT_@Base 3.4.3
 _ZN11octave_sortI10octave_intIsEE11nth_elementISt4lessIS1_EEEvPS1_iiiT_@Base 3.4.3
 _ZN11octave_sortI10octave_intIsEE11nth_elementISt7greaterIS1_EEEvPS1_iiiT_@Base 3.4.3
 _ZN11octave_sortI10octave_intIsEE11set_compareE8sortmode@Base 3.4.3
 _ZN11octave_sortI10octave_intIsEE11set_compareEPFbRKS1_S4_E@Base 3.4.3
 _ZN11octave_sortI10octave_intIsEE12gallop_rightIPFbRKS1_S5_EEEiS1_PS1_iiT_@Base 3.4.3
 _ZN11octave_sortI10octave_intIsEE12gallop_rightISt4lessIS1_EEEiS1_PS1_iiT_@Base 3.4.3
 _ZN11octave_sortI10octave_intIsEE12gallop_rightISt7greaterIS1_EEEiS1_PS1_iiT_@Base 3.4.3
 _ZN11octave_sortI10octave_intIsEE13lookup_sortedEPKS1_iS4_iPib@Base 3.4.3
 _ZN11octave_sortI10octave_intIsEE13lookup_sortedISt26pointer_to_binary_functionIRKS1_S6_bEEEvPS5_iS8_iPibT_@Base 3.4.3
 _ZN11octave_sortI10octave_intIsEE13lookup_sortedISt4lessIS1_EEEvPKS1_iS7_iPibT_@Base 3.4.3
 _ZN11octave_sortI10octave_intIsEE13lookup_sortedISt7greaterIS1_EEEvPKS1_iS7_iPibT_@Base 3.4.3
 _ZN11octave_sortI10octave_intIsEE14is_sorted_rowsEPKS1_ii@Base 3.4.3
 _ZN11octave_sortI10octave_intIsEE14is_sorted_rowsIPFbRKS1_S5_EEEbPS4_iiT_@Base 3.4.3
 _ZN11octave_sortI10octave_intIsEE14is_sorted_rowsISt4lessIS1_EEEbPKS1_iiT_@Base 3.4.3
 _ZN11octave_sortI10octave_intIsEE14is_sorted_rowsISt7greaterIS1_EEEbPKS1_iiT_@Base 3.4.3
 _ZN11octave_sortI10octave_intIsEE14merge_collapseIPFbRKS1_S5_EEEiPS1_PiT_@Base 3.4.3
 _ZN11octave_sortI10octave_intIsEE14merge_collapseIPFbRKS1_S5_EEEiPS1_T_@Base 3.4.3
 _ZN11octave_sortI10octave_intIsEE14merge_collapseISt4lessIS1_EEEiPS1_PiT_@Base 3.4.3
 _ZN11octave_sortI10octave_intIsEE14merge_collapseISt4lessIS1_EEEiPS1_T_@Base 3.4.3
 _ZN11octave_sortI10octave_intIsEE14merge_collapseISt7greaterIS1_EEEiPS1_PiT_@Base 3.4.3
 _ZN11octave_sortI10octave_intIsEE14merge_collapseISt7greaterIS1_EEEiPS1_T_@Base 3.4.3
 _ZN11octave_sortI10octave_intIsEE17ascending_compareERKS1_S4_@Base 3.4.3
 _ZN11octave_sortI10octave_intIsEE18descending_compareERKS1_S4_@Base 3.4.3
 _ZN11octave_sortI10octave_intIsEE20merge_compute_minrunEi@Base 3.4.3
 _ZN11octave_sortI10octave_intIsEE4sortEPS1_Pii@Base 3.4.3
 _ZN11octave_sortI10octave_intIsEE4sortEPS1_i@Base 3.4.3
 _ZN11octave_sortI10octave_intIsEE4sortIPFbRKS1_S5_EEEvPS1_PiiT_@Base 3.4.3
 _ZN11octave_sortI10octave_intIsEE4sortIPFbRKS1_S5_EEEvPS1_iT_@Base 3.4.3
 _ZN11octave_sortI10octave_intIsEE4sortISt4lessIS1_EEEvPS1_PiiT_@Base 3.4.3
 _ZN11octave_sortI10octave_intIsEE4sortISt4lessIS1_EEEvPS1_iT_@Base 3.4.3
 _ZN11octave_sortI10octave_intIsEE4sortISt7greaterIS1_EEEvPS1_PiiT_@Base 3.4.3
 _ZN11octave_sortI10octave_intIsEE4sortISt7greaterIS1_EEEvPS1_iT_@Base 3.4.3
 _ZN11octave_sortI10octave_intIsEE6lookupEPKS1_iRS3_@Base 3.4.3
 _ZN11octave_sortI10octave_intIsEE6lookupEPKS1_iS4_iPi@Base 3.4.3
 _ZN11octave_sortI10octave_intIsEE8merge_atIPFbRKS1_S5_EEEiiPS1_PiT_@Base 3.4.3
 _ZN11octave_sortI10octave_intIsEE8merge_atIPFbRKS1_S5_EEEiiPS1_T_@Base 3.4.3
 _ZN11octave_sortI10octave_intIsEE8merge_atISt4lessIS1_EEEiiPS1_PiT_@Base 3.4.3
 _ZN11octave_sortI10octave_intIsEE8merge_atISt4lessIS1_EEEiiPS1_T_@Base 3.4.3
 _ZN11octave_sortI10octave_intIsEE8merge_atISt7greaterIS1_EEEiiPS1_PiT_@Base 3.4.3
 _ZN11octave_sortI10octave_intIsEE8merge_atISt7greaterIS1_EEEiiPS1_T_@Base 3.4.3
 _ZN11octave_sortI10octave_intIsEE8merge_hiIPFbRKS1_S5_EEEiPS1_PiiS8_S9_iT_@Base 3.4.3
 _ZN11octave_sortI10octave_intIsEE8merge_hiIPFbRKS1_S5_EEEiPS1_iS8_iT_@Base 3.4.3
 _ZN11octave_sortI10octave_intIsEE8merge_hiISt4lessIS1_EEEiPS1_PiiS6_S7_iT_@Base 3.4.3
 _ZN11octave_sortI10octave_intIsEE8merge_hiISt4lessIS1_EEEiPS1_iS6_iT_@Base 3.4.3
 _ZN11octave_sortI10octave_intIsEE8merge_hiISt7greaterIS1_EEEiPS1_PiiS6_S7_iT_@Base 3.4.3
 _ZN11octave_sortI10octave_intIsEE8merge_hiISt7greaterIS1_EEEiPS1_iS6_iT_@Base 3.4.3
 _ZN11octave_sortI10octave_intIsEE8merge_loIPFbRKS1_S5_EEEiPS1_PiiS8_S9_iT_@Base 3.4.3
 _ZN11octave_sortI10octave_intIsEE8merge_loIPFbRKS1_S5_EEEiPS1_iS8_iT_@Base 3.4.3
 _ZN11octave_sortI10octave_intIsEE8merge_loISt4lessIS1_EEEiPS1_PiiS6_S7_iT_@Base 3.4.3
 _ZN11octave_sortI10octave_intIsEE8merge_loISt4lessIS1_EEEiPS1_iS6_iT_@Base 3.4.3
 _ZN11octave_sortI10octave_intIsEE8merge_loISt7greaterIS1_EEEiPS1_PiiS6_S7_iT_@Base 3.4.3
 _ZN11octave_sortI10octave_intIsEE8merge_loISt7greaterIS1_EEEiPS1_iS6_iT_@Base 3.4.3
 _ZN11octave_sortI10octave_intIsEE9is_sortedEPKS1_i@Base 3.4.3
 _ZN11octave_sortI10octave_intIsEE9sort_rowsEPKS1_Piii@Base 3.4.3
 _ZN11octave_sortI10octave_intIsEE9sort_rowsIPFbRKS1_S5_EEEvPS4_PiiiT_@Base 3.4.3
 _ZN11octave_sortI10octave_intIsEE9sort_rowsISt4lessIS1_EEEvPKS1_PiiiT_@Base 3.4.3
 _ZN11octave_sortI10octave_intIsEE9sort_rowsISt7greaterIS1_EEEvPKS1_PiiiT_@Base 3.4.3
 _ZN11octave_sortI10octave_intIsEEC1EPFbRKS1_S4_E@Base 3.4.3
 _ZN11octave_sortI10octave_intIsEEC1Ev@Base 3.4.3
 _ZN11octave_sortI10octave_intIsEEC2EPFbRKS1_S4_E@Base 3.4.3
 _ZN11octave_sortI10octave_intIsEEC2Ev@Base 3.4.3
 _ZN11octave_sortI10octave_intIsEED1Ev@Base 3.4.3
 _ZN11octave_sortI10octave_intIsEED2Ev@Base 3.4.3
 _ZN11octave_sortI10octave_intItEE10MergeState5resetEv@Base 3.4.3
 _ZN11octave_sortI10octave_intItEE10MergeState6getmemEi@Base 3.4.3
 _ZN11octave_sortI10octave_intItEE10MergeState7getmemiEi@Base 3.4.3
 _ZN11octave_sortI10octave_intItEE10MergeStateC1Ev@Base 3.4.3
 _ZN11octave_sortI10octave_intItEE10MergeStateC2Ev@Base 3.4.3
 _ZN11octave_sortI10octave_intItEE10MergeStateD1Ev@Base 3.4.3
 _ZN11octave_sortI10octave_intItEE10MergeStateD2Ev@Base 3.4.3
 _ZN11octave_sortI10octave_intItEE11gallop_leftIPFbRKS1_S5_EEEiS1_PS1_iiT_@Base 3.4.3
 _ZN11octave_sortI10octave_intItEE11gallop_leftISt4lessIS1_EEEiS1_PS1_iiT_@Base 3.4.3
 _ZN11octave_sortI10octave_intItEE11gallop_leftISt7greaterIS1_EEEiS1_PS1_iiT_@Base 3.4.3
 _ZN11octave_sortI10octave_intItEE11nth_elementEPS1_iii@Base 3.4.3
 _ZN11octave_sortI10octave_intItEE11nth_elementISt26pointer_to_binary_functionIRKS1_S6_bEEEvPS1_iiiT_@Base 3.4.3
 _ZN11octave_sortI10octave_intItEE11nth_elementISt4lessIS1_EEEvPS1_iiiT_@Base 3.4.3
 _ZN11octave_sortI10octave_intItEE11nth_elementISt7greaterIS1_EEEvPS1_iiiT_@Base 3.4.3
 _ZN11octave_sortI10octave_intItEE11set_compareE8sortmode@Base 3.4.3
 _ZN11octave_sortI10octave_intItEE11set_compareEPFbRKS1_S4_E@Base 3.4.3
 _ZN11octave_sortI10octave_intItEE12gallop_rightIPFbRKS1_S5_EEEiS1_PS1_iiT_@Base 3.4.3
 _ZN11octave_sortI10octave_intItEE12gallop_rightISt4lessIS1_EEEiS1_PS1_iiT_@Base 3.4.3
 _ZN11octave_sortI10octave_intItEE12gallop_rightISt7greaterIS1_EEEiS1_PS1_iiT_@Base 3.4.3
 _ZN11octave_sortI10octave_intItEE13lookup_sortedEPKS1_iS4_iPib@Base 3.4.3
 _ZN11octave_sortI10octave_intItEE13lookup_sortedISt26pointer_to_binary_functionIRKS1_S6_bEEEvPS5_iS8_iPibT_@Base 3.4.3
 _ZN11octave_sortI10octave_intItEE13lookup_sortedISt4lessIS1_EEEvPKS1_iS7_iPibT_@Base 3.4.3
 _ZN11octave_sortI10octave_intItEE13lookup_sortedISt7greaterIS1_EEEvPKS1_iS7_iPibT_@Base 3.4.3
 _ZN11octave_sortI10octave_intItEE14is_sorted_rowsEPKS1_ii@Base 3.4.3
 _ZN11octave_sortI10octave_intItEE14is_sorted_rowsIPFbRKS1_S5_EEEbPS4_iiT_@Base 3.4.3
 _ZN11octave_sortI10octave_intItEE14is_sorted_rowsISt4lessIS1_EEEbPKS1_iiT_@Base 3.4.3
 _ZN11octave_sortI10octave_intItEE14is_sorted_rowsISt7greaterIS1_EEEbPKS1_iiT_@Base 3.4.3
 _ZN11octave_sortI10octave_intItEE14merge_collapseIPFbRKS1_S5_EEEiPS1_PiT_@Base 3.4.3
 _ZN11octave_sortI10octave_intItEE14merge_collapseIPFbRKS1_S5_EEEiPS1_T_@Base 3.4.3
 _ZN11octave_sortI10octave_intItEE14merge_collapseISt4lessIS1_EEEiPS1_PiT_@Base 3.4.3
 _ZN11octave_sortI10octave_intItEE14merge_collapseISt4lessIS1_EEEiPS1_T_@Base 3.4.3
 _ZN11octave_sortI10octave_intItEE14merge_collapseISt7greaterIS1_EEEiPS1_PiT_@Base 3.4.3
 _ZN11octave_sortI10octave_intItEE14merge_collapseISt7greaterIS1_EEEiPS1_T_@Base 3.4.3
 _ZN11octave_sortI10octave_intItEE17ascending_compareERKS1_S4_@Base 3.4.3
 _ZN11octave_sortI10octave_intItEE18descending_compareERKS1_S4_@Base 3.4.3
 _ZN11octave_sortI10octave_intItEE20merge_compute_minrunEi@Base 3.4.3
 _ZN11octave_sortI10octave_intItEE4sortEPS1_Pii@Base 3.4.3
 _ZN11octave_sortI10octave_intItEE4sortEPS1_i@Base 3.4.3
 _ZN11octave_sortI10octave_intItEE4sortIPFbRKS1_S5_EEEvPS1_PiiT_@Base 3.4.3
 _ZN11octave_sortI10octave_intItEE4sortIPFbRKS1_S5_EEEvPS1_iT_@Base 3.4.3
 _ZN11octave_sortI10octave_intItEE4sortISt4lessIS1_EEEvPS1_PiiT_@Base 3.4.3
 _ZN11octave_sortI10octave_intItEE4sortISt4lessIS1_EEEvPS1_iT_@Base 3.4.3
 _ZN11octave_sortI10octave_intItEE4sortISt7greaterIS1_EEEvPS1_PiiT_@Base 3.4.3
 _ZN11octave_sortI10octave_intItEE4sortISt7greaterIS1_EEEvPS1_iT_@Base 3.4.3
 _ZN11octave_sortI10octave_intItEE6lookupEPKS1_iRS3_@Base 3.4.3
 _ZN11octave_sortI10octave_intItEE6lookupEPKS1_iS4_iPi@Base 3.4.3
 _ZN11octave_sortI10octave_intItEE8merge_atIPFbRKS1_S5_EEEiiPS1_PiT_@Base 3.4.3
 _ZN11octave_sortI10octave_intItEE8merge_atIPFbRKS1_S5_EEEiiPS1_T_@Base 3.4.3
 _ZN11octave_sortI10octave_intItEE8merge_atISt4lessIS1_EEEiiPS1_PiT_@Base 3.4.3
 _ZN11octave_sortI10octave_intItEE8merge_atISt4lessIS1_EEEiiPS1_T_@Base 3.4.3
 _ZN11octave_sortI10octave_intItEE8merge_atISt7greaterIS1_EEEiiPS1_PiT_@Base 3.4.3
 _ZN11octave_sortI10octave_intItEE8merge_atISt7greaterIS1_EEEiiPS1_T_@Base 3.4.3
 _ZN11octave_sortI10octave_intItEE8merge_hiIPFbRKS1_S5_EEEiPS1_PiiS8_S9_iT_@Base 3.4.3
 _ZN11octave_sortI10octave_intItEE8merge_hiIPFbRKS1_S5_EEEiPS1_iS8_iT_@Base 3.4.3
 _ZN11octave_sortI10octave_intItEE8merge_hiISt4lessIS1_EEEiPS1_PiiS6_S7_iT_@Base 3.4.3
 _ZN11octave_sortI10octave_intItEE8merge_hiISt4lessIS1_EEEiPS1_iS6_iT_@Base 3.4.3
 _ZN11octave_sortI10octave_intItEE8merge_hiISt7greaterIS1_EEEiPS1_PiiS6_S7_iT_@Base 3.4.3
 _ZN11octave_sortI10octave_intItEE8merge_hiISt7greaterIS1_EEEiPS1_iS6_iT_@Base 3.4.3
 _ZN11octave_sortI10octave_intItEE8merge_loIPFbRKS1_S5_EEEiPS1_PiiS8_S9_iT_@Base 3.4.3
 _ZN11octave_sortI10octave_intItEE8merge_loIPFbRKS1_S5_EEEiPS1_iS8_iT_@Base 3.4.3
 _ZN11octave_sortI10octave_intItEE8merge_loISt4lessIS1_EEEiPS1_PiiS6_S7_iT_@Base 3.4.3
 _ZN11octave_sortI10octave_intItEE8merge_loISt4lessIS1_EEEiPS1_iS6_iT_@Base 3.4.3
 _ZN11octave_sortI10octave_intItEE8merge_loISt7greaterIS1_EEEiPS1_PiiS6_S7_iT_@Base 3.4.3
 _ZN11octave_sortI10octave_intItEE8merge_loISt7greaterIS1_EEEiPS1_iS6_iT_@Base 3.4.3
 _ZN11octave_sortI10octave_intItEE9is_sortedEPKS1_i@Base 3.4.3
 _ZN11octave_sortI10octave_intItEE9sort_rowsEPKS1_Piii@Base 3.4.3
 _ZN11octave_sortI10octave_intItEE9sort_rowsIPFbRKS1_S5_EEEvPS4_PiiiT_@Base 3.4.3
 _ZN11octave_sortI10octave_intItEE9sort_rowsISt4lessIS1_EEEvPKS1_PiiiT_@Base 3.4.3
 _ZN11octave_sortI10octave_intItEE9sort_rowsISt7greaterIS1_EEEvPKS1_PiiiT_@Base 3.4.3
 _ZN11octave_sortI10octave_intItEEC1EPFbRKS1_S4_E@Base 3.4.3
 _ZN11octave_sortI10octave_intItEEC1Ev@Base 3.4.3
 _ZN11octave_sortI10octave_intItEEC2EPFbRKS1_S4_E@Base 3.4.3
 _ZN11octave_sortI10octave_intItEEC2Ev@Base 3.4.3
 _ZN11octave_sortI10octave_intItEED1Ev@Base 3.4.3
 _ZN11octave_sortI10octave_intItEED2Ev@Base 3.4.3
 _ZN11octave_sortIP22octave_idx_vector_sortE10MergeState5resetEv@Base 3.4.3
 _ZN11octave_sortIP22octave_idx_vector_sortE10MergeState6getmemEi@Base 3.4.3
 _ZN11octave_sortIP22octave_idx_vector_sortE10MergeState7getmemiEi@Base 3.4.3
 _ZN11octave_sortIP22octave_idx_vector_sortE10MergeStateC1Ev@Base 3.4.3
 _ZN11octave_sortIP22octave_idx_vector_sortE10MergeStateC2Ev@Base 3.4.3
 _ZN11octave_sortIP22octave_idx_vector_sortE10MergeStateD1Ev@Base 3.4.3
 _ZN11octave_sortIP22octave_idx_vector_sortE10MergeStateD2Ev@Base 3.4.3
 _ZN11octave_sortIP22octave_idx_vector_sortE11gallop_leftIPFbS1_S1_EEEiS1_PS1_iiT_@Base 3.4.3
 _ZN11octave_sortIP22octave_idx_vector_sortE11nth_elementEPS1_iii@Base 3.4.3
 _ZN11octave_sortIP22octave_idx_vector_sortE11nth_elementISt26pointer_to_binary_functionIS1_S1_bEEEvPS1_iiiT_@Base 3.4.3
 _ZN11octave_sortIP22octave_idx_vector_sortE11set_compareE8sortmode@Base 3.4.3
 _ZN11octave_sortIP22octave_idx_vector_sortE11set_compareEPFbS1_S1_E@Base 3.4.3
 _ZN11octave_sortIP22octave_idx_vector_sortE12gallop_rightIPFbS1_S1_EEEiS1_PS1_iiT_@Base 3.4.3
 _ZN11octave_sortIP22octave_idx_vector_sortE13lookup_sortedEPKS1_iS4_iPib@Base 3.4.3
 _ZN11octave_sortIP22octave_idx_vector_sortE13lookup_sortedISt26pointer_to_binary_functionIS1_S1_bEEEvPKS1_iS7_iPibT_@Base 3.4.3
 _ZN11octave_sortIP22octave_idx_vector_sortE14is_sorted_rowsEPKS1_ii@Base 3.4.3
 _ZN11octave_sortIP22octave_idx_vector_sortE14is_sorted_rowsIPFbS1_S1_EEEbPKS1_iiT_@Base 3.4.3
 _ZN11octave_sortIP22octave_idx_vector_sortE14merge_collapseIPFbS1_S1_EEEiPS1_PiT_@Base 3.4.3
 _ZN11octave_sortIP22octave_idx_vector_sortE14merge_collapseIPFbS1_S1_EEEiPS1_T_@Base 3.4.3
 _ZN11octave_sortIP22octave_idx_vector_sortE17ascending_compareES1_S1_@Base 3.4.3
 _ZN11octave_sortIP22octave_idx_vector_sortE18descending_compareES1_S1_@Base 3.4.3
 _ZN11octave_sortIP22octave_idx_vector_sortE20merge_compute_minrunEi@Base 3.4.3
 _ZN11octave_sortIP22octave_idx_vector_sortE4sortEPS1_Pii@Base 3.4.3
 _ZN11octave_sortIP22octave_idx_vector_sortE4sortEPS1_i@Base 3.4.3
 _ZN11octave_sortIP22octave_idx_vector_sortE4sortIPFbS1_S1_EEEvPS1_PiiT_@Base 3.4.3
 _ZN11octave_sortIP22octave_idx_vector_sortE4sortIPFbS1_S1_EEEvPS1_iT_@Base 3.4.3
 _ZN11octave_sortIP22octave_idx_vector_sortE6lookupEPKS1_iRS3_@Base 3.4.3
 _ZN11octave_sortIP22octave_idx_vector_sortE6lookupEPKS1_iS4_iPi@Base 3.4.3
 _ZN11octave_sortIP22octave_idx_vector_sortE8merge_atIPFbS1_S1_EEEiiPS1_PiT_@Base 3.4.3
 _ZN11octave_sortIP22octave_idx_vector_sortE8merge_atIPFbS1_S1_EEEiiPS1_T_@Base 3.4.3
 _ZN11octave_sortIP22octave_idx_vector_sortE8merge_hiIPFbS1_S1_EEEiPS1_PiiS6_S7_iT_@Base 3.4.3
 _ZN11octave_sortIP22octave_idx_vector_sortE8merge_hiIPFbS1_S1_EEEiPS1_iS6_iT_@Base 3.4.3
 _ZN11octave_sortIP22octave_idx_vector_sortE8merge_loIPFbS1_S1_EEEiPS1_PiiS6_S7_iT_@Base 3.4.3
 _ZN11octave_sortIP22octave_idx_vector_sortE8merge_loIPFbS1_S1_EEEiPS1_iS6_iT_@Base 3.4.3
 _ZN11octave_sortIP22octave_idx_vector_sortE9is_sortedEPKS1_i@Base 3.4.3
 _ZN11octave_sortIP22octave_idx_vector_sortE9sort_rowsEPKS1_Piii@Base 3.4.3
 _ZN11octave_sortIP22octave_idx_vector_sortE9sort_rowsIPFbS1_S1_EEEvPKS1_PiiiT_@Base 3.4.3
 _ZN11octave_sortIP22octave_idx_vector_sortEC1EPFbS1_S1_E@Base 3.4.3
 _ZN11octave_sortIP22octave_idx_vector_sortEC1Ev@Base 3.4.3
 _ZN11octave_sortIP22octave_idx_vector_sortEC2EPFbS1_S1_E@Base 3.4.3
 _ZN11octave_sortIP22octave_idx_vector_sortEC2Ev@Base 3.4.3
 _ZN11octave_sortIP22octave_idx_vector_sortED1Ev@Base 3.4.3
 _ZN11octave_sortIP22octave_idx_vector_sortED2Ev@Base 3.4.3
 _ZN11octave_sortIP23octave_sparse_sort_idxlE10MergeState5resetEv@Base 3.4.3
 _ZN11octave_sortIP23octave_sparse_sort_idxlE10MergeState6getmemEi@Base 3.4.3
 _ZN11octave_sortIP23octave_sparse_sort_idxlE10MergeState7getmemiEi@Base 3.4.3
 _ZN11octave_sortIP23octave_sparse_sort_idxlE10MergeStateC1Ev@Base 3.4.3
 _ZN11octave_sortIP23octave_sparse_sort_idxlE10MergeStateC2Ev@Base 3.4.3
 _ZN11octave_sortIP23octave_sparse_sort_idxlE10MergeStateD1Ev@Base 3.4.3
 _ZN11octave_sortIP23octave_sparse_sort_idxlE10MergeStateD2Ev@Base 3.4.3
 _ZN11octave_sortIP23octave_sparse_sort_idxlE11gallop_leftIPFbS1_S1_EEEiS1_PS1_iiT_@Base 3.4.3
 _ZN11octave_sortIP23octave_sparse_sort_idxlE11nth_elementEPS1_iii@Base 3.4.3
 _ZN11octave_sortIP23octave_sparse_sort_idxlE11nth_elementISt26pointer_to_binary_functionIS1_S1_bEEEvPS1_iiiT_@Base 3.4.3
 _ZN11octave_sortIP23octave_sparse_sort_idxlE11set_compareE8sortmode@Base 3.4.3
 _ZN11octave_sortIP23octave_sparse_sort_idxlE11set_compareEPFbS1_S1_E@Base 3.4.3
 _ZN11octave_sortIP23octave_sparse_sort_idxlE12gallop_rightIPFbS1_S1_EEEiS1_PS1_iiT_@Base 3.4.3
 _ZN11octave_sortIP23octave_sparse_sort_idxlE13lookup_sortedEPKS1_iS4_iPib@Base 3.4.3
 _ZN11octave_sortIP23octave_sparse_sort_idxlE13lookup_sortedISt26pointer_to_binary_functionIS1_S1_bEEEvPKS1_iS7_iPibT_@Base 3.4.3
 _ZN11octave_sortIP23octave_sparse_sort_idxlE14is_sorted_rowsEPKS1_ii@Base 3.4.3
 _ZN11octave_sortIP23octave_sparse_sort_idxlE14is_sorted_rowsIPFbS1_S1_EEEbPKS1_iiT_@Base 3.4.3
 _ZN11octave_sortIP23octave_sparse_sort_idxlE14merge_collapseIPFbS1_S1_EEEiPS1_PiT_@Base 3.4.3
 _ZN11octave_sortIP23octave_sparse_sort_idxlE14merge_collapseIPFbS1_S1_EEEiPS1_T_@Base 3.4.3
 _ZN11octave_sortIP23octave_sparse_sort_idxlE17ascending_compareES1_S1_@Base 3.4.3
 _ZN11octave_sortIP23octave_sparse_sort_idxlE18descending_compareES1_S1_@Base 3.4.3
 _ZN11octave_sortIP23octave_sparse_sort_idxlE20merge_compute_minrunEi@Base 3.4.3
 _ZN11octave_sortIP23octave_sparse_sort_idxlE4sortEPS1_Pii@Base 3.4.3
 _ZN11octave_sortIP23octave_sparse_sort_idxlE4sortEPS1_i@Base 3.4.3
 _ZN11octave_sortIP23octave_sparse_sort_idxlE4sortIPFbS1_S1_EEEvPS1_PiiT_@Base 3.4.3
 _ZN11octave_sortIP23octave_sparse_sort_idxlE4sortIPFbS1_S1_EEEvPS1_iT_@Base 3.4.3
 _ZN11octave_sortIP23octave_sparse_sort_idxlE6lookupEPKS1_iRS3_@Base 3.4.3
 _ZN11octave_sortIP23octave_sparse_sort_idxlE6lookupEPKS1_iS4_iPi@Base 3.4.3
 _ZN11octave_sortIP23octave_sparse_sort_idxlE8merge_atIPFbS1_S1_EEEiiPS1_PiT_@Base 3.4.3
 _ZN11octave_sortIP23octave_sparse_sort_idxlE8merge_atIPFbS1_S1_EEEiiPS1_T_@Base 3.4.3
 _ZN11octave_sortIP23octave_sparse_sort_idxlE8merge_hiIPFbS1_S1_EEEiPS1_PiiS6_S7_iT_@Base 3.4.3
 _ZN11octave_sortIP23octave_sparse_sort_idxlE8merge_hiIPFbS1_S1_EEEiPS1_iS6_iT_@Base 3.4.3
 _ZN11octave_sortIP23octave_sparse_sort_idxlE8merge_loIPFbS1_S1_EEEiPS1_PiiS6_S7_iT_@Base 3.4.3
 _ZN11octave_sortIP23octave_sparse_sort_idxlE8merge_loIPFbS1_S1_EEEiPS1_iS6_iT_@Base 3.4.3
 _ZN11octave_sortIP23octave_sparse_sort_idxlE9is_sortedEPKS1_i@Base 3.4.3
 _ZN11octave_sortIP23octave_sparse_sort_idxlE9sort_rowsEPKS1_Piii@Base 3.4.3
 _ZN11octave_sortIP23octave_sparse_sort_idxlE9sort_rowsIPFbS1_S1_EEEvPKS1_PiiiT_@Base 3.4.3
 _ZN11octave_sortIP23octave_sparse_sort_idxlEC1EPFbS1_S1_E@Base 3.4.3
 _ZN11octave_sortIP23octave_sparse_sort_idxlEC1Ev@Base 3.4.3
 _ZN11octave_sortIP23octave_sparse_sort_idxlEC2EPFbS1_S1_E@Base 3.4.3
 _ZN11octave_sortIP23octave_sparse_sort_idxlEC2Ev@Base 3.4.3
 _ZN11octave_sortIP23octave_sparse_sort_idxlED1Ev@Base 3.4.3
 _ZN11octave_sortIP23octave_sparse_sort_idxlED2Ev@Base 3.4.3
 _ZN11octave_sortISsE10MergeState5resetEv@Base 3.4.3
 _ZN11octave_sortISsE10MergeState6getmemEi@Base 3.4.3
 _ZN11octave_sortISsE10MergeState7getmemiEi@Base 3.4.3
 _ZN11octave_sortISsE10MergeStateC1Ev@Base 3.4.3
 _ZN11octave_sortISsE10MergeStateC2Ev@Base 3.4.3
 _ZN11octave_sortISsE10MergeStateD1Ev@Base 3.4.3
 _ZN11octave_sortISsE10MergeStateD2Ev@Base 3.4.3
 _ZN11octave_sortISsE11gallop_leftIPFbRKSsS3_EEEiSsPSsiiT_@Base 3.4.3
 _ZN11octave_sortISsE11nth_elementEPSsiii@Base 3.4.3
 _ZN11octave_sortISsE11nth_elementISt26pointer_to_binary_functionIRKSsS4_bEEEvPSsiiiT_@Base 3.4.3
 _ZN11octave_sortISsE11set_compareE8sortmode@Base 3.4.3
 _ZN11octave_sortISsE11set_compareEPFbRKSsS2_E@Base 3.4.3
 _ZN11octave_sortISsE12gallop_rightIPFbRKSsS3_EEEiSsPSsiiT_@Base 3.4.3
 _ZN11octave_sortISsE13lookup_sortedEPKSsiS2_iPib@Base 3.4.3
 _ZN11octave_sortISsE13lookup_sortedISt26pointer_to_binary_functionIRKSsS4_bEEEvPS3_iS6_iPibT_@Base 3.4.3
 _ZN11octave_sortISsE14is_sorted_rowsEPKSsii@Base 3.4.3
 _ZN11octave_sortISsE14is_sorted_rowsIPFbRKSsS3_EEEbPS2_iiT_@Base 3.4.3
 _ZN11octave_sortISsE14merge_collapseIPFbRKSsS3_EEEiPSsPiT_@Base 3.4.3
 _ZN11octave_sortISsE14merge_collapseIPFbRKSsS3_EEEiPSsT_@Base 3.4.3
 _ZN11octave_sortISsE17ascending_compareERKSsS2_@Base 3.4.3
 _ZN11octave_sortISsE18descending_compareERKSsS2_@Base 3.4.3
 _ZN11octave_sortISsE20merge_compute_minrunEi@Base 3.4.3
 _ZN11octave_sortISsE4sortEPSsPii@Base 3.4.3
 _ZN11octave_sortISsE4sortEPSsi@Base 3.4.3
 _ZN11octave_sortISsE4sortIPFbRKSsS3_EEEvPSsPiiT_@Base 3.4.3
 _ZN11octave_sortISsE4sortIPFbRKSsS3_EEEvPSsiT_@Base 3.4.3
 _ZN11octave_sortISsE6lookupEPKSsiRS1_@Base 3.4.3
 _ZN11octave_sortISsE6lookupEPKSsiS2_iPi@Base 3.4.3
 _ZN11octave_sortISsE8merge_atIPFbRKSsS3_EEEiiPSsPiT_@Base 3.4.3
 _ZN11octave_sortISsE8merge_atIPFbRKSsS3_EEEiiPSsT_@Base 3.4.3
 _ZN11octave_sortISsE8merge_hiIPFbRKSsS3_EEEiPSsPiiS6_S7_iT_@Base 3.4.3
 _ZN11octave_sortISsE8merge_hiIPFbRKSsS3_EEEiPSsiS6_iT_@Base 3.4.3
 _ZN11octave_sortISsE8merge_loIPFbRKSsS3_EEEiPSsPiiS6_S7_iT_@Base 3.4.3
 _ZN11octave_sortISsE8merge_loIPFbRKSsS3_EEEiPSsiS6_iT_@Base 3.4.3
 _ZN11octave_sortISsE9is_sortedEPKSsi@Base 3.4.3
 _ZN11octave_sortISsE9sort_rowsEPKSsPiii@Base 3.4.3
 _ZN11octave_sortISsE9sort_rowsIPFbRKSsS3_EEEvPS2_PiiiT_@Base 3.4.3
 _ZN11octave_sortISsEC1EPFbRKSsS2_E@Base 3.4.3
 _ZN11octave_sortISsEC1Ev@Base 3.4.3
 _ZN11octave_sortISsEC2EPFbRKSsS2_E@Base 3.4.3
 _ZN11octave_sortISsEC2Ev@Base 3.4.3
 _ZN11octave_sortISsED1Ev@Base 3.4.3
 _ZN11octave_sortISsED2Ev@Base 3.4.3
 _ZN11octave_sortISt7complexIdEE10MergeState5resetEv@Base 3.4.3
 _ZN11octave_sortISt7complexIdEE10MergeState6getmemEi@Base 3.4.3
 _ZN11octave_sortISt7complexIdEE10MergeState7getmemiEi@Base 3.4.3
 _ZN11octave_sortISt7complexIdEE10MergeStateC1Ev@Base 3.4.3
 _ZN11octave_sortISt7complexIdEE10MergeStateC2Ev@Base 3.4.3
 _ZN11octave_sortISt7complexIdEE10MergeStateD1Ev@Base 3.4.3
 _ZN11octave_sortISt7complexIdEE10MergeStateD2Ev@Base 3.4.3
 _ZN11octave_sortISt7complexIdEE11gallop_leftIPFbRKS1_S5_EEEiS1_PS1_iiT_@Base 3.4.3
 _ZN11octave_sortISt7complexIdEE11nth_elementEPS1_iii@Base 3.4.3
 _ZN11octave_sortISt7complexIdEE11nth_elementISt26pointer_to_binary_functionIRKS1_S6_bEEEvPS1_iiiT_@Base 3.4.3
 _ZN11octave_sortISt7complexIdEE11set_compareE8sortmode@Base 3.4.3
 _ZN11octave_sortISt7complexIdEE11set_compareEPFbRKS1_S4_E@Base 3.4.3
 _ZN11octave_sortISt7complexIdEE12gallop_rightIPFbRKS1_S5_EEEiS1_PS1_iiT_@Base 3.4.3
 _ZN11octave_sortISt7complexIdEE13lookup_sortedEPKS1_iS4_iPib@Base 3.4.3
 _ZN11octave_sortISt7complexIdEE13lookup_sortedISt26pointer_to_binary_functionIRKS1_S6_bEEEvPS5_iS8_iPibT_@Base 3.4.3
 _ZN11octave_sortISt7complexIdEE14is_sorted_rowsEPKS1_ii@Base 3.4.3
 _ZN11octave_sortISt7complexIdEE14is_sorted_rowsIPFbRKS1_S5_EEEbPS4_iiT_@Base 3.4.3
 _ZN11octave_sortISt7complexIdEE14merge_collapseIPFbRKS1_S5_EEEiPS1_PiT_@Base 3.4.3
 _ZN11octave_sortISt7complexIdEE14merge_collapseIPFbRKS1_S5_EEEiPS1_T_@Base 3.4.3
 _ZN11octave_sortISt7complexIdEE17ascending_compareERKS1_S4_@Base 3.4.3
 _ZN11octave_sortISt7complexIdEE18descending_compareERKS1_S4_@Base 3.4.3
 _ZN11octave_sortISt7complexIdEE20merge_compute_minrunEi@Base 3.4.3
 _ZN11octave_sortISt7complexIdEE4sortEPS1_Pii@Base 3.4.3
 _ZN11octave_sortISt7complexIdEE4sortEPS1_i@Base 3.4.3
 _ZN11octave_sortISt7complexIdEE4sortIPFbRKS1_S5_EEEvPS1_PiiT_@Base 3.4.3
 _ZN11octave_sortISt7complexIdEE4sortIPFbRKS1_S5_EEEvPS1_iT_@Base 3.4.3
 _ZN11octave_sortISt7complexIdEE6lookupEPKS1_iRS3_@Base 3.4.3
 _ZN11octave_sortISt7complexIdEE6lookupEPKS1_iS4_iPi@Base 3.4.3
 _ZN11octave_sortISt7complexIdEE8merge_atIPFbRKS1_S5_EEEiiPS1_PiT_@Base 3.4.3
 _ZN11octave_sortISt7complexIdEE8merge_atIPFbRKS1_S5_EEEiiPS1_T_@Base 3.4.3
 _ZN11octave_sortISt7complexIdEE8merge_hiIPFbRKS1_S5_EEEiPS1_PiiS8_S9_iT_@Base 3.4.3
 _ZN11octave_sortISt7complexIdEE8merge_hiIPFbRKS1_S5_EEEiPS1_iS8_iT_@Base 3.4.3
 _ZN11octave_sortISt7complexIdEE8merge_loIPFbRKS1_S5_EEEiPS1_PiiS8_S9_iT_@Base 3.4.3
 _ZN11octave_sortISt7complexIdEE8merge_loIPFbRKS1_S5_EEEiPS1_iS8_iT_@Base 3.4.3
 _ZN11octave_sortISt7complexIdEE9is_sortedEPKS1_i@Base 3.4.3
 _ZN11octave_sortISt7complexIdEE9sort_rowsEPKS1_Piii@Base 3.4.3
 _ZN11octave_sortISt7complexIdEE9sort_rowsIPFbRKS1_S5_EEEvPS4_PiiiT_@Base 3.4.3
 _ZN11octave_sortISt7complexIdEEC1EPFbRKS1_S4_E@Base 3.4.3
 _ZN11octave_sortISt7complexIdEEC1Ev@Base 3.4.3
 _ZN11octave_sortISt7complexIdEEC2EPFbRKS1_S4_E@Base 3.4.3
 _ZN11octave_sortISt7complexIdEEC2Ev@Base 3.4.3
 _ZN11octave_sortISt7complexIdEED1Ev@Base 3.4.3
 _ZN11octave_sortISt7complexIdEED2Ev@Base 3.4.3
 _ZN11octave_sortISt7complexIfEE10MergeState5resetEv@Base 3.4.3
 _ZN11octave_sortISt7complexIfEE10MergeState6getmemEi@Base 3.4.3
 _ZN11octave_sortISt7complexIfEE10MergeState7getmemiEi@Base 3.4.3
 _ZN11octave_sortISt7complexIfEE10MergeStateC1Ev@Base 3.4.3
 _ZN11octave_sortISt7complexIfEE10MergeStateC2Ev@Base 3.4.3
 _ZN11octave_sortISt7complexIfEE10MergeStateD1Ev@Base 3.4.3
 _ZN11octave_sortISt7complexIfEE10MergeStateD2Ev@Base 3.4.3
 _ZN11octave_sortISt7complexIfEE11gallop_leftIPFbRKS1_S5_EEEiS1_PS1_iiT_@Base 3.4.3
 _ZN11octave_sortISt7complexIfEE11nth_elementEPS1_iii@Base 3.4.3
 _ZN11octave_sortISt7complexIfEE11nth_elementISt26pointer_to_binary_functionIRKS1_S6_bEEEvPS1_iiiT_@Base 3.4.3
 _ZN11octave_sortISt7complexIfEE11set_compareE8sortmode@Base 3.4.3
 _ZN11octave_sortISt7complexIfEE11set_compareEPFbRKS1_S4_E@Base 3.4.3
 _ZN11octave_sortISt7complexIfEE12gallop_rightIPFbRKS1_S5_EEEiS1_PS1_iiT_@Base 3.4.3
 _ZN11octave_sortISt7complexIfEE13lookup_sortedEPKS1_iS4_iPib@Base 3.4.3
 _ZN11octave_sortISt7complexIfEE13lookup_sortedISt26pointer_to_binary_functionIRKS1_S6_bEEEvPS5_iS8_iPibT_@Base 3.4.3
 _ZN11octave_sortISt7complexIfEE14is_sorted_rowsEPKS1_ii@Base 3.4.3
 _ZN11octave_sortISt7complexIfEE14is_sorted_rowsIPFbRKS1_S5_EEEbPS4_iiT_@Base 3.4.3
 _ZN11octave_sortISt7complexIfEE14merge_collapseIPFbRKS1_S5_EEEiPS1_PiT_@Base 3.4.3
 _ZN11octave_sortISt7complexIfEE14merge_collapseIPFbRKS1_S5_EEEiPS1_T_@Base 3.4.3
 _ZN11octave_sortISt7complexIfEE17ascending_compareERKS1_S4_@Base 3.4.3
 _ZN11octave_sortISt7complexIfEE18descending_compareERKS1_S4_@Base 3.4.3
 _ZN11octave_sortISt7complexIfEE20merge_compute_minrunEi@Base 3.4.3
 _ZN11octave_sortISt7complexIfEE4sortEPS1_Pii@Base 3.4.3
 _ZN11octave_sortISt7complexIfEE4sortEPS1_i@Base 3.4.3
 _ZN11octave_sortISt7complexIfEE4sortIPFbRKS1_S5_EEEvPS1_PiiT_@Base 3.4.3
 _ZN11octave_sortISt7complexIfEE4sortIPFbRKS1_S5_EEEvPS1_iT_@Base 3.4.3
 _ZN11octave_sortISt7complexIfEE6lookupEPKS1_iRS3_@Base 3.4.3
 _ZN11octave_sortISt7complexIfEE6lookupEPKS1_iS4_iPi@Base 3.4.3
 _ZN11octave_sortISt7complexIfEE8merge_atIPFbRKS1_S5_EEEiiPS1_PiT_@Base 3.4.3
 _ZN11octave_sortISt7complexIfEE8merge_atIPFbRKS1_S5_EEEiiPS1_T_@Base 3.4.3
 _ZN11octave_sortISt7complexIfEE8merge_hiIPFbRKS1_S5_EEEiPS1_PiiS8_S9_iT_@Base 3.4.3
 _ZN11octave_sortISt7complexIfEE8merge_hiIPFbRKS1_S5_EEEiPS1_iS8_iT_@Base 3.4.3
 _ZN11octave_sortISt7complexIfEE8merge_loIPFbRKS1_S5_EEEiPS1_PiiS8_S9_iT_@Base 3.4.3
 _ZN11octave_sortISt7complexIfEE8merge_loIPFbRKS1_S5_EEEiPS1_iS8_iT_@Base 3.4.3
 _ZN11octave_sortISt7complexIfEE9is_sortedEPKS1_i@Base 3.4.3
 _ZN11octave_sortISt7complexIfEE9sort_rowsEPKS1_Piii@Base 3.4.3
 _ZN11octave_sortISt7complexIfEE9sort_rowsIPFbRKS1_S5_EEEvPS4_PiiiT_@Base 3.4.3
 _ZN11octave_sortISt7complexIfEEC1EPFbRKS1_S4_E@Base 3.4.3
 _ZN11octave_sortISt7complexIfEEC1Ev@Base 3.4.3
 _ZN11octave_sortISt7complexIfEEC2EPFbRKS1_S4_E@Base 3.4.3
 _ZN11octave_sortISt7complexIfEEC2Ev@Base 3.4.3
 _ZN11octave_sortISt7complexIfEED1Ev@Base 3.4.3
 _ZN11octave_sortISt7complexIfEED2Ev@Base 3.4.3
 _ZN11octave_sortIbE10MergeState5resetEv@Base 3.4.3
 _ZN11octave_sortIbE10MergeState6getmemEi@Base 3.4.3
 _ZN11octave_sortIbE10MergeState7getmemiEi@Base 3.4.3
 _ZN11octave_sortIbE10MergeStateC1Ev@Base 3.4.3
 _ZN11octave_sortIbE10MergeStateC2Ev@Base 3.4.3
 _ZN11octave_sortIbE10MergeStateD1Ev@Base 3.4.3
 _ZN11octave_sortIbE10MergeStateD2Ev@Base 3.4.3
 _ZN11octave_sortIbE11gallop_leftIPFbbbEEEibPbiiT_@Base 3.4.3
 _ZN11octave_sortIbE11nth_elementEPbiii@Base 3.4.3
 _ZN11octave_sortIbE11nth_elementISt26pointer_to_binary_functionIbbbEEEvPbiiiT_@Base 3.4.3
 _ZN11octave_sortIbE11nth_elementISt4lessIbEEEvPbiiiT_@Base 3.4.3
 _ZN11octave_sortIbE11nth_elementISt7greaterIbEEEvPbiiiT_@Base 3.4.3
 _ZN11octave_sortIbE11set_compareE8sortmode@Base 3.4.3
 _ZN11octave_sortIbE11set_compareEPFbbbE@Base 3.4.3
 _ZN11octave_sortIbE12gallop_rightIPFbbbEEEibPbiiT_@Base 3.4.3
 _ZN11octave_sortIbE13lookup_sortedEPKbiS2_iPib@Base 3.4.3
 _ZN11octave_sortIbE13lookup_sortedISt26pointer_to_binary_functionIbbbEEEvPKbiS5_iPibT_@Base 3.4.3
 _ZN11octave_sortIbE13lookup_sortedISt4lessIbEEEvPKbiS5_iPibT_@Base 3.4.3
 _ZN11octave_sortIbE13lookup_sortedISt7greaterIbEEEvPKbiS5_iPibT_@Base 3.4.3
 _ZN11octave_sortIbE14is_sorted_rowsEPKbii@Base 3.4.3
 _ZN11octave_sortIbE14is_sorted_rowsIPFbbbEEEbPKbiiT_@Base 3.4.3
 _ZN11octave_sortIbE14is_sorted_rowsISt4lessIbEEEbPKbiiT_@Base 3.4.3
 _ZN11octave_sortIbE14is_sorted_rowsISt7greaterIbEEEbPKbiiT_@Base 3.4.3
 _ZN11octave_sortIbE14merge_collapseIPFbbbEEEiPbPiT_@Base 3.4.3
 _ZN11octave_sortIbE14merge_collapseIPFbbbEEEiPbT_@Base 3.4.3
 _ZN11octave_sortIbE17ascending_compareEbb@Base 3.4.3
 _ZN11octave_sortIbE18descending_compareEbb@Base 3.4.3
 _ZN11octave_sortIbE20merge_compute_minrunEi@Base 3.4.3
 _ZN11octave_sortIbE4sortEPbPii@Base 3.4.3
 _ZN11octave_sortIbE4sortEPbi@Base 3.4.3
 _ZN11octave_sortIbE4sortIPFbbbEEEvPbPiiT_@Base 3.4.3
 _ZN11octave_sortIbE4sortIPFbbbEEEvPbiT_@Base 3.4.3
 _ZN11octave_sortIbE4sortISt4lessIbEEEvPbPiiT_@Base 3.4.3
 _ZN11octave_sortIbE4sortISt4lessIbEEEvPbiT_@Base 3.4.3
 _ZN11octave_sortIbE4sortISt7greaterIbEEEvPbPiiT_@Base 3.4.3
 _ZN11octave_sortIbE4sortISt7greaterIbEEEvPbiT_@Base 3.4.3
 _ZN11octave_sortIbE6lookupEPKbiRS1_@Base 3.4.3
 _ZN11octave_sortIbE6lookupEPKbiS2_iPi@Base 3.4.3
 _ZN11octave_sortIbE8merge_atIPFbbbEEEiiPbPiT_@Base 3.4.3
 _ZN11octave_sortIbE8merge_atIPFbbbEEEiiPbT_@Base 3.4.3
 _ZN11octave_sortIbE8merge_hiIPFbbbEEEiPbPiiS4_S5_iT_@Base 3.4.3
 _ZN11octave_sortIbE8merge_hiIPFbbbEEEiPbiS4_iT_@Base 3.4.3
 _ZN11octave_sortIbE8merge_loIPFbbbEEEiPbPiiS4_S5_iT_@Base 3.4.3
 _ZN11octave_sortIbE8merge_loIPFbbbEEEiPbiS4_iT_@Base 3.4.3
 _ZN11octave_sortIbE9is_sortedEPKbi@Base 3.4.3
 _ZN11octave_sortIbE9sort_rowsEPKbPiii@Base 3.4.3
 _ZN11octave_sortIbE9sort_rowsIPFbbbEEEvPKbPiiiT_@Base 3.4.3
 _ZN11octave_sortIbE9sort_rowsISt4lessIbEEEvPKbPiiiT_@Base 3.4.3
 _ZN11octave_sortIbE9sort_rowsISt7greaterIbEEEvPKbPiiiT_@Base 3.4.3
 _ZN11octave_sortIbEC1EPFbbbE@Base 3.4.3
 _ZN11octave_sortIbEC1Ev@Base 3.4.3
 _ZN11octave_sortIbEC2EPFbbbE@Base 3.4.3
 _ZN11octave_sortIbEC2Ev@Base 3.4.3
 _ZN11octave_sortIbED1Ev@Base 3.4.3
 _ZN11octave_sortIbED2Ev@Base 3.4.3
 _ZN11octave_sortIcE10MergeState5resetEv@Base 3.4.3
 _ZN11octave_sortIcE10MergeState6getmemEi@Base 3.4.3
 _ZN11octave_sortIcE10MergeState7getmemiEi@Base 3.4.3
 _ZN11octave_sortIcE10MergeStateC1Ev@Base 3.4.3
 _ZN11octave_sortIcE10MergeStateC2Ev@Base 3.4.3
 _ZN11octave_sortIcE10MergeStateD1Ev@Base 3.4.3
 _ZN11octave_sortIcE10MergeStateD2Ev@Base 3.4.3
 _ZN11octave_sortIcE11gallop_leftIPFbccEEEicPciiT_@Base 3.4.3
 _ZN11octave_sortIcE11gallop_leftISt4lessIcEEEicPciiT_@Base 3.4.3
 _ZN11octave_sortIcE11gallop_leftISt7greaterIcEEEicPciiT_@Base 3.4.3
 _ZN11octave_sortIcE11nth_elementEPciii@Base 3.4.3
 _ZN11octave_sortIcE11nth_elementISt26pointer_to_binary_functionIccbEEEvPciiiT_@Base 3.4.3
 _ZN11octave_sortIcE11nth_elementISt4lessIcEEEvPciiiT_@Base 3.4.3
 _ZN11octave_sortIcE11nth_elementISt7greaterIcEEEvPciiiT_@Base 3.4.3
 _ZN11octave_sortIcE11set_compareE8sortmode@Base 3.4.3
 _ZN11octave_sortIcE11set_compareEPFbccE@Base 3.4.3
 _ZN11octave_sortIcE12gallop_rightIPFbccEEEicPciiT_@Base 3.4.3
 _ZN11octave_sortIcE12gallop_rightISt4lessIcEEEicPciiT_@Base 3.4.3
 _ZN11octave_sortIcE12gallop_rightISt7greaterIcEEEicPciiT_@Base 3.4.3
 _ZN11octave_sortIcE13lookup_sortedEPKciS2_iPib@Base 3.4.3
 _ZN11octave_sortIcE13lookup_sortedISt26pointer_to_binary_functionIccbEEEvPKciS5_iPibT_@Base 3.4.3
 _ZN11octave_sortIcE13lookup_sortedISt4lessIcEEEvPKciS5_iPibT_@Base 3.4.3
 _ZN11octave_sortIcE13lookup_sortedISt7greaterIcEEEvPKciS5_iPibT_@Base 3.4.3
 _ZN11octave_sortIcE14is_sorted_rowsEPKcii@Base 3.4.3
 _ZN11octave_sortIcE14is_sorted_rowsIPFbccEEEbPKciiT_@Base 3.4.3
 _ZN11octave_sortIcE14is_sorted_rowsISt4lessIcEEEbPKciiT_@Base 3.4.3
 _ZN11octave_sortIcE14is_sorted_rowsISt7greaterIcEEEbPKciiT_@Base 3.4.3
 _ZN11octave_sortIcE14merge_collapseIPFbccEEEiPcPiT_@Base 3.4.3
 _ZN11octave_sortIcE14merge_collapseIPFbccEEEiPcT_@Base 3.4.3
 _ZN11octave_sortIcE14merge_collapseISt4lessIcEEEiPcPiT_@Base 3.4.3
 _ZN11octave_sortIcE14merge_collapseISt4lessIcEEEiPcT_@Base 3.4.3
 _ZN11octave_sortIcE14merge_collapseISt7greaterIcEEEiPcPiT_@Base 3.4.3
 _ZN11octave_sortIcE14merge_collapseISt7greaterIcEEEiPcT_@Base 3.4.3
 _ZN11octave_sortIcE17ascending_compareEcc@Base 3.4.3
 _ZN11octave_sortIcE18descending_compareEcc@Base 3.4.3
 _ZN11octave_sortIcE20merge_compute_minrunEi@Base 3.4.3
 _ZN11octave_sortIcE4sortEPcPii@Base 3.4.3
 _ZN11octave_sortIcE4sortEPci@Base 3.4.3
 _ZN11octave_sortIcE4sortIPFbccEEEvPcPiiT_@Base 3.4.3
 _ZN11octave_sortIcE4sortIPFbccEEEvPciT_@Base 3.4.3
 _ZN11octave_sortIcE4sortISt4lessIcEEEvPcPiiT_@Base 3.4.3
 _ZN11octave_sortIcE4sortISt4lessIcEEEvPciT_@Base 3.4.3
 _ZN11octave_sortIcE4sortISt7greaterIcEEEvPcPiiT_@Base 3.4.3
 _ZN11octave_sortIcE4sortISt7greaterIcEEEvPciT_@Base 3.4.3
 _ZN11octave_sortIcE6lookupEPKciRS1_@Base 3.4.3
 _ZN11octave_sortIcE6lookupEPKciS2_iPi@Base 3.4.3
 _ZN11octave_sortIcE8merge_atIPFbccEEEiiPcPiT_@Base 3.4.3
 _ZN11octave_sortIcE8merge_atIPFbccEEEiiPcT_@Base 3.4.3
 _ZN11octave_sortIcE8merge_atISt4lessIcEEEiiPcPiT_@Base 3.4.3
 _ZN11octave_sortIcE8merge_atISt4lessIcEEEiiPcT_@Base 3.4.3
 _ZN11octave_sortIcE8merge_atISt7greaterIcEEEiiPcPiT_@Base 3.4.3
 _ZN11octave_sortIcE8merge_atISt7greaterIcEEEiiPcT_@Base 3.4.3
 _ZN11octave_sortIcE8merge_hiIPFbccEEEiPcPiiS4_S5_iT_@Base 3.4.3
 _ZN11octave_sortIcE8merge_hiIPFbccEEEiPciS4_iT_@Base 3.4.3
 _ZN11octave_sortIcE8merge_hiISt4lessIcEEEiPcPiiS4_S5_iT_@Base 3.4.3
 _ZN11octave_sortIcE8merge_hiISt4lessIcEEEiPciS4_iT_@Base 3.4.3
 _ZN11octave_sortIcE8merge_hiISt7greaterIcEEEiPcPiiS4_S5_iT_@Base 3.4.3
 _ZN11octave_sortIcE8merge_hiISt7greaterIcEEEiPciS4_iT_@Base 3.4.3
 _ZN11octave_sortIcE8merge_loIPFbccEEEiPcPiiS4_S5_iT_@Base 3.4.3
 _ZN11octave_sortIcE8merge_loIPFbccEEEiPciS4_iT_@Base 3.4.3
 _ZN11octave_sortIcE8merge_loISt4lessIcEEEiPcPiiS4_S5_iT_@Base 3.4.3
 _ZN11octave_sortIcE8merge_loISt4lessIcEEEiPciS4_iT_@Base 3.4.3
 _ZN11octave_sortIcE8merge_loISt7greaterIcEEEiPcPiiS4_S5_iT_@Base 3.4.3
 _ZN11octave_sortIcE8merge_loISt7greaterIcEEEiPciS4_iT_@Base 3.4.3
 _ZN11octave_sortIcE9is_sortedEPKci@Base 3.4.3
 _ZN11octave_sortIcE9sort_rowsEPKcPiii@Base 3.4.3
 _ZN11octave_sortIcE9sort_rowsIPFbccEEEvPKcPiiiT_@Base 3.4.3
 _ZN11octave_sortIcE9sort_rowsISt4lessIcEEEvPKcPiiiT_@Base 3.4.3
 _ZN11octave_sortIcE9sort_rowsISt7greaterIcEEEvPKcPiiiT_@Base 3.4.3
 _ZN11octave_sortIcEC1EPFbccE@Base 3.4.3
 _ZN11octave_sortIcEC1Ev@Base 3.4.3
 _ZN11octave_sortIcEC2EPFbccE@Base 3.4.3
 _ZN11octave_sortIcEC2Ev@Base 3.4.3
 _ZN11octave_sortIcED1Ev@Base 3.4.3
 _ZN11octave_sortIcED2Ev@Base 3.4.3
 _ZN11octave_sortIdE10MergeState5resetEv@Base 3.4.3
 _ZN11octave_sortIdE10MergeState6getmemEi@Base 3.4.3
 _ZN11octave_sortIdE10MergeState7getmemiEi@Base 3.4.3
 _ZN11octave_sortIdE10MergeStateC1Ev@Base 3.4.3
 _ZN11octave_sortIdE10MergeStateC2Ev@Base 3.4.3
 _ZN11octave_sortIdE10MergeStateD1Ev@Base 3.4.3
 _ZN11octave_sortIdE10MergeStateD2Ev@Base 3.4.3
 _ZN11octave_sortIdE11gallop_leftIPFbddEEEidPdiiT_@Base 3.4.3
 _ZN11octave_sortIdE11gallop_leftISt4lessIdEEEidPdiiT_@Base 3.4.3
 _ZN11octave_sortIdE11gallop_leftISt7greaterIdEEEidPdiiT_@Base 3.4.3
 _ZN11octave_sortIdE11nth_elementEPdiii@Base 3.4.3
 _ZN11octave_sortIdE11nth_elementISt26pointer_to_binary_functionIddbEEEvPdiiiT_@Base 3.4.3
 _ZN11octave_sortIdE11nth_elementISt4lessIdEEEvPdiiiT_@Base 3.4.3
 _ZN11octave_sortIdE11nth_elementISt7greaterIdEEEvPdiiiT_@Base 3.4.3
 _ZN11octave_sortIdE11set_compareE8sortmode@Base 3.4.3
 _ZN11octave_sortIdE11set_compareEPFbddE@Base 3.4.3
 _ZN11octave_sortIdE12gallop_rightIPFbddEEEidPdiiT_@Base 3.4.3
 _ZN11octave_sortIdE12gallop_rightISt4lessIdEEEidPdiiT_@Base 3.4.3
 _ZN11octave_sortIdE12gallop_rightISt7greaterIdEEEidPdiiT_@Base 3.4.3
 _ZN11octave_sortIdE13lookup_sortedEPKdiS2_iPib@Base 3.4.3
 _ZN11octave_sortIdE13lookup_sortedISt26pointer_to_binary_functionIddbEEEvPKdiS5_iPibT_@Base 3.4.3
 _ZN11octave_sortIdE13lookup_sortedISt4lessIdEEEvPKdiS5_iPibT_@Base 3.4.3
 _ZN11octave_sortIdE13lookup_sortedISt7greaterIdEEEvPKdiS5_iPibT_@Base 3.4.3
 _ZN11octave_sortIdE14is_sorted_rowsEPKdii@Base 3.4.3
 _ZN11octave_sortIdE14is_sorted_rowsIPFbddEEEbPKdiiT_@Base 3.4.3
 _ZN11octave_sortIdE14is_sorted_rowsISt4lessIdEEEbPKdiiT_@Base 3.4.3
 _ZN11octave_sortIdE14is_sorted_rowsISt7greaterIdEEEbPKdiiT_@Base 3.4.3
 _ZN11octave_sortIdE14merge_collapseIPFbddEEEiPdPiT_@Base 3.4.3
 _ZN11octave_sortIdE14merge_collapseIPFbddEEEiPdT_@Base 3.4.3
 _ZN11octave_sortIdE14merge_collapseISt4lessIdEEEiPdPiT_@Base 3.4.3
 _ZN11octave_sortIdE14merge_collapseISt4lessIdEEEiPdT_@Base 3.4.3
 _ZN11octave_sortIdE14merge_collapseISt7greaterIdEEEiPdPiT_@Base 3.4.3
 _ZN11octave_sortIdE14merge_collapseISt7greaterIdEEEiPdT_@Base 3.4.3
 _ZN11octave_sortIdE17ascending_compareEdd@Base 3.4.3
 _ZN11octave_sortIdE18descending_compareEdd@Base 3.4.3
 _ZN11octave_sortIdE20merge_compute_minrunEi@Base 3.4.3
 _ZN11octave_sortIdE4sortEPdPii@Base 3.4.3
 _ZN11octave_sortIdE4sortEPdi@Base 3.4.3
 _ZN11octave_sortIdE4sortIPFbddEEEvPdPiiT_@Base 3.4.3
 _ZN11octave_sortIdE4sortIPFbddEEEvPdiT_@Base 3.4.3
 _ZN11octave_sortIdE4sortISt4lessIdEEEvPdPiiT_@Base 3.4.3
 _ZN11octave_sortIdE4sortISt4lessIdEEEvPdiT_@Base 3.4.3
 _ZN11octave_sortIdE4sortISt7greaterIdEEEvPdPiiT_@Base 3.4.3
 _ZN11octave_sortIdE4sortISt7greaterIdEEEvPdiT_@Base 3.4.3
 _ZN11octave_sortIdE6lookupEPKdiRS1_@Base 3.4.3
 _ZN11octave_sortIdE6lookupEPKdiS2_iPi@Base 3.4.3
 _ZN11octave_sortIdE8merge_atIPFbddEEEiiPdPiT_@Base 3.4.3
 _ZN11octave_sortIdE8merge_atIPFbddEEEiiPdT_@Base 3.4.3
 _ZN11octave_sortIdE8merge_atISt4lessIdEEEiiPdPiT_@Base 3.4.3
 _ZN11octave_sortIdE8merge_atISt4lessIdEEEiiPdT_@Base 3.4.3
 _ZN11octave_sortIdE8merge_atISt7greaterIdEEEiiPdPiT_@Base 3.4.3
 _ZN11octave_sortIdE8merge_atISt7greaterIdEEEiiPdT_@Base 3.4.3
 _ZN11octave_sortIdE8merge_hiIPFbddEEEiPdPiiS4_S5_iT_@Base 3.4.3
 _ZN11octave_sortIdE8merge_hiIPFbddEEEiPdiS4_iT_@Base 3.4.3
 _ZN11octave_sortIdE8merge_hiISt4lessIdEEEiPdPiiS4_S5_iT_@Base 3.4.3
 _ZN11octave_sortIdE8merge_hiISt4lessIdEEEiPdiS4_iT_@Base 3.4.3
 _ZN11octave_sortIdE8merge_hiISt7greaterIdEEEiPdPiiS4_S5_iT_@Base 3.4.3
 _ZN11octave_sortIdE8merge_hiISt7greaterIdEEEiPdiS4_iT_@Base 3.4.3
 _ZN11octave_sortIdE8merge_loIPFbddEEEiPdPiiS4_S5_iT_@Base 3.4.3
 _ZN11octave_sortIdE8merge_loIPFbddEEEiPdiS4_iT_@Base 3.4.3
 _ZN11octave_sortIdE8merge_loISt4lessIdEEEiPdPiiS4_S5_iT_@Base 3.4.3
 _ZN11octave_sortIdE8merge_loISt4lessIdEEEiPdiS4_iT_@Base 3.4.3
 _ZN11octave_sortIdE8merge_loISt7greaterIdEEEiPdPiiS4_S5_iT_@Base 3.4.3
 _ZN11octave_sortIdE8merge_loISt7greaterIdEEEiPdiS4_iT_@Base 3.4.3
 _ZN11octave_sortIdE9is_sortedEPKdi@Base 3.4.3
 _ZN11octave_sortIdE9sort_rowsEPKdPiii@Base 3.4.3
 _ZN11octave_sortIdE9sort_rowsIPFbddEEEvPKdPiiiT_@Base 3.4.3
 _ZN11octave_sortIdE9sort_rowsISt4lessIdEEEvPKdPiiiT_@Base 3.4.3
 _ZN11octave_sortIdE9sort_rowsISt7greaterIdEEEvPKdPiiiT_@Base 3.4.3
 _ZN11octave_sortIdEC1EPFbddE@Base 3.4.3
 _ZN11octave_sortIdEC1Ev@Base 3.4.3
 _ZN11octave_sortIdEC2EPFbddE@Base 3.4.3
 _ZN11octave_sortIdEC2Ev@Base 3.4.3
 _ZN11octave_sortIdED1Ev@Base 3.4.3
 _ZN11octave_sortIdED2Ev@Base 3.4.3
 _ZN11octave_sortIfE10MergeState5resetEv@Base 3.4.3
 _ZN11octave_sortIfE10MergeState6getmemEi@Base 3.4.3
 _ZN11octave_sortIfE10MergeState7getmemiEi@Base 3.4.3
 _ZN11octave_sortIfE10MergeStateC1Ev@Base 3.4.3
 _ZN11octave_sortIfE10MergeStateC2Ev@Base 3.4.3
 _ZN11octave_sortIfE10MergeStateD1Ev@Base 3.4.3
 _ZN11octave_sortIfE10MergeStateD2Ev@Base 3.4.3
 _ZN11octave_sortIfE11gallop_leftIPFbffEEEifPfiiT_@Base 3.4.3
 _ZN11octave_sortIfE11gallop_leftISt4lessIfEEEifPfiiT_@Base 3.4.3
 _ZN11octave_sortIfE11gallop_leftISt7greaterIfEEEifPfiiT_@Base 3.4.3
 _ZN11octave_sortIfE11nth_elementEPfiii@Base 3.4.3
 _ZN11octave_sortIfE11nth_elementISt26pointer_to_binary_functionIffbEEEvPfiiiT_@Base 3.4.3
 _ZN11octave_sortIfE11nth_elementISt4lessIfEEEvPfiiiT_@Base 3.4.3
 _ZN11octave_sortIfE11nth_elementISt7greaterIfEEEvPfiiiT_@Base 3.4.3
 _ZN11octave_sortIfE11set_compareE8sortmode@Base 3.4.3
 _ZN11octave_sortIfE11set_compareEPFbffE@Base 3.4.3
 _ZN11octave_sortIfE12gallop_rightIPFbffEEEifPfiiT_@Base 3.4.3
 _ZN11octave_sortIfE12gallop_rightISt4lessIfEEEifPfiiT_@Base 3.4.3
 _ZN11octave_sortIfE12gallop_rightISt7greaterIfEEEifPfiiT_@Base 3.4.3
 _ZN11octave_sortIfE13lookup_sortedEPKfiS2_iPib@Base 3.4.3
 _ZN11octave_sortIfE13lookup_sortedISt26pointer_to_binary_functionIffbEEEvPKfiS5_iPibT_@Base 3.4.3
 _ZN11octave_sortIfE13lookup_sortedISt4lessIfEEEvPKfiS5_iPibT_@Base 3.4.3
 _ZN11octave_sortIfE13lookup_sortedISt7greaterIfEEEvPKfiS5_iPibT_@Base 3.4.3
 _ZN11octave_sortIfE14is_sorted_rowsEPKfii@Base 3.4.3
 _ZN11octave_sortIfE14is_sorted_rowsIPFbffEEEbPKfiiT_@Base 3.4.3
 _ZN11octave_sortIfE14is_sorted_rowsISt4lessIfEEEbPKfiiT_@Base 3.4.3
 _ZN11octave_sortIfE14is_sorted_rowsISt7greaterIfEEEbPKfiiT_@Base 3.4.3
 _ZN11octave_sortIfE14merge_collapseIPFbffEEEiPfPiT_@Base 3.4.3
 _ZN11octave_sortIfE14merge_collapseIPFbffEEEiPfT_@Base 3.4.3
 _ZN11octave_sortIfE14merge_collapseISt4lessIfEEEiPfPiT_@Base 3.4.3
 _ZN11octave_sortIfE14merge_collapseISt4lessIfEEEiPfT_@Base 3.4.3
 _ZN11octave_sortIfE14merge_collapseISt7greaterIfEEEiPfPiT_@Base 3.4.3
 _ZN11octave_sortIfE14merge_collapseISt7greaterIfEEEiPfT_@Base 3.4.3
 _ZN11octave_sortIfE17ascending_compareEff@Base 3.4.3
 _ZN11octave_sortIfE18descending_compareEff@Base 3.4.3
 _ZN11octave_sortIfE20merge_compute_minrunEi@Base 3.4.3
 _ZN11octave_sortIfE4sortEPfPii@Base 3.4.3
 _ZN11octave_sortIfE4sortEPfi@Base 3.4.3
 _ZN11octave_sortIfE4sortIPFbffEEEvPfPiiT_@Base 3.4.3
 _ZN11octave_sortIfE4sortIPFbffEEEvPfiT_@Base 3.4.3
 _ZN11octave_sortIfE4sortISt4lessIfEEEvPfPiiT_@Base 3.4.3
 _ZN11octave_sortIfE4sortISt4lessIfEEEvPfiT_@Base 3.4.3
 _ZN11octave_sortIfE4sortISt7greaterIfEEEvPfPiiT_@Base 3.4.3
 _ZN11octave_sortIfE4sortISt7greaterIfEEEvPfiT_@Base 3.4.3
 _ZN11octave_sortIfE6lookupEPKfiRS1_@Base 3.4.3
 _ZN11octave_sortIfE6lookupEPKfiS2_iPi@Base 3.4.3
 _ZN11octave_sortIfE8merge_atIPFbffEEEiiPfPiT_@Base 3.4.3
 _ZN11octave_sortIfE8merge_atIPFbffEEEiiPfT_@Base 3.4.3
 _ZN11octave_sortIfE8merge_atISt4lessIfEEEiiPfPiT_@Base 3.4.3
 _ZN11octave_sortIfE8merge_atISt4lessIfEEEiiPfT_@Base 3.4.3
 _ZN11octave_sortIfE8merge_atISt7greaterIfEEEiiPfPiT_@Base 3.4.3
 _ZN11octave_sortIfE8merge_atISt7greaterIfEEEiiPfT_@Base 3.4.3
 _ZN11octave_sortIfE8merge_hiIPFbffEEEiPfPiiS4_S5_iT_@Base 3.4.3
 _ZN11octave_sortIfE8merge_hiIPFbffEEEiPfiS4_iT_@Base 3.4.3
 _ZN11octave_sortIfE8merge_hiISt4lessIfEEEiPfPiiS4_S5_iT_@Base 3.4.3
 _ZN11octave_sortIfE8merge_hiISt4lessIfEEEiPfiS4_iT_@Base 3.4.3
 _ZN11octave_sortIfE8merge_hiISt7greaterIfEEEiPfPiiS4_S5_iT_@Base 3.4.3
 _ZN11octave_sortIfE8merge_hiISt7greaterIfEEEiPfiS4_iT_@Base 3.4.3
 _ZN11octave_sortIfE8merge_loIPFbffEEEiPfPiiS4_S5_iT_@Base 3.4.3
 _ZN11octave_sortIfE8merge_loIPFbffEEEiPfiS4_iT_@Base 3.4.3
 _ZN11octave_sortIfE8merge_loISt4lessIfEEEiPfPiiS4_S5_iT_@Base 3.4.3
 _ZN11octave_sortIfE8merge_loISt4lessIfEEEiPfiS4_iT_@Base 3.4.3
 _ZN11octave_sortIfE8merge_loISt7greaterIfEEEiPfPiiS4_S5_iT_@Base 3.4.3
 _ZN11octave_sortIfE8merge_loISt7greaterIfEEEiPfiS4_iT_@Base 3.4.3
 _ZN11octave_sortIfE9is_sortedEPKfi@Base 3.4.3
 _ZN11octave_sortIfE9sort_rowsEPKfPiii@Base 3.4.3
 _ZN11octave_sortIfE9sort_rowsIPFbffEEEvPKfPiiiT_@Base 3.4.3
 _ZN11octave_sortIfE9sort_rowsISt4lessIfEEEvPKfPiiiT_@Base 3.4.3
 _ZN11octave_sortIfE9sort_rowsISt7greaterIfEEEvPKfPiiiT_@Base 3.4.3
 _ZN11octave_sortIfEC1EPFbffE@Base 3.4.3
 _ZN11octave_sortIfEC1Ev@Base 3.4.3
 _ZN11octave_sortIfEC2EPFbffE@Base 3.4.3
 _ZN11octave_sortIfEC2Ev@Base 3.4.3
 _ZN11octave_sortIfED1Ev@Base 3.4.3
 _ZN11octave_sortIfED2Ev@Base 3.4.3
 _ZN11octave_sortIiE10MergeState5resetEv@Base 3.4.3
 _ZN11octave_sortIiE10MergeState6getmemEi@Base 3.4.3
 _ZN11octave_sortIiE10MergeState7getmemiEi@Base 3.4.3
 _ZN11octave_sortIiE10MergeStateC1Ev@Base 3.4.3
 _ZN11octave_sortIiE10MergeStateC2Ev@Base 3.4.3
 _ZN11octave_sortIiE10MergeStateD1Ev@Base 3.4.3
 _ZN11octave_sortIiE10MergeStateD2Ev@Base 3.4.3
 _ZN11octave_sortIiE11gallop_leftIPFbiiEEEiiPiiiT_@Base 3.4.3
 _ZN11octave_sortIiE11gallop_leftISt4lessIiEEEiiPiiiT_@Base 3.4.3
 _ZN11octave_sortIiE11gallop_leftISt7greaterIiEEEiiPiiiT_@Base 3.4.3
 _ZN11octave_sortIiE11nth_elementEPiiii@Base 3.4.3
 _ZN11octave_sortIiE11nth_elementISt26pointer_to_binary_functionIiibEEEvPiiiiT_@Base 3.4.3
 _ZN11octave_sortIiE11nth_elementISt4lessIiEEEvPiiiiT_@Base 3.4.3
 _ZN11octave_sortIiE11nth_elementISt7greaterIiEEEvPiiiiT_@Base 3.4.3
 _ZN11octave_sortIiE11set_compareE8sortmode@Base 3.4.3
 _ZN11octave_sortIiE11set_compareEPFbiiE@Base 3.4.3
 _ZN11octave_sortIiE12gallop_rightIPFbiiEEEiiPiiiT_@Base 3.4.3
 _ZN11octave_sortIiE12gallop_rightISt4lessIiEEEiiPiiiT_@Base 3.4.3
 _ZN11octave_sortIiE12gallop_rightISt7greaterIiEEEiiPiiiT_@Base 3.4.3
 _ZN11octave_sortIiE13lookup_sortedEPKiiS2_iPib@Base 3.4.3
 _ZN11octave_sortIiE13lookup_sortedISt26pointer_to_binary_functionIiibEEEvPKiiS5_iPibT_@Base 3.4.3
 _ZN11octave_sortIiE13lookup_sortedISt4lessIiEEEvPKiiS5_iPibT_@Base 3.4.3
 _ZN11octave_sortIiE13lookup_sortedISt7greaterIiEEEvPKiiS5_iPibT_@Base 3.4.3
 _ZN11octave_sortIiE14is_sorted_rowsEPKiii@Base 3.4.3
 _ZN11octave_sortIiE14is_sorted_rowsIPFbiiEEEbPKiiiT_@Base 3.4.3
 _ZN11octave_sortIiE14is_sorted_rowsISt4lessIiEEEbPKiiiT_@Base 3.4.3
 _ZN11octave_sortIiE14is_sorted_rowsISt7greaterIiEEEbPKiiiT_@Base 3.4.3
 _ZN11octave_sortIiE14merge_collapseIPFbiiEEEiPiS4_T_@Base 3.4.3
 _ZN11octave_sortIiE14merge_collapseIPFbiiEEEiPiT_@Base 3.4.3
 _ZN11octave_sortIiE14merge_collapseISt4lessIiEEEiPiS4_T_@Base 3.4.3
 _ZN11octave_sortIiE14merge_collapseISt4lessIiEEEiPiT_@Base 3.4.3
 _ZN11octave_sortIiE14merge_collapseISt7greaterIiEEEiPiS4_T_@Base 3.4.3
 _ZN11octave_sortIiE14merge_collapseISt7greaterIiEEEiPiT_@Base 3.4.3
 _ZN11octave_sortIiE17ascending_compareEii@Base 3.4.3
 _ZN11octave_sortIiE18descending_compareEii@Base 3.4.3
 _ZN11octave_sortIiE20merge_compute_minrunEi@Base 3.4.3
 _ZN11octave_sortIiE4sortEPiS1_i@Base 3.4.3
 _ZN11octave_sortIiE4sortEPii@Base 3.4.3
 _ZN11octave_sortIiE4sortIPFbiiEEEvPiS4_iT_@Base 3.4.3
 _ZN11octave_sortIiE4sortIPFbiiEEEvPiiT_@Base 3.4.3
 _ZN11octave_sortIiE4sortISt4lessIiEEEvPiS4_iT_@Base 3.4.3
 _ZN11octave_sortIiE4sortISt4lessIiEEEvPiiT_@Base 3.4.3
 _ZN11octave_sortIiE4sortISt7greaterIiEEEvPiS4_iT_@Base 3.4.3
 _ZN11octave_sortIiE4sortISt7greaterIiEEEvPiiT_@Base 3.4.3
 _ZN11octave_sortIiE6lookupEPKiiRS1_@Base 3.4.3
 _ZN11octave_sortIiE6lookupEPKiiS2_iPi@Base 3.4.3
 _ZN11octave_sortIiE8merge_atIPFbiiEEEiiPiS4_T_@Base 3.4.3
 _ZN11octave_sortIiE8merge_atIPFbiiEEEiiPiT_@Base 3.4.3
 _ZN11octave_sortIiE8merge_atISt4lessIiEEEiiPiS4_T_@Base 3.4.3
 _ZN11octave_sortIiE8merge_atISt4lessIiEEEiiPiT_@Base 3.4.3
 _ZN11octave_sortIiE8merge_atISt7greaterIiEEEiiPiS4_T_@Base 3.4.3
 _ZN11octave_sortIiE8merge_atISt7greaterIiEEEiiPiT_@Base 3.4.3
 _ZN11octave_sortIiE8merge_hiIPFbiiEEEiPiS4_iS4_S4_iT_@Base 3.4.3
 _ZN11octave_sortIiE8merge_hiIPFbiiEEEiPiiS4_iT_@Base 3.4.3
 _ZN11octave_sortIiE8merge_hiISt4lessIiEEEiPiS4_iS4_S4_iT_@Base 3.4.3
 _ZN11octave_sortIiE8merge_hiISt4lessIiEEEiPiiS4_iT_@Base 3.4.3
 _ZN11octave_sortIiE8merge_hiISt7greaterIiEEEiPiS4_iS4_S4_iT_@Base 3.4.3
 _ZN11octave_sortIiE8merge_hiISt7greaterIiEEEiPiiS4_iT_@Base 3.4.3
 _ZN11octave_sortIiE8merge_loIPFbiiEEEiPiS4_iS4_S4_iT_@Base 3.4.3
 _ZN11octave_sortIiE8merge_loIPFbiiEEEiPiiS4_iT_@Base 3.4.3
 _ZN11octave_sortIiE8merge_loISt4lessIiEEEiPiS4_iS4_S4_iT_@Base 3.4.3
 _ZN11octave_sortIiE8merge_loISt4lessIiEEEiPiiS4_iT_@Base 3.4.3
 _ZN11octave_sortIiE8merge_loISt7greaterIiEEEiPiS4_iS4_S4_iT_@Base 3.4.3
 _ZN11octave_sortIiE8merge_loISt7greaterIiEEEiPiiS4_iT_@Base 3.4.3
 _ZN11octave_sortIiE9is_sortedEPKii@Base 3.4.3
 _ZN11octave_sortIiE9sort_rowsEPKiPiii@Base 3.4.3
 _ZN11octave_sortIiE9sort_rowsIPFbiiEEEvPKiPiiiT_@Base 3.4.3
 _ZN11octave_sortIiE9sort_rowsISt4lessIiEEEvPKiPiiiT_@Base 3.4.3
 _ZN11octave_sortIiE9sort_rowsISt7greaterIiEEEvPKiPiiiT_@Base 3.4.3
 _ZN11octave_sortIiEC1EPFbiiE@Base 3.4.3
 _ZN11octave_sortIiEC1Ev@Base 3.4.3
 _ZN11octave_sortIiEC2EPFbiiE@Base 3.4.3
 _ZN11octave_sortIiEC2Ev@Base 3.4.3
 _ZN11octave_sortIiED1Ev@Base 3.4.3
 _ZN11octave_sortIiED2Ev@Base 3.4.3
 _ZN11octave_sortIlE10MergeState5resetEv@Base 3.4.3
 _ZN11octave_sortIlE10MergeState6getmemEi@Base 3.4.3
 _ZN11octave_sortIlE10MergeState7getmemiEi@Base 3.4.3
 _ZN11octave_sortIlE10MergeStateC1Ev@Base 3.4.3
 _ZN11octave_sortIlE10MergeStateC2Ev@Base 3.4.3
 _ZN11octave_sortIlE10MergeStateD1Ev@Base 3.4.3
 _ZN11octave_sortIlE10MergeStateD2Ev@Base 3.4.3
 _ZN11octave_sortIlE11gallop_leftIPFbllEEEilPliiT_@Base 3.4.3
 _ZN11octave_sortIlE11gallop_leftISt4lessIlEEEilPliiT_@Base 3.4.3
 _ZN11octave_sortIlE11gallop_leftISt7greaterIlEEEilPliiT_@Base 3.4.3
 _ZN11octave_sortIlE11nth_elementEPliii@Base 3.4.3
 _ZN11octave_sortIlE11nth_elementISt26pointer_to_binary_functionIllbEEEvPliiiT_@Base 3.4.3
 _ZN11octave_sortIlE11nth_elementISt4lessIlEEEvPliiiT_@Base 3.4.3
 _ZN11octave_sortIlE11nth_elementISt7greaterIlEEEvPliiiT_@Base 3.4.3
 _ZN11octave_sortIlE11set_compareE8sortmode@Base 3.4.3
 _ZN11octave_sortIlE11set_compareEPFbllE@Base 3.4.3
 _ZN11octave_sortIlE12gallop_rightIPFbllEEEilPliiT_@Base 3.4.3
 _ZN11octave_sortIlE12gallop_rightISt4lessIlEEEilPliiT_@Base 3.4.3
 _ZN11octave_sortIlE12gallop_rightISt7greaterIlEEEilPliiT_@Base 3.4.3
 _ZN11octave_sortIlE13lookup_sortedEPKliS2_iPib@Base 3.4.3
 _ZN11octave_sortIlE13lookup_sortedISt26pointer_to_binary_functionIllbEEEvPKliS5_iPibT_@Base 3.4.3
 _ZN11octave_sortIlE13lookup_sortedISt4lessIlEEEvPKliS5_iPibT_@Base 3.4.3
 _ZN11octave_sortIlE13lookup_sortedISt7greaterIlEEEvPKliS5_iPibT_@Base 3.4.3
 _ZN11octave_sortIlE14is_sorted_rowsEPKlii@Base 3.4.3
 _ZN11octave_sortIlE14is_sorted_rowsIPFbllEEEbPKliiT_@Base 3.4.3
 _ZN11octave_sortIlE14is_sorted_rowsISt4lessIlEEEbPKliiT_@Base 3.4.3
 _ZN11octave_sortIlE14is_sorted_rowsISt7greaterIlEEEbPKliiT_@Base 3.4.3
 _ZN11octave_sortIlE14merge_collapseIPFbllEEEiPlPiT_@Base 3.4.3
 _ZN11octave_sortIlE14merge_collapseIPFbllEEEiPlT_@Base 3.4.3
 _ZN11octave_sortIlE14merge_collapseISt4lessIlEEEiPlPiT_@Base 3.4.3
 _ZN11octave_sortIlE14merge_collapseISt4lessIlEEEiPlT_@Base 3.4.3
 _ZN11octave_sortIlE14merge_collapseISt7greaterIlEEEiPlPiT_@Base 3.4.3
 _ZN11octave_sortIlE14merge_collapseISt7greaterIlEEEiPlT_@Base 3.4.3
 _ZN11octave_sortIlE17ascending_compareEll@Base 3.4.3
 _ZN11octave_sortIlE18descending_compareEll@Base 3.4.3
 _ZN11octave_sortIlE20merge_compute_minrunEi@Base 3.4.3
 _ZN11octave_sortIlE4sortEPlPii@Base 3.4.3
 _ZN11octave_sortIlE4sortEPli@Base 3.4.3
 _ZN11octave_sortIlE4sortIPFbllEEEvPlPiiT_@Base 3.4.3
 _ZN11octave_sortIlE4sortIPFbllEEEvPliT_@Base 3.4.3
 _ZN11octave_sortIlE4sortISt4lessIlEEEvPlPiiT_@Base 3.4.3
 _ZN11octave_sortIlE4sortISt4lessIlEEEvPliT_@Base 3.4.3
 _ZN11octave_sortIlE4sortISt7greaterIlEEEvPlPiiT_@Base 3.4.3
 _ZN11octave_sortIlE4sortISt7greaterIlEEEvPliT_@Base 3.4.3
 _ZN11octave_sortIlE6lookupEPKliRS1_@Base 3.4.3
 _ZN11octave_sortIlE6lookupEPKliS2_iPi@Base 3.4.3
 _ZN11octave_sortIlE8merge_atIPFbllEEEiiPlPiT_@Base 3.4.3
 _ZN11octave_sortIlE8merge_atIPFbllEEEiiPlT_@Base 3.4.3
 _ZN11octave_sortIlE8merge_atISt4lessIlEEEiiPlPiT_@Base 3.4.3
 _ZN11octave_sortIlE8merge_atISt4lessIlEEEiiPlT_@Base 3.4.3
 _ZN11octave_sortIlE8merge_atISt7greaterIlEEEiiPlPiT_@Base 3.4.3
 _ZN11octave_sortIlE8merge_atISt7greaterIlEEEiiPlT_@Base 3.4.3
 _ZN11octave_sortIlE8merge_hiIPFbllEEEiPlPiiS4_S5_iT_@Base 3.4.3
 _ZN11octave_sortIlE8merge_hiIPFbllEEEiPliS4_iT_@Base 3.4.3
 _ZN11octave_sortIlE8merge_hiISt4lessIlEEEiPlPiiS4_S5_iT_@Base 3.4.3
 _ZN11octave_sortIlE8merge_hiISt4lessIlEEEiPliS4_iT_@Base 3.4.3
 _ZN11octave_sortIlE8merge_hiISt7greaterIlEEEiPlPiiS4_S5_iT_@Base 3.4.3
 _ZN11octave_sortIlE8merge_hiISt7greaterIlEEEiPliS4_iT_@Base 3.4.3
 _ZN11octave_sortIlE8merge_loIPFbllEEEiPlPiiS4_S5_iT_@Base 3.4.3
 _ZN11octave_sortIlE8merge_loIPFbllEEEiPliS4_iT_@Base 3.4.3
 _ZN11octave_sortIlE8merge_loISt4lessIlEEEiPlPiiS4_S5_iT_@Base 3.4.3
 _ZN11octave_sortIlE8merge_loISt4lessIlEEEiPliS4_iT_@Base 3.4.3
 _ZN11octave_sortIlE8merge_loISt7greaterIlEEEiPlPiiS4_S5_iT_@Base 3.4.3
 _ZN11octave_sortIlE8merge_loISt7greaterIlEEEiPliS4_iT_@Base 3.4.3
 _ZN11octave_sortIlE9is_sortedEPKli@Base 3.4.3
 _ZN11octave_sortIlE9sort_rowsEPKlPiii@Base 3.4.3
 _ZN11octave_sortIlE9sort_rowsIPFbllEEEvPKlPiiiT_@Base 3.4.3
 _ZN11octave_sortIlE9sort_rowsISt4lessIlEEEvPKlPiiiT_@Base 3.4.3
 _ZN11octave_sortIlE9sort_rowsISt7greaterIlEEEvPKlPiiiT_@Base 3.4.3
 _ZN11octave_sortIlEC1EPFbllE@Base 3.4.3
 _ZN11octave_sortIlEC1Ev@Base 3.4.3
 _ZN11octave_sortIlEC2EPFbllE@Base 3.4.3
 _ZN11octave_sortIlEC2Ev@Base 3.4.3
 _ZN11octave_sortIlED1Ev@Base 3.4.3
 _ZN11octave_sortIlED2Ev@Base 3.4.3
 _ZN11octave_sortIsE10MergeState5resetEv@Base 3.4.3
 _ZN11octave_sortIsE10MergeState6getmemEi@Base 3.4.3
 _ZN11octave_sortIsE10MergeState7getmemiEi@Base 3.4.3
 _ZN11octave_sortIsE10MergeStateC1Ev@Base 3.4.3
 _ZN11octave_sortIsE10MergeStateC2Ev@Base 3.4.3
 _ZN11octave_sortIsE10MergeStateD1Ev@Base 3.4.3
 _ZN11octave_sortIsE10MergeStateD2Ev@Base 3.4.3
 _ZN11octave_sortIsE11gallop_leftIPFbssEEEisPsiiT_@Base 3.4.3
 _ZN11octave_sortIsE11gallop_leftISt4lessIsEEEisPsiiT_@Base 3.4.3
 _ZN11octave_sortIsE11gallop_leftISt7greaterIsEEEisPsiiT_@Base 3.4.3
 _ZN11octave_sortIsE11nth_elementEPsiii@Base 3.4.3
 _ZN11octave_sortIsE11nth_elementISt26pointer_to_binary_functionIssbEEEvPsiiiT_@Base 3.4.3
 _ZN11octave_sortIsE11nth_elementISt4lessIsEEEvPsiiiT_@Base 3.4.3
 _ZN11octave_sortIsE11nth_elementISt7greaterIsEEEvPsiiiT_@Base 3.4.3
 _ZN11octave_sortIsE11set_compareE8sortmode@Base 3.4.3
 _ZN11octave_sortIsE11set_compareEPFbssE@Base 3.4.3
 _ZN11octave_sortIsE12gallop_rightIPFbssEEEisPsiiT_@Base 3.4.3
 _ZN11octave_sortIsE12gallop_rightISt4lessIsEEEisPsiiT_@Base 3.4.3
 _ZN11octave_sortIsE12gallop_rightISt7greaterIsEEEisPsiiT_@Base 3.4.3
 _ZN11octave_sortIsE13lookup_sortedEPKsiS2_iPib@Base 3.4.3
 _ZN11octave_sortIsE13lookup_sortedISt26pointer_to_binary_functionIssbEEEvPKsiS5_iPibT_@Base 3.4.3
 _ZN11octave_sortIsE13lookup_sortedISt4lessIsEEEvPKsiS5_iPibT_@Base 3.4.3
 _ZN11octave_sortIsE13lookup_sortedISt7greaterIsEEEvPKsiS5_iPibT_@Base 3.4.3
 _ZN11octave_sortIsE14is_sorted_rowsEPKsii@Base 3.4.3
 _ZN11octave_sortIsE14is_sorted_rowsIPFbssEEEbPKsiiT_@Base 3.4.3
 _ZN11octave_sortIsE14is_sorted_rowsISt4lessIsEEEbPKsiiT_@Base 3.4.3
 _ZN11octave_sortIsE14is_sorted_rowsISt7greaterIsEEEbPKsiiT_@Base 3.4.3
 _ZN11octave_sortIsE14merge_collapseIPFbssEEEiPsPiT_@Base 3.4.3
 _ZN11octave_sortIsE14merge_collapseIPFbssEEEiPsT_@Base 3.4.3
 _ZN11octave_sortIsE14merge_collapseISt4lessIsEEEiPsPiT_@Base 3.4.3
 _ZN11octave_sortIsE14merge_collapseISt4lessIsEEEiPsT_@Base 3.4.3
 _ZN11octave_sortIsE14merge_collapseISt7greaterIsEEEiPsPiT_@Base 3.4.3
 _ZN11octave_sortIsE14merge_collapseISt7greaterIsEEEiPsT_@Base 3.4.3
 _ZN11octave_sortIsE17ascending_compareEss@Base 3.4.3
 _ZN11octave_sortIsE18descending_compareEss@Base 3.4.3
 _ZN11octave_sortIsE20merge_compute_minrunEi@Base 3.4.3
 _ZN11octave_sortIsE4sortEPsPii@Base 3.4.3
 _ZN11octave_sortIsE4sortEPsi@Base 3.4.3
 _ZN11octave_sortIsE4sortIPFbssEEEvPsPiiT_@Base 3.4.3
 _ZN11octave_sortIsE4sortIPFbssEEEvPsiT_@Base 3.4.3
 _ZN11octave_sortIsE4sortISt4lessIsEEEvPsPiiT_@Base 3.4.3
 _ZN11octave_sortIsE4sortISt4lessIsEEEvPsiT_@Base 3.4.3
 _ZN11octave_sortIsE4sortISt7greaterIsEEEvPsPiiT_@Base 3.4.3
 _ZN11octave_sortIsE4sortISt7greaterIsEEEvPsiT_@Base 3.4.3
 _ZN11octave_sortIsE6lookupEPKsiRS1_@Base 3.4.3
 _ZN11octave_sortIsE6lookupEPKsiS2_iPi@Base 3.4.3
 _ZN11octave_sortIsE8merge_atIPFbssEEEiiPsPiT_@Base 3.4.3
 _ZN11octave_sortIsE8merge_atIPFbssEEEiiPsT_@Base 3.4.3
 _ZN11octave_sortIsE8merge_atISt4lessIsEEEiiPsPiT_@Base 3.4.3
 _ZN11octave_sortIsE8merge_atISt4lessIsEEEiiPsT_@Base 3.4.3
 _ZN11octave_sortIsE8merge_atISt7greaterIsEEEiiPsPiT_@Base 3.4.3
 _ZN11octave_sortIsE8merge_atISt7greaterIsEEEiiPsT_@Base 3.4.3
 _ZN11octave_sortIsE8merge_hiIPFbssEEEiPsPiiS4_S5_iT_@Base 3.4.3
 _ZN11octave_sortIsE8merge_hiIPFbssEEEiPsiS4_iT_@Base 3.4.3
 _ZN11octave_sortIsE8merge_hiISt4lessIsEEEiPsPiiS4_S5_iT_@Base 3.4.3
 _ZN11octave_sortIsE8merge_hiISt4lessIsEEEiPsiS4_iT_@Base 3.4.3
 _ZN11octave_sortIsE8merge_hiISt7greaterIsEEEiPsPiiS4_S5_iT_@Base 3.4.3
 _ZN11octave_sortIsE8merge_hiISt7greaterIsEEEiPsiS4_iT_@Base 3.4.3
 _ZN11octave_sortIsE8merge_loIPFbssEEEiPsPiiS4_S5_iT_@Base 3.4.3
 _ZN11octave_sortIsE8merge_loIPFbssEEEiPsiS4_iT_@Base 3.4.3
 _ZN11octave_sortIsE8merge_loISt4lessIsEEEiPsPiiS4_S5_iT_@Base 3.4.3
 _ZN11octave_sortIsE8merge_loISt4lessIsEEEiPsiS4_iT_@Base 3.4.3
 _ZN11octave_sortIsE8merge_loISt7greaterIsEEEiPsPiiS4_S5_iT_@Base 3.4.3
 _ZN11octave_sortIsE8merge_loISt7greaterIsEEEiPsiS4_iT_@Base 3.4.3
 _ZN11octave_sortIsE9is_sortedEPKsi@Base 3.4.3
 _ZN11octave_sortIsE9sort_rowsEPKsPiii@Base 3.4.3
 _ZN11octave_sortIsE9sort_rowsIPFbssEEEvPKsPiiiT_@Base 3.4.3
 _ZN11octave_sortIsE9sort_rowsISt4lessIsEEEvPKsPiiiT_@Base 3.4.3
 _ZN11octave_sortIsE9sort_rowsISt7greaterIsEEEvPKsPiiiT_@Base 3.4.3
 _ZN11octave_sortIsEC1EPFbssE@Base 3.4.3
 _ZN11octave_sortIsEC1Ev@Base 3.4.3
 _ZN11octave_sortIsEC2EPFbssE@Base 3.4.3
 _ZN11octave_sortIsEC2Ev@Base 3.4.3
 _ZN11octave_sortIsED1Ev@Base 3.4.3
 _ZN11octave_sortIsED2Ev@Base 3.4.3
 _ZN11octave_sortIxE10MergeState5resetEv@Base 3.4.3
 _ZN11octave_sortIxE10MergeState6getmemEi@Base 3.4.3
 _ZN11octave_sortIxE10MergeState7getmemiEi@Base 3.4.3
 _ZN11octave_sortIxE10MergeStateC1Ev@Base 3.4.3
 _ZN11octave_sortIxE10MergeStateC2Ev@Base 3.4.3
 _ZN11octave_sortIxE10MergeStateD1Ev@Base 3.4.3
 _ZN11octave_sortIxE10MergeStateD2Ev@Base 3.4.3
 _ZN11octave_sortIxE11gallop_leftIPFbxxEEEixPxiiT_@Base 3.4.3
 _ZN11octave_sortIxE11gallop_leftISt4lessIxEEEixPxiiT_@Base 3.4.3
 _ZN11octave_sortIxE11gallop_leftISt7greaterIxEEEixPxiiT_@Base 3.4.3
 _ZN11octave_sortIxE11nth_elementEPxiii@Base 3.4.3
 _ZN11octave_sortIxE11nth_elementISt26pointer_to_binary_functionIxxbEEEvPxiiiT_@Base 3.4.3
 _ZN11octave_sortIxE11nth_elementISt4lessIxEEEvPxiiiT_@Base 3.4.3
 _ZN11octave_sortIxE11nth_elementISt7greaterIxEEEvPxiiiT_@Base 3.4.3
 _ZN11octave_sortIxE11set_compareE8sortmode@Base 3.4.3
 _ZN11octave_sortIxE11set_compareEPFbxxE@Base 3.4.3
 _ZN11octave_sortIxE12gallop_rightIPFbxxEEEixPxiiT_@Base 3.4.3
 _ZN11octave_sortIxE12gallop_rightISt4lessIxEEEixPxiiT_@Base 3.4.3
 _ZN11octave_sortIxE12gallop_rightISt7greaterIxEEEixPxiiT_@Base 3.4.3
 _ZN11octave_sortIxE13lookup_sortedEPKxiS2_iPib@Base 3.4.3
 _ZN11octave_sortIxE13lookup_sortedISt26pointer_to_binary_functionIxxbEEEvPKxiS5_iPibT_@Base 3.4.3
 _ZN11octave_sortIxE13lookup_sortedISt4lessIxEEEvPKxiS5_iPibT_@Base 3.4.3
 _ZN11octave_sortIxE13lookup_sortedISt7greaterIxEEEvPKxiS5_iPibT_@Base 3.4.3
 _ZN11octave_sortIxE14is_sorted_rowsEPKxii@Base 3.4.3
 _ZN11octave_sortIxE14is_sorted_rowsIPFbxxEEEbPKxiiT_@Base 3.4.3
 _ZN11octave_sortIxE14is_sorted_rowsISt4lessIxEEEbPKxiiT_@Base 3.4.3
 _ZN11octave_sortIxE14is_sorted_rowsISt7greaterIxEEEbPKxiiT_@Base 3.4.3
 _ZN11octave_sortIxE14merge_collapseIPFbxxEEEiPxPiT_@Base 3.4.3
 _ZN11octave_sortIxE14merge_collapseIPFbxxEEEiPxT_@Base 3.4.3
 _ZN11octave_sortIxE14merge_collapseISt4lessIxEEEiPxPiT_@Base 3.4.3
 _ZN11octave_sortIxE14merge_collapseISt4lessIxEEEiPxT_@Base 3.4.3
 _ZN11octave_sortIxE14merge_collapseISt7greaterIxEEEiPxPiT_@Base 3.4.3
 _ZN11octave_sortIxE14merge_collapseISt7greaterIxEEEiPxT_@Base 3.4.3
 _ZN11octave_sortIxE17ascending_compareExx@Base 3.4.3
 _ZN11octave_sortIxE18descending_compareExx@Base 3.4.3
 _ZN11octave_sortIxE20merge_compute_minrunEi@Base 3.4.3
 _ZN11octave_sortIxE4sortEPxPii@Base 3.4.3
 _ZN11octave_sortIxE4sortEPxi@Base 3.4.3
 _ZN11octave_sortIxE4sortIPFbxxEEEvPxPiiT_@Base 3.4.3
 _ZN11octave_sortIxE4sortIPFbxxEEEvPxiT_@Base 3.4.3
 _ZN11octave_sortIxE4sortISt4lessIxEEEvPxPiiT_@Base 3.4.3
 _ZN11octave_sortIxE4sortISt4lessIxEEEvPxiT_@Base 3.4.3
 _ZN11octave_sortIxE4sortISt7greaterIxEEEvPxPiiT_@Base 3.4.3
 _ZN11octave_sortIxE4sortISt7greaterIxEEEvPxiT_@Base 3.4.3
 _ZN11octave_sortIxE6lookupEPKxiRS1_@Base 3.4.3
 _ZN11octave_sortIxE6lookupEPKxiS2_iPi@Base 3.4.3
 _ZN11octave_sortIxE8merge_atIPFbxxEEEiiPxPiT_@Base 3.4.3
 _ZN11octave_sortIxE8merge_atIPFbxxEEEiiPxT_@Base 3.4.3
 _ZN11octave_sortIxE8merge_atISt4lessIxEEEiiPxPiT_@Base 3.4.3
 _ZN11octave_sortIxE8merge_atISt4lessIxEEEiiPxT_@Base 3.4.3
 _ZN11octave_sortIxE8merge_atISt7greaterIxEEEiiPxPiT_@Base 3.4.3
 _ZN11octave_sortIxE8merge_atISt7greaterIxEEEiiPxT_@Base 3.4.3
 _ZN11octave_sortIxE8merge_hiIPFbxxEEEiPxPiiS4_S5_iT_@Base 3.4.3
 _ZN11octave_sortIxE8merge_hiIPFbxxEEEiPxiS4_iT_@Base 3.4.3
 _ZN11octave_sortIxE8merge_hiISt4lessIxEEEiPxPiiS4_S5_iT_@Base 3.4.3
 _ZN11octave_sortIxE8merge_hiISt4lessIxEEEiPxiS4_iT_@Base 3.4.3
 _ZN11octave_sortIxE8merge_hiISt7greaterIxEEEiPxPiiS4_S5_iT_@Base 3.4.3
 _ZN11octave_sortIxE8merge_hiISt7greaterIxEEEiPxiS4_iT_@Base 3.4.3
 _ZN11octave_sortIxE8merge_loIPFbxxEEEiPxPiiS4_S5_iT_@Base 3.4.3
 _ZN11octave_sortIxE8merge_loIPFbxxEEEiPxiS4_iT_@Base 3.4.3
 _ZN11octave_sortIxE8merge_loISt4lessIxEEEiPxPiiS4_S5_iT_@Base 3.4.3
 _ZN11octave_sortIxE8merge_loISt4lessIxEEEiPxiS4_iT_@Base 3.4.3
 _ZN11octave_sortIxE8merge_loISt7greaterIxEEEiPxPiiS4_S5_iT_@Base 3.4.3
 _ZN11octave_sortIxE8merge_loISt7greaterIxEEEiPxiS4_iT_@Base 3.4.3
 _ZN11octave_sortIxE9is_sortedEPKxi@Base 3.4.3
 _ZN11octave_sortIxE9sort_rowsEPKxPiii@Base 3.4.3
 _ZN11octave_sortIxE9sort_rowsIPFbxxEEEvPKxPiiiT_@Base 3.4.3
 _ZN11octave_sortIxE9sort_rowsISt4lessIxEEEvPKxPiiiT_@Base 3.4.3
 _ZN11octave_sortIxE9sort_rowsISt7greaterIxEEEvPKxPiiiT_@Base 3.4.3
 _ZN11octave_sortIxEC1EPFbxxE@Base 3.4.3
 _ZN11octave_sortIxEC1Ev@Base 3.4.3
 _ZN11octave_sortIxEC2EPFbxxE@Base 3.4.3
 _ZN11octave_sortIxEC2Ev@Base 3.4.3
 _ZN11octave_sortIxED1Ev@Base 3.4.3
 _ZN11octave_sortIxED2Ev@Base 3.4.3
 _ZN11octave_time5stampEv@Base 3.4.3
 _ZN11octave_timeC1ERK14octave_base_tm@Base 3.4.3
 _ZN11octave_timeC2ERK14octave_base_tm@Base 3.4.3
 _ZN11regex_match11set_patternERK13string_vector@Base 3.4.3
 _ZN11regex_match11set_patternERKSs@Base 3.4.3
 _ZN11regex_match4initEv@Base 3.4.3
 _ZN11regex_match5matchERK13string_vector@Base 3.4.3
 _ZN11regex_match5matchERKSs@Base 3.4.3
 _ZN11regex_matchD1Ev@Base 3.4.3
 _ZN11regex_matchD2Ev@Base 3.4.3
 _ZN11regex_matchaSERKS_@Base 3.4.3
 _ZN12ColumnVector4fillEd@Base 3.4.3
 _ZN12ColumnVector4fillEdii@Base 3.4.3
 _ZN12ColumnVector6insertERKS_i@Base 3.4.3
 _ZN12ColumnVectorD1Ev@Base 3.4.3
 _ZN12ColumnVectorD2Ev@Base 3.4.3
 _ZN12ComplexSCHUR4initERK13ComplexMatrixRKSsb@Base 3.4.3
 _ZN12ComplexSCHURC1ERK13ComplexMatrixS2_@Base 3.4.3
 _ZN12ComplexSCHURC1ERK5SCHUR@Base 3.4.3
 _ZN12ComplexSCHURC2ERK13ComplexMatrixS2_@Base 3.4.3
 _ZN12ComplexSCHURC2ERK5SCHUR@Base 3.4.3
 _ZN12DASRT_resultD1Ev@Base 3.4.3
 _ZN12DASRT_resultD2Ev@Base 3.4.3
 _ZN12FloatDefQuad12do_integrateERiS0_Rd@Base 3.4.3
 _ZN12FloatDefQuad12do_integrateERiS0_Rf@Base 3.4.3
 _ZN12FloatDefQuadD0Ev@Base 3.4.3
 _ZN12FloatDefQuadD1Ev@Base 3.4.3
 _ZN12FloatDefQuadD2Ev@Base 3.4.3
 _ZN12FloatNDArray13compute_indexER5ArrayIiERK10dim_vector@Base 3.4.3
 _ZN12FloatNDArray15increment_indexER5ArrayIiERK10dim_vectori@Base 3.4.3
 _ZN12FloatNDArray6concatERK11charNDArrayRK5ArrayIiE@Base 3.4.3
 _ZN12FloatNDArray6concatERK19FloatComplexNDArrayRK5ArrayIiE@Base 3.4.3
 _ZN12FloatNDArray6concatERKS_RK5ArrayIiE@Base 3.4.3
 _ZN12FloatNDArray6insertERKS_RK5ArrayIiE@Base 3.4.3
 _ZN12FloatNDArray6insertERKS_ii@Base 3.4.3
 _ZN12FloatNDArrayC1ERK11charNDArray@Base 3.4.3
 _ZN12FloatNDArrayC2ERK11charNDArray@Base 3.4.3
 _ZN12SparseMatrix6concatERK19SparseComplexMatrixRK5ArrayIiE@Base 3.4.3
 _ZN12SparseMatrix6concatERKS_RK5ArrayIiE@Base 3.4.3
 _ZN12SparseMatrix6insertERKS_RK5ArrayIiE@Base 3.4.3
 _ZN12SparseMatrix6insertERKS_ii@Base 3.4.3
 _ZN12SparseMatrixC1ERK10DiagMatrix@Base 3.4.3
 _ZN12SparseMatrixC1ERK10PermMatrix@Base 3.4.3
 _ZN12SparseMatrixC1ERK16SparseBoolMatrix@Base 3.4.3
 _ZN12SparseMatrixC1Eii@Base 3.4.3
 _ZN12SparseMatrixC1Ev@Base 3.4.3
 _ZN12SparseMatrixC2ERK10DiagMatrix@Base 3.4.3
 _ZN12SparseMatrixC2ERK10PermMatrix@Base 3.4.3
 _ZN12SparseMatrixC2ERK16SparseBoolMatrix@Base 3.4.3
 _ZN12SparseMatrixC2Eii@Base 3.4.3
 _ZN12SparseMatrixC2Ev@Base 3.4.3
 _ZN12SparseMatrixD0Ev@Base 3.4.3
 _ZN12SparseMatrixD1Ev@Base 3.4.3
 _ZN12SparseMatrixD2Ev@Base 3.4.3
 _ZN12SparseMatrixaSERKS_@Base 3.4.3
 _ZN12gnu_readline10do_newlineEv@Base 3.4.3
 _ZN12gnu_readline11do_readlineERKSsRb@Base 3.4.3
 _ZN12gnu_readline11do_set_nameERKSs@Base 3.4.3
 _ZN12gnu_readline13newline_charsEv@Base 3.4.3
 _ZN12gnu_readline14command_quoterEPciS0_@Base 3.4.3
 _ZN12gnu_readline14do_accept_lineEv@Base 3.4.3
 _ZN12gnu_readline14do_insert_textERKSs@Base 3.4.3
 _ZN12gnu_readline14set_event_hookEPFivE@Base 3.4.3
 _ZN12gnu_readline15do_clear_screenEv@Base 3.4.3
 _ZN12gnu_readline16command_dequoterEPci@Base 3.4.3
 _ZN12gnu_readline16do_terminal_colsEv@Base 3.4.3
 _ZN12gnu_readline16do_terminal_rowsEv@Base 3.4.3
 _ZN12gnu_readline16set_startup_hookEPFivE@Base 3.4.3
 _ZN12gnu_readline17command_completerEPKcii@Base 3.4.3
 _ZN12gnu_readline17command_generatorEPKci@Base 3.4.3
 _ZN12gnu_readline17do_read_init_fileERKSs@Base 3.4.3
 _ZN12gnu_readline18do_clear_undo_listEv@Base 3.4.3
 _ZN12gnu_readline18do_resize_terminalEv@Base 3.4.3
 _ZN12gnu_readline18restore_event_hookEv@Base 3.4.3
 _ZN12gnu_readline19command_accept_lineEii@Base 3.4.3
 _ZN12gnu_readline19do_get_input_streamEv@Base 3.4.3
 _ZN12gnu_readline19do_set_input_streamEP8_IO_FILE@Base 3.4.3
 _ZN12gnu_readline20do_get_output_streamEv@Base 3.4.3
 _ZN12gnu_readline20do_re_read_init_fileEv@Base 3.4.3
 _ZN12gnu_readline20do_set_output_streamEP8_IO_FILE@Base 3.4.3
 _ZN12gnu_readline20operate_and_get_nextEii@Base 3.4.3
 _ZN12gnu_readline20restore_startup_hookEv@Base 3.4.3
 _ZN12gnu_readline22command_char_is_quotedEPci@Base 3.4.3
 _ZN12gnu_readline22history_search_forwardEii@Base 3.4.3
 _ZN12gnu_readline23do_blink_matching_parenEb@Base 3.4.3
 _ZN12gnu_readline23do_set_quoting_functionEPFSsRKSsicE@Base 3.4.3
 _ZN12gnu_readline23history_search_backwardEii@Base 3.4.3
 _ZN12gnu_readline25do_restore_terminal_stateEv@Base 3.4.3
 _ZN12gnu_readline25do_set_dequoting_functionEPFSsRKSsiE@Base 3.4.3
 _ZN12gnu_readline26do_set_completion_functionEPFSsRKSsiE@Base 3.4.3
 _ZN12gnu_readline27do_filename_quoting_desiredEb@Base 3.4.3
 _ZN12gnu_readline29do_set_basic_quote_charactersERKSs@Base 3.4.3
 _ZN12gnu_readline30do_filename_completion_desiredEb@Base 3.4.3
 _ZN12gnu_readline30do_set_char_is_quoted_functionEPFiRKSsiE@Base 3.4.3
 _ZN12gnu_readline32do_generate_filename_completionsERKSs@Base 3.4.3
 _ZN12gnu_readline32do_set_filename_quote_charactersERKSs@Base 3.4.3
 _ZN12gnu_readline32do_set_user_accept_line_functionEPFvRKSsE@Base 3.4.3
 _ZN12gnu_readline33do_set_completer_quote_charactersERKSs@Base 3.4.3
 _ZN12gnu_readline34do_set_basic_word_break_charactersERKSs@Base 3.4.3
 _ZN12gnu_readline34do_set_completion_append_characterEc@Base 3.4.3
 _ZN12gnu_readline38do_set_completer_word_break_charactersERKSs@Base 3.4.3
 _ZN12gnu_readlineC1Ev@Base 3.4.3
 _ZN12gnu_readlineC2Ev@Base 3.4.3
 _ZN12gnu_readlineD0Ev@Base 3.4.3
 _ZN12gnu_readlineD1Ev@Base 3.4.3
 _ZN12gnu_readlineD2Ev@Base 3.4.3
 _ZN12octave_group8endgrentERSs@Base 3.4.3
 _ZN12octave_group8endgrentEv@Base 3.4.3
 _ZN12octave_group8getgrentERSs@Base 3.4.3
 _ZN12octave_group8getgrentEv@Base 3.4.3
 _ZN12octave_group8getgrgidEj@Base 3.4.3
 _ZN12octave_group8getgrgidEjRSs@Base 3.4.3
 _ZN12octave_group8getgrnamERKSs@Base 3.4.3
 _ZN12octave_group8getgrnamERKSsRSs@Base 3.4.3
 _ZN12octave_group8setgrentERSs@Base 3.4.3
 _ZN12octave_group8setgrentEv@Base 3.4.3
 _ZN12octave_groupC1EPvRSs@Base 3.4.3
 _ZN12octave_groupC2EPvRSs@Base 3.4.3
 _ZN12octave_mutexC1Ev@Base 3.4.3
 _ZN12octave_mutexC2Ev@Base 3.4.3
 _ZN12octave_mutexD1Ev@Base 3.4.3
 _ZN12octave_mutexD2Ev@Base 3.4.3
 _ZN12octave_shlib7nil_repE@Base 3.4.3
 _ZN12octave_shlib9shlib_rep11fake_reloadEv@Base 3.4.3
 _ZN12octave_shlib9shlib_rep12add_fcn_nameERKSs@Base 3.4.3
 _ZN12octave_shlib9shlib_rep12get_instanceERKSsb@Base 3.4.3
 _ZN12octave_shlib9shlib_rep12new_instanceERKSs@Base 3.4.3
 _ZN12octave_shlib9shlib_rep13do_close_hookEPFvRKSsE@Base 3.4.3
 _ZN12octave_shlib9shlib_rep15remove_fcn_nameERKSs@Base 3.4.3
 _ZN12octave_shlib9shlib_rep6searchERKSsPFSsS2_E@Base 3.4.3
 _ZN12octave_shlib9shlib_rep9instancesE@Base 3.4.3
 _ZN12octave_shlib9shlib_repC1ERKSs@Base 3.4.3
 _ZN12octave_shlib9shlib_repC2ERKSs@Base 3.4.3
 _ZN12octave_shlib9shlib_repD0Ev@Base 3.4.3
 _ZN12octave_shlib9shlib_repD1Ev@Base 3.4.3
 _ZN12octave_shlib9shlib_repD2Ev@Base 3.4.3
 _ZN12octave_uname4initEv@Base 3.4.3
 _ZN13ComplexMatrix4fillERKSt7complexIdE@Base 3.4.3
 _ZN13ComplexMatrix4fillERKSt7complexIdEiiii@Base 3.4.3
 _ZN13ComplexMatrix4fillEd@Base 3.4.3
 _ZN13ComplexMatrix4fillEdiiii@Base 3.4.3
 _ZN13ComplexMatrix6insertERK10DiagMatrixii@Base 3.4.3
 _ZN13ComplexMatrix6insertERK12ColumnVectorii@Base 3.4.3
 _ZN13ComplexMatrix6insertERK16ComplexRowVectorii@Base 3.4.3
 _ZN13ComplexMatrix6insertERK17ComplexDiagMatrixii@Base 3.4.3
 _ZN13ComplexMatrix6insertERK19ComplexColumnVectorii@Base 3.4.3
 _ZN13ComplexMatrix6insertERK6Matrixii@Base 3.4.3
 _ZN13ComplexMatrix6insertERK9RowVectorii@Base 3.4.3
 _ZN13ComplexMatrix6insertERKS_ii@Base 3.4.3
 _ZN13ComplexMatrix6resizeEiiRKSt7complexIdE@Base 3.4.3
 _ZN13ComplexMatrixC1ERK10DiagMatrix@Base 3.4.3
 _ZN13ComplexMatrixC1ERK10boolMatrix@Base 3.4.3
 _ZN13ComplexMatrixC1ERK10charMatrix@Base 3.4.3
 _ZN13ComplexMatrixC1ERK12ColumnVector@Base 3.4.3
 _ZN13ComplexMatrixC1ERK16ComplexRowVector@Base 3.4.3
 _ZN13ComplexMatrixC1ERK17ComplexDiagMatrix@Base 3.4.3
 _ZN13ComplexMatrixC1ERK19ComplexColumnVector@Base 3.4.3
 _ZN13ComplexMatrixC1ERK6Matrix@Base 3.4.3
 _ZN13ComplexMatrixC1ERK6MatrixS2_@Base 3.4.3
 _ZN13ComplexMatrixC1ERK9RowVector@Base 3.4.3
 _ZN13ComplexMatrixC1EiiRKSt7complexIdE@Base 3.4.3
 _ZN13ComplexMatrixC1Ev@Base 3.4.3
 _ZN13ComplexMatrixC1ISt7complexIdEEERK6MArrayIT_E@Base 3.4.3
 _ZN13ComplexMatrixC2ERK10DiagMatrix@Base 3.4.3
 _ZN13ComplexMatrixC2ERK10boolMatrix@Base 3.4.3
 _ZN13ComplexMatrixC2ERK10charMatrix@Base 3.4.3
 _ZN13ComplexMatrixC2ERK12ColumnVector@Base 3.4.3
 _ZN13ComplexMatrixC2ERK16ComplexRowVector@Base 3.4.3
 _ZN13ComplexMatrixC2ERK17ComplexDiagMatrix@Base 3.4.3
 _ZN13ComplexMatrixC2ERK19ComplexColumnVector@Base 3.4.3
 _ZN13ComplexMatrixC2ERK6Matrix@Base 3.4.3
 _ZN13ComplexMatrixC2ERK6MatrixS2_@Base 3.4.3
 _ZN13ComplexMatrixC2ERK9RowVector@Base 3.4.3
 _ZN13ComplexMatrixC2EiiRKSt7complexIdE@Base 3.4.3
 _ZN13ComplexMatrixC2Ev@Base 3.4.3
 _ZN13ComplexMatrixC2ISt7complexIdEEERK6MArrayIT_E@Base 3.4.3
 _ZN13ComplexMatrixD1Ev@Base 3.4.3
 _ZN13ComplexMatrixD2Ev@Base 3.4.3
 _ZN13ComplexMatrixaSERKS_@Base 3.4.3
 _ZN13ComplexMatrixmIERK10DiagMatrix@Base 3.4.3
 _ZN13ComplexMatrixmIERK17ComplexDiagMatrix@Base 3.4.3
 _ZN13ComplexMatrixmIERK6Matrix@Base 3.4.3
 _ZN13ComplexMatrixpLERK10DiagMatrix@Base 3.4.3
 _ZN13ComplexMatrixpLERK17ComplexDiagMatrix@Base 3.4.3
 _ZN13ComplexMatrixpLERK6Matrix@Base 3.4.3
 _ZN13base_diff_eqn13force_restartEv@Base 3.4.3
 _ZN13base_diff_eqnD0Ev@Base 3.4.3
 _ZN13base_diff_eqnD1Ev@Base 3.4.3
 _ZN13base_diff_eqnD2Ev@Base 3.4.3
 _ZN13oct_data_conv19data_type_as_stringENS_9data_typeE@Base 3.4.3
 _ZN13oct_data_conv19string_to_data_typeERKSs@Base 3.4.3
 _ZN13oct_data_conv19string_to_data_typeERKSsRiRNS_9data_typeE@Base 3.4.3
 _ZN13oct_data_conv19string_to_data_typeERKSsRiRNS_9data_typeES4_@Base 3.4.3
 _ZN13oct_mach_info11instance_okEv@Base 3.4.3
 _ZN13oct_mach_info16words_big_endianEv@Base 3.4.3
 _ZN13oct_mach_info19native_float_formatEv@Base 3.4.3
 _ZN13oct_mach_info19words_little_endianEv@Base 3.4.3
 _ZN13oct_mach_info22float_format_as_stringENS_12float_formatE@Base 3.4.3
 _ZN13oct_mach_info22string_to_float_formatERKSs@Base 3.4.3
 _ZN13oct_mach_info8instanceE@Base 3.4.3
 _ZN13oct_mach_infoC1Ev@Base 3.4.3
 _ZN13oct_mach_infoC2Ev@Base 3.4.3
 _ZN13octave_gmtime4initERK11octave_time@Base 3.4.3
 _ZN13octave_passwd8endpwentERSs@Base 3.4.3
 _ZN13octave_passwd8endpwentEv@Base 3.4.3
 _ZN13octave_passwd8getpwentERSs@Base 3.4.3
 _ZN13octave_passwd8getpwentEv@Base 3.4.3
 _ZN13octave_passwd8getpwnamERKSs@Base 3.4.3
 _ZN13octave_passwd8getpwnamERKSsRSs@Base 3.4.3
 _ZN13octave_passwd8getpwuidEj@Base 3.4.3
 _ZN13octave_passwd8getpwuidEjRSs@Base 3.4.3
 _ZN13octave_passwd8setpwentERSs@Base 3.4.3
 _ZN13octave_passwd8setpwentEv@Base 3.4.3
 _ZN13octave_passwdC1EPvRSs@Base 3.4.3
 _ZN13octave_passwdC2EPvRSs@Base 3.4.3
 _ZN13octave_passwdD1Ev@Base 3.4.3
 _ZN13octave_passwdD2Ev@Base 3.4.3
 _ZN13string_vector16delete_c_str_vecEPKPKc@Base 3.4.3
 _ZN13string_vector4sortEb@Base 3.4.3
 _ZN13string_vector4uniqEv@Base 3.4.3
 _ZN13string_vector6appendERKS_@Base 3.4.3
 _ZN13string_vector6appendERKSs@Base 3.4.3
 _ZN13string_vectorC1EPKPKc@Base 3.4.3
 _ZN13string_vectorC1EPKPKci@Base 3.4.3
 _ZN13string_vectorC1ERKSs@Base 3.4.3
 _ZN13string_vectorC1ERKSt3setISsSt4lessISsESaISsEE@Base 3.4.3
 _ZN13string_vectorC1ERKSt4listISsSaISsEE@Base 3.4.3
 _ZN13string_vectorC1Ev@Base 3.4.3
 _ZN13string_vectorC2EPKPKc@Base 3.4.3
 _ZN13string_vectorC2EPKPKci@Base 3.4.3
 _ZN13string_vectorC2ERKSs@Base 3.4.3
 _ZN13string_vectorC2ERKSt3setISsSt4lessISsESaISsEE@Base 3.4.3
 _ZN13string_vectorC2ERKSt4listISsSaISsEE@Base 3.4.3
 _ZN13string_vectorC2Ev@Base 3.4.3
 _ZN13string_vectorD1Ev@Base 3.4.3
 _ZN13string_vectorD2Ev@Base 3.4.3
 _ZN13string_vectorixEi@Base 3.4.3
 _ZN14ComplexNDArray13compute_indexER5ArrayIiERK10dim_vector@Base 3.4.3
 _ZN14ComplexNDArray15increment_indexER5ArrayIiERK10dim_vectori@Base 3.4.3
 _ZN14ComplexNDArray6concatERK7NDArrayRK5ArrayIiE@Base 3.4.3
 _ZN14ComplexNDArray6concatERKS_RK5ArrayIiE@Base 3.4.3
 _ZN14ComplexNDArray6insertERK7NDArrayii@Base 3.4.3
 _ZN14ComplexNDArray6insertERKS_RK5ArrayIiE@Base 3.4.3
 _ZN14ComplexNDArray6insertERKS_ii@Base 3.4.3
 _ZN14ComplexNDArrayC1ERK11charNDArray@Base 3.4.3
# inline method in the header file => always available!
 (c++|optional=inlineMethod)"ComplexNDArray::ComplexNDArray()@Base" 3.4.3
 _ZN14ComplexNDArrayC2ERK11charNDArray@Base 3.4.3
 _ZN14FloatComplexLU10update_pivERK18FloatComplexMatrixS2_@Base 3.4.3
 _ZN14FloatComplexLU10update_pivERK24FloatComplexColumnVectorS2_@Base 3.4.3
 _ZN14FloatComplexLU6updateERK18FloatComplexMatrixS2_@Base 3.4.3
 _ZN14FloatComplexLU6updateERK24FloatComplexColumnVectorS2_@Base 3.4.3
 _ZN14FloatComplexLUC1ERK18FloatComplexMatrix@Base 3.4.3
 _ZN14FloatComplexLUC2ERK18FloatComplexMatrix@Base 3.4.3
 _ZN14FloatComplexLUD0Ev@Base 3.4.3
 _ZN14FloatComplexLUD1Ev@Base 3.4.3
 _ZN14FloatComplexLUD2Ev@Base 3.4.3
 _ZN14FloatComplexQR10delete_colERK5ArrayIiE@Base 3.4.3
 _ZN14FloatComplexQR10delete_colEi@Base 3.4.3
 _ZN14FloatComplexQR10delete_rowEi@Base 3.4.3
 _ZN14FloatComplexQR10insert_colERK18FloatComplexMatrixRK5ArrayIiE@Base 3.4.3
 _ZN14FloatComplexQR10insert_colERK24FloatComplexColumnVectori@Base 3.4.3
 _ZN14FloatComplexQR10insert_rowERK21FloatComplexRowVectori@Base 3.4.3
 _ZN14FloatComplexQR10shift_colsEii@Base 3.4.3
 _ZN14FloatComplexQR4formEiR18FloatComplexMatrixPSt7complexIfE9qr_type_t@Base 3.4.3
 _ZN14FloatComplexQR4initERK18FloatComplexMatrix9qr_type_t@Base 3.4.3
 _ZN14FloatComplexQR6updateERK18FloatComplexMatrixS2_@Base 3.4.3
 _ZN14FloatComplexQR6updateERK24FloatComplexColumnVectorS2_@Base 3.4.3
 _ZN14FloatComplexQRC1ERK18FloatComplexMatrix9qr_type_t@Base 3.4.3
 _ZN14FloatComplexQRC2ERK18FloatComplexMatrix9qr_type_t@Base 3.4.3
 _ZN14FloatComplexQRD0Ev@Base 3.4.3
 _ZN14FloatComplexQRD1Ev@Base 3.4.3
 _ZN14FloatComplexQRD2Ev@Base 3.4.3
 _ZN14FloatIndefQuad12do_integrateERiS0_Rd@Base 3.4.3
 _ZN14FloatIndefQuad12do_integrateERiS0_Rf@Base 3.4.3
 _ZN14FloatIndefQuadD0Ev@Base 3.4.3
 _ZN14FloatIndefQuadD1Ev@Base 3.4.3
 _ZN14FloatIndefQuadD2Ev@Base 3.4.3
 _ZN14FloatRowVector4fillEf@Base 3.4.3
 _ZN14FloatRowVector4fillEfii@Base 3.4.3
 _ZN14FloatRowVector6insertERKS_i@Base 3.4.3
 (arch=!kfreebsd-i386 !kfreebsd-amd64)_ZN14base_file_stat6is_blkEj@Base 3.4.3
 (arch=!kfreebsd-i386 !kfreebsd-amd64)_ZN14base_file_stat6is_chrEj@Base 3.4.3
 (arch=!kfreebsd-i386 !kfreebsd-amd64)_ZN14base_file_stat6is_dirEj@Base 3.4.3
 (arch=!kfreebsd-i386 !kfreebsd-amd64)_ZN14base_file_stat6is_lnkEj@Base 3.4.3
 (arch=!kfreebsd-i386 !kfreebsd-amd64)_ZN14base_file_stat6is_regEj@Base 3.4.3
 (arch=!kfreebsd-i386 !kfreebsd-amd64)_ZN14base_file_stat7is_fifoEj@Base 3.4.3
 (arch=!kfreebsd-i386 !kfreebsd-amd64)_ZN14base_file_stat7is_sockEj@Base 3.4.3
 (arch=kfreebsd-i386 kfreebsd-amd64)_ZN14base_file_stat6is_blkEt@Base 3.4.3
 (arch=kfreebsd-i386 kfreebsd-amd64)_ZN14base_file_stat6is_chrEt@Base 3.4.3
 (arch=kfreebsd-i386 kfreebsd-amd64)_ZN14base_file_stat6is_dirEt@Base 3.4.3
 (arch=kfreebsd-i386 kfreebsd-amd64)_ZN14base_file_stat6is_lnkEt@Base 3.4.3
 (arch=kfreebsd-i386 kfreebsd-amd64)_ZN14base_file_stat6is_regEt@Base 3.4.3
 (arch=kfreebsd-i386 kfreebsd-amd64)_ZN14base_file_stat7is_fifoEt@Base 3.4.3
 (arch=kfreebsd-i386 kfreebsd-amd64)_ZN14base_file_stat7is_sockEt@Base 3.4.3
 _ZN14base_file_stat8is_newerERKSsRK11octave_time@Base 3.4.3
 _ZN14base_file_statD0Ev@Base 3.4.3
 _ZN14base_file_statD1Ev@Base 3.4.3
 _ZN14base_file_statD2Ev@Base 3.4.3
 _ZN14command_editor10read_octalERKSs@Base 3.4.3
 _ZN14command_editor11accept_lineEv@Base 3.4.3
 _ZN14command_editor11do_set_nameERKSs@Base 3.4.3
 _ZN14command_editor11insert_textERKSs@Base 3.4.3
 _ZN14command_editor11instance_okEv@Base 3.4.3
 _ZN14command_editor12clear_screenEv@Base 3.4.3
 _ZN14command_editor13event_handlerEv@Base 3.4.3
 _ZN14command_editor13newline_charsEv@Base 3.4.3
 _ZN14command_editor13terminal_colsEv@Base 3.4.3
 _ZN14command_editor13terminal_rowsEv@Base 3.4.3
 _ZN14command_editor14add_event_hookEPFivE@Base 3.4.3
 _ZN14command_editor14event_hook_setE@Base 3.4.3
 _ZN14command_editor14read_init_fileERKSs@Base 3.4.3
 _ZN14command_editor14set_event_hookEPFivE@Base 3.4.3
 _ZN14command_editor15clear_undo_listEv@Base 3.4.3
 _ZN14command_editor15do_clear_screenEv@Base 3.4.3
 _ZN14command_editor15get_line_bufferEv@Base 3.4.3
 _ZN14command_editor15resize_terminalEv@Base 3.4.3
 _ZN14command_editor15startup_handlerEv@Base 3.4.3
 _ZN14command_editor16add_startup_hookEPFivE@Base 3.4.3
 _ZN14command_editor16do_terminal_colsEv@Base 3.4.3
 _ZN14command_editor16do_terminal_rowsEv@Base 3.4.3
 _ZN14command_editor16get_input_streamEv@Base 3.4.3
 _ZN14command_editor16set_input_streamEP8_IO_FILE@Base 3.4.3
 _ZN14command_editor16set_startup_hookEPFivE@Base 3.4.3
 _ZN14command_editor16startup_hook_setE@Base 3.4.3
 _ZN14command_editor17do_read_init_fileERKSs@Base 3.4.3
 _ZN14command_editor17get_output_streamEv@Base 3.4.3
 _ZN14command_editor17re_read_init_fileEv@Base 3.4.3
 _ZN14command_editor17remove_event_hookEPFivE@Base 3.4.3
 _ZN14command_editor17set_output_streamEP8_IO_FILE@Base 3.4.3
 _ZN14command_editor18do_clear_undo_listEv@Base 3.4.3
 _ZN14command_editor18do_resize_terminalEv@Base 3.4.3
 _ZN14command_editor18restore_event_hookEv@Base 3.4.3
 _ZN14command_editor19make_command_editorEv@Base 3.4.3
 _ZN14command_editor19remove_startup_hookEPFivE@Base 3.4.3
 _ZN14command_editor20blink_matching_parenEb@Base 3.4.3
 _ZN14command_editor20decode_prompt_stringERKSs@Base 3.4.3
 _ZN14command_editor20do_re_read_init_fileEv@Base 3.4.3
 _ZN14command_editor20force_default_editorEv@Base 3.4.3
 _ZN14command_editor20get_quoting_functionEv@Base 3.4.3
 _ZN14command_editor20restore_startup_hookEv@Base 3.4.3
 _ZN14command_editor20set_quoting_functionEPFSsRKSsicE@Base 3.4.3
 _ZN14command_editor22current_command_numberEv@Base 3.4.3
 _ZN14command_editor22get_dequoting_functionEv@Base 3.4.3
 _ZN14command_editor22restore_terminal_stateEv@Base 3.4.3
 _ZN14command_editor22set_dequoting_functionEPFSsRKSsiE@Base 3.4.3
 _ZN14command_editor23do_blink_matching_parenEb@Base 3.4.3
 _ZN14command_editor23do_decode_prompt_stringERKSs@Base 3.4.3
 _ZN14command_editor23do_set_quoting_functionEPFSsRKSsicE@Base 3.4.3
 _ZN14command_editor23get_completion_functionEv@Base 3.4.3
 _ZN14command_editor23set_completion_functionEPFSsRKSsiE@Base 3.4.3
 _ZN14command_editor24filename_quoting_desiredEb@Base 3.4.3
 _ZN14command_editor25do_restore_terminal_stateEv@Base 3.4.3
 _ZN14command_editor25do_set_dequoting_functionEPFSsRKSsiE@Base 3.4.3
 _ZN14command_editor26do_set_completion_functionEPFSsRKSsiE@Base 3.4.3
 _ZN14command_editor26set_basic_quote_charactersERKSs@Base 3.4.3
 _ZN14command_editor27do_filename_quoting_desiredEb@Base 3.4.3
 _ZN14command_editor27filename_completion_desiredEb@Base 3.4.3
 _ZN14command_editor27get_char_is_quoted_functionEv@Base 3.4.3
 _ZN14command_editor27set_char_is_quoted_functionEPFiRKSsiE@Base 3.4.3
 _ZN14command_editor28reset_current_command_numberEi@Base 3.4.3
 _ZN14command_editor29do_set_basic_quote_charactersERKSs@Base 3.4.3
 _ZN14command_editor29generate_filename_completionsERKSs@Base 3.4.3
 _ZN14command_editor29get_user_accept_line_functionEv@Base 3.4.3
 _ZN14command_editor29set_filename_quote_charactersERKSs@Base 3.4.3
 _ZN14command_editor29set_user_accept_line_functionEPFvRKSsE@Base 3.4.3
 _ZN14command_editor30do_filename_completion_desiredEb@Base 3.4.3
 _ZN14command_editor30do_set_char_is_quoted_functionEPFiRKSsiE@Base 3.4.3
 _ZN14command_editor30set_completer_quote_charactersERKSs@Base 3.4.3
 _ZN14command_editor31set_basic_word_break_charactersERKSs@Base 3.4.3
 _ZN14command_editor31set_completion_append_characterEc@Base 3.4.3
 _ZN14command_editor32do_set_filename_quote_charactersERKSs@Base 3.4.3
 _ZN14command_editor32do_set_user_accept_line_functionEPFvRKSsE@Base 3.4.3
 _ZN14command_editor32increment_current_command_numberEv@Base 3.4.3
 _ZN14command_editor33do_set_completer_quote_charactersERKSs@Base 3.4.3
 _ZN14command_editor34do_set_basic_word_break_charactersERKSs@Base 3.4.3
 _ZN14command_editor34do_set_completion_append_characterEc@Base 3.4.3
 _ZN14command_editor35set_completer_word_break_charactersERKSs@Base 3.4.3
 _ZN14command_editor38do_set_completer_word_break_charactersERKSs@Base 3.4.3
 _ZN14command_editor5errorERKSs@Base 3.4.3
 _ZN14command_editor5errorEi@Base 3.4.3
 _ZN14command_editor7newlineEv@Base 3.4.3
 _ZN14command_editor8instanceE@Base 3.4.3
 _ZN14command_editor8readlineERKSs@Base 3.4.3
 _ZN14command_editor8readlineERKSsRb@Base 3.4.3
 _ZN14command_editor8set_nameERKSs@Base 3.4.3
 _ZN14command_editorD0Ev@Base 3.4.3
 _ZN14command_editorD1Ev@Base 3.4.3
 _ZN14command_editorD2Ev@Base 3.4.3
 _ZN14octave_base_tm3minEi@Base 3.4.3
 _ZN14octave_base_tm3monEi@Base 3.4.3
 _ZN14octave_base_tm3secEi@Base 3.4.3
 _ZN14octave_base_tm4hourEi@Base 3.4.3
 _ZN14octave_base_tm4initEPv@Base 3.4.3
 _ZN14octave_base_tm4mdayEi@Base 3.4.3
 _ZN14octave_base_tm4usecEi@Base 3.4.3
 _ZN14octave_base_tm4wdayEi@Base 3.4.3
 _ZN14octave_base_tm4ydayEi@Base 3.4.3
 _ZN14octave_base_tm4yearEi@Base 3.4.3
 _ZN14octave_base_tm4zoneERKSs@Base 3.4.3
 _ZN14octave_base_tm5isdstEi@Base 3.4.3
 _ZN14octave_base_tmD0Ev@Base 3.4.3
 _ZN14octave_base_tmD1Ev@Base 3.4.3
 _ZN14octave_base_tmD2Ev@Base 3.4.3
 _ZN14sparse_base_luI12SparseMatrixdS0_dEC1ERKS1_@Base 3.4.3
 _ZN14sparse_base_luI12SparseMatrixdS0_dEC1Ev@Base 3.4.3
 _ZN14sparse_base_luI12SparseMatrixdS0_dEC2ERKS1_@Base 3.4.3
 _ZN14sparse_base_luI12SparseMatrixdS0_dEC2Ev@Base 3.4.3
 _ZN14sparse_base_luI12SparseMatrixdS0_dED0Ev@Base 3.4.3
 _ZN14sparse_base_luI12SparseMatrixdS0_dED1Ev@Base 3.4.3
 _ZN14sparse_base_luI12SparseMatrixdS0_dED2Ev@Base 3.4.3
 _ZN14sparse_base_luI12SparseMatrixdS0_dEaSERKS1_@Base 3.4.3
 _ZN14sparse_base_luI19SparseComplexMatrixSt7complexIdE12SparseMatrixdEC1ERKS4_@Base 3.4.3
 _ZN14sparse_base_luI19SparseComplexMatrixSt7complexIdE12SparseMatrixdEC1Ev@Base 3.4.3
 _ZN14sparse_base_luI19SparseComplexMatrixSt7complexIdE12SparseMatrixdEC2ERKS4_@Base 3.4.3
 _ZN14sparse_base_luI19SparseComplexMatrixSt7complexIdE12SparseMatrixdEC2Ev@Base 3.4.3
 _ZN14sparse_base_luI19SparseComplexMatrixSt7complexIdE12SparseMatrixdED0Ev@Base 3.4.3
 _ZN14sparse_base_luI19SparseComplexMatrixSt7complexIdE12SparseMatrixdED1Ev@Base 3.4.3
 _ZN14sparse_base_luI19SparseComplexMatrixSt7complexIdE12SparseMatrixdED2Ev@Base 3.4.3
 _ZN14sparse_base_luI19SparseComplexMatrixSt7complexIdE12SparseMatrixdEaSERKS4_@Base 3.4.3
 _ZN15FloatAEPBALANCEC1ERK11FloatMatrixbb@Base 3.4.3
 _ZN15FloatAEPBALANCEC2ERK11FloatMatrixbb@Base 3.4.3
 _ZN15FloatAEPBALANCED0Ev@Base 3.4.3
 _ZN15FloatAEPBALANCED1Ev@Base 3.4.3
 _ZN15FloatAEPBALANCED2Ev@Base 3.4.3
 _ZN15FloatComplexQRP4initERK18FloatComplexMatrix9qr_type_t@Base 3.4.3
 _ZN15FloatComplexQRPC1ERK18FloatComplexMatrix9qr_type_t@Base 3.4.3
 _ZN15FloatComplexQRPC2ERK18FloatComplexMatrix9qr_type_t@Base 3.4.3
 _ZN15FloatComplexQRPD0Ev@Base 3.4.3
 _ZN15FloatComplexQRPD1Ev@Base 3.4.3
 _ZN15FloatComplexQRPD2Ev@Base 3.4.3
 _ZN15FloatComplexSVD4initERK18FloatComplexMatrixN3SVD4typeENS3_6driverE@Base 3.4.3
 _ZN15FloatComplexSVDD1Ev@Base 3.4.3
 _ZN15FloatComplexSVDD2Ev@Base 3.4.3
 _ZN15FloatDiagMatrix4fillERK14FloatRowVector@Base 3.4.3
 _ZN15FloatDiagMatrix4fillERK14FloatRowVectori@Base 3.4.3
 _ZN15FloatDiagMatrix4fillERK17FloatColumnVector@Base 3.4.3
 _ZN15FloatDiagMatrix4fillERK17FloatColumnVectori@Base 3.4.3
 _ZN15FloatDiagMatrix4fillEf@Base 3.4.3
 _ZN15FloatDiagMatrix4fillEfii@Base 3.4.3
 _ZN15FloatDiagMatrixC1ERK5ArrayIdE@Base 3.4.3
 _ZN15FloatDiagMatrixC2ERK5ArrayIdE@Base 3.4.3
 _ZN15FloatGEPBALANCE4initERK11FloatMatrixS2_RKSs@Base 3.4.3
 _ZN15SparseComplexLUC1ERK19SparseComplexMatrixRK12ColumnVectorRK6Matrixbbdbb@Base 3.4.3
 _ZN15SparseComplexLUC1ERK19SparseComplexMatrixRK6Matrixb@Base 3.4.3
 _ZN15SparseComplexLUC2ERK19SparseComplexMatrixRK12ColumnVectorRK6Matrixbbdbb@Base 3.4.3
 _ZN15SparseComplexLUC2ERK19SparseComplexMatrixRK6Matrixb@Base 3.4.3
 _ZN15SparseComplexLUD0Ev@Base 3.4.3
 _ZN15SparseComplexLUD1Ev@Base 3.4.3
 _ZN15SparseComplexLUD2Ev@Base 3.4.3
 _ZN15SparseComplexQR19SparseComplexQR_repC1ERK19SparseComplexMatrixi@Base 3.4.3
 _ZN15SparseComplexQR19SparseComplexQR_repC2ERK19SparseComplexMatrixi@Base 3.4.3
 _ZN15SparseComplexQR19SparseComplexQR_repD1Ev@Base 3.4.3
 _ZN15SparseComplexQR19SparseComplexQR_repD2Ev@Base 3.4.3
 _ZN15command_history10initializeEbRKSsiS1_@Base 3.4.3
 _ZN15command_history10is_stifledEv@Base 3.4.3
 _ZN15command_history10read_rangeERKSsiib@Base 3.4.3
 _ZN15command_history10read_rangeEiib@Base 3.4.3
 _ZN15command_history11do_set_fileERKSs@Base 3.4.3
 _ZN15command_history11do_set_markEi@Base 3.4.3
 _ZN15command_history11do_set_sizeEi@Base 3.4.3
 _ZN15command_history11do_unstifleEv@Base 3.4.3
 _ZN15command_history11histcontrolEv@Base 3.4.3
 _ZN15command_history11instance_okEv@Base 3.4.3
 _ZN15command_history12do_goto_markEv@Base 3.4.3
 _ZN15command_history13do_initializeEbRKSsiS1_@Base 3.4.3
 _ZN15command_history13do_read_rangeERKSsiib@Base 3.4.3
 _ZN15command_history13replace_entryEiRKSs@Base 3.4.3
 _ZN15command_history13truncate_fileERKSsi@Base 3.4.3
 _ZN15command_history14current_numberEv@Base 3.4.3
 _ZN15command_history14ignore_entriesEb@Base 3.4.3
 _ZN15command_history14is_initializedEv@Base 3.4.3
 _ZN15command_history16do_replace_entryEiRKSs@Base 3.4.3
 _ZN15command_history16ignoring_entriesEv@Base 3.4.3
 _ZN15command_history17clean_up_and_saveERKSsi@Base 3.4.3
 _ZN15command_history17do_ignore_entriesEb@Base 3.4.3
 _ZN15command_history17max_input_historyEv@Base 3.4.3
 _ZN15command_history19process_histcontrolERKSs@Base 3.4.3
 _ZN15command_history20do_clean_up_and_saveERKSsi@Base 3.4.3
 _ZN15command_history20make_command_historyEv@Base 3.4.3
 _ZN15command_history22do_process_histcontrolERKSs@Base 3.4.3
 _ZN15command_history3addERKSs@Base 3.4.3
 _ZN15command_history4baseEv@Base 3.4.3
 _ZN15command_history4fileEv@Base 3.4.3
 _ZN15command_history4listEib@Base 3.4.3
 _ZN15command_history4readERKSsb@Base 3.4.3
 _ZN15command_history4readEb@Base 3.4.3
 _ZN15command_history4sizeEv@Base 3.4.3
 _ZN15command_history5whereEv@Base 3.4.3
 _ZN15command_history5writeERKSs@Base 3.4.3
 _ZN15command_history6appendERKSs@Base 3.4.3
 _ZN15command_history6do_addERKSs@Base 3.4.3
 _ZN15command_history6lengthEv@Base 3.4.3
 _ZN15command_history6removeEi@Base 3.4.3
 _ZN15command_history6stifleEi@Base 3.4.3
 _ZN15command_history7do_fileEv@Base 3.4.3
 _ZN15command_history7do_readERKSsb@Base 3.4.3
 _ZN15command_history8instanceE@Base 3.4.3
 _ZN15command_history8set_fileERKSs@Base 3.4.3
 _ZN15command_history8set_markEi@Base 3.4.3
 _ZN15command_history8set_sizeEi@Base 3.4.3
 _ZN15command_history8unstifleEv@Base 3.4.3
 _ZN15command_history9do_appendERKSs@Base 3.4.3
 _ZN15command_history9do_removeEi@Base 3.4.3
 _ZN15command_history9do_stifleEi@Base 3.4.3
 _ZN15command_history9get_entryEi@Base 3.4.3
 _ZN15command_history9goto_markEv@Base 3.4.3
 _ZN15command_historyD0Ev@Base 3.4.3
 _ZN15command_historyD1Ev@Base 3.4.3
 _ZN15command_historyD2Ev@Base 3.4.3
 _ZN15octave_autolockD1Ev@Base 3.4.3
 _ZN15octave_autolockD2Ev@Base 3.4.3
 _ZN15octave_strptime4initERKSsS1_@Base 3.4.3
 _ZN15octave_syscalls4dup2Eii@Base 3.4.3
 _ZN15octave_syscalls4dup2EiiRSs@Base 3.4.3
 _ZN15octave_syscalls4forkERSs@Base 3.4.3
 _ZN15octave_syscalls4killEii@Base 3.4.3
 _ZN15octave_syscalls4killEiiRSs@Base 3.4.3
 _ZN15octave_syscalls4pipeEPi@Base 3.4.3
 _ZN15octave_syscalls4pipeEPiRSs@Base 3.4.3
 _ZN15octave_syscalls5vforkERSs@Base 3.4.3
 _ZN15octave_syscalls6execvpERKSsRK13string_vector@Base 3.4.3
 _ZN15octave_syscalls6execvpERKSsRK13string_vectorRSs@Base 3.4.3
 _ZN15octave_syscalls6getgidEv@Base 3.4.3
 _ZN15octave_syscalls6getpidEv@Base 3.4.3
 _ZN15octave_syscalls6getuidEv@Base 3.4.3
 _ZN15octave_syscalls6popen2ERKSsRK13string_vectorbPi@Base 3.4.3
 _ZN15octave_syscalls6popen2ERKSsRK13string_vectorbPiRSs@Base 3.4.3
 _ZN15octave_syscalls6popen2ERKSsRK13string_vectorbPiRSsRb@Base 3.4.3
 _ZN15octave_syscalls7getegidEv@Base 3.4.3
 _ZN15octave_syscalls7geteuidEv@Base 3.4.3
 _ZN15octave_syscalls7getpgrpERSs@Base 3.4.3
 _ZN15octave_syscalls7getppidEv@Base 3.4.3
 _ZN15octave_syscalls7waitpidEiPii@Base 3.4.3
 _ZN15octave_syscalls7waitpidEiPiiRSs@Base 3.4.3
 _ZN16ComplexRowVector4fillERKSt7complexIdE@Base 3.4.3
 _ZN16ComplexRowVector4fillERKSt7complexIdEii@Base 3.4.3
 _ZN16ComplexRowVector4fillEd@Base 3.4.3
 _ZN16ComplexRowVector4fillEdii@Base 3.4.3
 _ZN16ComplexRowVector6insertERK9RowVectori@Base 3.4.3
 _ZN16ComplexRowVector6insertERKS_i@Base 3.4.3
 _ZN16ComplexRowVectorD1Ev@Base 3.4.3
 _ZN16ComplexRowVectorD2Ev@Base 3.4.3
 _ZN16ComplexRowVectormIERK9RowVector@Base 3.4.3
 _ZN16ComplexRowVectorpLERK9RowVector@Base 3.4.3
 _ZN16FloatComplexCHOL10delete_symEi@Base 3.4.3
 _ZN16FloatComplexCHOL10insert_symERK24FloatComplexColumnVectori@Base 3.4.3
 _ZN16FloatComplexCHOL3setERK18FloatComplexMatrix@Base 3.4.3
 _ZN16FloatComplexCHOL4initERK18FloatComplexMatrixb@Base 3.4.3
 _ZN16FloatComplexCHOL6updateERK24FloatComplexColumnVector@Base 3.4.3
 _ZN16FloatComplexCHOL8downdateERK24FloatComplexColumnVector@Base 3.4.3
 _ZN16FloatComplexCHOL9shift_symEii@Base 3.4.3
 _ZN16FloatComplexHESS4initERK18FloatComplexMatrix@Base 3.4.3
 _ZN16SparseBoolMatrix6concatERKS_RK5ArrayIiE@Base 3.4.3
 _ZN16SparseBoolMatrix6insertERKS_RK5ArrayIiE@Base 3.4.3
 _ZN16SparseBoolMatrix6insertERKS_ii@Base 3.4.3
 _ZN16SparseBoolMatrixD0Ev@Base 3.4.3
 _ZN16SparseBoolMatrixD1Ev@Base 3.4.3
 _ZN16SparseBoolMatrixD2Ev@Base 3.4.3
 _ZN16octave_allocator4growEv@Base 3.4.3
 _ZN16octave_localtime4initERK11octave_time@Base 3.4.3
 _ZN16octave_localtimeD0Ev@Base 3.4.3
 _ZN16octave_localtimeD1Ev@Base 3.4.3
 _ZN16octave_localtimeD2Ev@Base 3.4.3
# not part of API (private class)
 (c++|regex|optional=notPartOfAPI)".*rec_index_helper.*@Base" 3.4.3
 _ZN16sparse_base_cholI12SparseMatrixdS0_E20sparse_base_chol_rep10drop_zerosEPK21cholmod_sparse_struct@Base 3.4.3
 _ZN16sparse_base_cholI12SparseMatrixdS0_E20sparse_base_chol_rep4initERKS0_b@Base 3.4.3
 _ZN16sparse_base_cholI12SparseMatrixdS0_E20sparse_base_chol_repC1ERKS0_Rib@Base 3.4.3
 _ZN16sparse_base_cholI12SparseMatrixdS0_E20sparse_base_chol_repC1ERKS0_b@Base 3.4.3
 _ZN16sparse_base_cholI12SparseMatrixdS0_E20sparse_base_chol_repC1Ev@Base 3.4.3
 _ZN16sparse_base_cholI12SparseMatrixdS0_E20sparse_base_chol_repC2ERKS0_Rib@Base 3.4.3
 _ZN16sparse_base_cholI12SparseMatrixdS0_E20sparse_base_chol_repC2ERKS0_b@Base 3.4.3
 _ZN16sparse_base_cholI12SparseMatrixdS0_E20sparse_base_chol_repC2Ev@Base 3.4.3
 _ZN16sparse_base_cholI12SparseMatrixdS0_E20sparse_base_chol_repD1Ev@Base 3.4.3
 _ZN16sparse_base_cholI12SparseMatrixdS0_E20sparse_base_chol_repD2Ev@Base 3.4.3
 _ZN16sparse_base_cholI12SparseMatrixdS0_EC1ERKS0_Rib@Base 3.4.3
 _ZN16sparse_base_cholI12SparseMatrixdS0_EC1ERKS0_b@Base 3.4.3
 _ZN16sparse_base_cholI12SparseMatrixdS0_EC1ERKS1_@Base 3.4.3
 _ZN16sparse_base_cholI12SparseMatrixdS0_EC1Ev@Base 3.4.3
 _ZN16sparse_base_cholI12SparseMatrixdS0_EC2ERKS0_Rib@Base 3.4.3
 _ZN16sparse_base_cholI12SparseMatrixdS0_EC2ERKS0_b@Base 3.4.3
 _ZN16sparse_base_cholI12SparseMatrixdS0_EC2ERKS1_@Base 3.4.3
 _ZN16sparse_base_cholI12SparseMatrixdS0_EC2Ev@Base 3.4.3
 _ZN16sparse_base_cholI12SparseMatrixdS0_ED0Ev@Base 3.4.3
 _ZN16sparse_base_cholI12SparseMatrixdS0_ED1Ev@Base 3.4.3
 _ZN16sparse_base_cholI12SparseMatrixdS0_ED2Ev@Base 3.4.3
 _ZN16sparse_base_cholI12SparseMatrixdS0_EaSERKS1_@Base 3.4.3
 _ZN16sparse_base_cholI19SparseComplexMatrixSt7complexIdE12SparseMatrixE20sparse_base_chol_rep10drop_zerosEPK21cholmod_sparse_struct@Base 3.4.3
 _ZN16sparse_base_cholI19SparseComplexMatrixSt7complexIdE12SparseMatrixE20sparse_base_chol_rep4initERKS0_b@Base 3.4.3
 _ZN16sparse_base_cholI19SparseComplexMatrixSt7complexIdE12SparseMatrixE20sparse_base_chol_repC1ERKS0_Rib@Base 3.4.3
 _ZN16sparse_base_cholI19SparseComplexMatrixSt7complexIdE12SparseMatrixE20sparse_base_chol_repC1ERKS0_b@Base 3.4.3
 _ZN16sparse_base_cholI19SparseComplexMatrixSt7complexIdE12SparseMatrixE20sparse_base_chol_repC1Ev@Base 3.4.3
 _ZN16sparse_base_cholI19SparseComplexMatrixSt7complexIdE12SparseMatrixE20sparse_base_chol_repC2ERKS0_Rib@Base 3.4.3
 _ZN16sparse_base_cholI19SparseComplexMatrixSt7complexIdE12SparseMatrixE20sparse_base_chol_repC2ERKS0_b@Base 3.4.3
 _ZN16sparse_base_cholI19SparseComplexMatrixSt7complexIdE12SparseMatrixE20sparse_base_chol_repC2Ev@Base 3.4.3
 _ZN16sparse_base_cholI19SparseComplexMatrixSt7complexIdE12SparseMatrixE20sparse_base_chol_repD1Ev@Base 3.4.3
 _ZN16sparse_base_cholI19SparseComplexMatrixSt7complexIdE12SparseMatrixE20sparse_base_chol_repD2Ev@Base 3.4.3
 _ZN16sparse_base_cholI19SparseComplexMatrixSt7complexIdE12SparseMatrixEC1ERKS0_Rib@Base 3.4.3
 _ZN16sparse_base_cholI19SparseComplexMatrixSt7complexIdE12SparseMatrixEC1ERKS0_b@Base 3.4.3
 _ZN16sparse_base_cholI19SparseComplexMatrixSt7complexIdE12SparseMatrixEC1ERKS4_@Base 3.4.3
 _ZN16sparse_base_cholI19SparseComplexMatrixSt7complexIdE12SparseMatrixEC1Ev@Base 3.4.3
 _ZN16sparse_base_cholI19SparseComplexMatrixSt7complexIdE12SparseMatrixEC2ERKS0_Rib@Base 3.4.3
 _ZN16sparse_base_cholI19SparseComplexMatrixSt7complexIdE12SparseMatrixEC2ERKS0_b@Base 3.4.3
 _ZN16sparse_base_cholI19SparseComplexMatrixSt7complexIdE12SparseMatrixEC2ERKS4_@Base 3.4.3
 _ZN16sparse_base_cholI19SparseComplexMatrixSt7complexIdE12SparseMatrixEC2Ev@Base 3.4.3
 _ZN16sparse_base_cholI19SparseComplexMatrixSt7complexIdE12SparseMatrixED0Ev@Base 3.4.3
 _ZN16sparse_base_cholI19SparseComplexMatrixSt7complexIdE12SparseMatrixED1Ev@Base 3.4.3
 _ZN16sparse_base_cholI19SparseComplexMatrixSt7complexIdE12SparseMatrixED2Ev@Base 3.4.3
 _ZN16sparse_base_cholI19SparseComplexMatrixSt7complexIdE12SparseMatrixEaSERKS4_@Base 3.4.3
 _ZN17ComplexAEPBALANCEC1ERK13ComplexMatrixbb@Base 3.4.3
 _ZN17ComplexAEPBALANCEC2ERK13ComplexMatrixbb@Base 3.4.3
 _ZN17ComplexAEPBALANCED0Ev@Base 3.4.3
 _ZN17ComplexAEPBALANCED1Ev@Base 3.4.3
 _ZN17ComplexAEPBALANCED2Ev@Base 3.4.3
 _ZN17ComplexDiagMatrix4fillERK12ColumnVector@Base 3.4.3
 _ZN17ComplexDiagMatrix4fillERK12ColumnVectori@Base 3.4.3
 _ZN17ComplexDiagMatrix4fillERK16ComplexRowVector@Base 3.4.3
 _ZN17ComplexDiagMatrix4fillERK16ComplexRowVectori@Base 3.4.3
 _ZN17ComplexDiagMatrix4fillERK19ComplexColumnVector@Base 3.4.3
 _ZN17ComplexDiagMatrix4fillERK19ComplexColumnVectori@Base 3.4.3
 _ZN17ComplexDiagMatrix4fillERK9RowVector@Base 3.4.3
 _ZN17ComplexDiagMatrix4fillERK9RowVectori@Base 3.4.3
 _ZN17ComplexDiagMatrix4fillERKSt7complexIdE@Base 3.4.3
 _ZN17ComplexDiagMatrix4fillERKSt7complexIdEii@Base 3.4.3
 _ZN17ComplexDiagMatrix4fillEd@Base 3.4.3
 _ZN17ComplexDiagMatrix4fillEdii@Base 3.4.3
 _ZN17ComplexDiagMatrixC1ERK10DiagMatrix@Base 3.4.3
 _ZN17ComplexDiagMatrixC2ERK10DiagMatrix@Base 3.4.3
 _ZN17ComplexDiagMatrixD1Ev@Base 3.4.3
 _ZN17ComplexDiagMatrixD2Ev@Base 3.4.3
 _ZN17ComplexDiagMatrixpLERK10DiagMatrix@Base 3.4.3
 _ZN17ComplexGEPBALANCE4initERK13ComplexMatrixS2_RKSs@Base 3.4.3
 _ZN17FloatColumnVector4fillEf@Base 3.4.3
 _ZN17FloatColumnVector4fillEfii@Base 3.4.3
 _ZN17FloatColumnVector6insertERKS_i@Base 3.4.3
 _ZN17FloatComplexSCHUR4initERK18FloatComplexMatrixRKSsb@Base 3.4.3
 _ZN17FloatComplexSCHURC1ERK10FloatSCHUR@Base 3.4.3
 _ZN17FloatComplexSCHURC1ERK18FloatComplexMatrixS2_@Base 3.4.3
 _ZN17FloatComplexSCHURC2ERK10FloatSCHUR@Base 3.4.3
 _ZN17FloatComplexSCHURC2ERK18FloatComplexMatrixS2_@Base 3.4.3
 _ZN17SparseComplexCHOLD0Ev@Base 3.4.3
 _ZN17SparseComplexCHOLD1Ev@Base 3.4.3
 _ZN17SparseComplexCHOLD2Ev@Base 3.4.3
 _ZN17base_diff_alg_eqnD0Ev@Base 3.4.3
 _ZN17base_diff_alg_eqnD1Ev@Base 3.4.3
 _ZN17base_diff_alg_eqnD2Ev@Base 3.4.3
 _ZN17octave_base_mutex4lockEv@Base 3.4.3
 _ZN17octave_base_mutex6unlockEv@Base 3.4.3
 _ZN17octave_base_mutexD0Ev@Base 3.4.3
 _ZN17octave_base_mutexD1Ev@Base 3.4.3
 _ZN17octave_base_mutexD2Ev@Base 3.4.3
# not part of API (private class)
 (c++|regex|optional=notPartOfAPI)".*rec_resize_helper.*@Base" 3.4.3
 _ZN18FloatComplexMatrix4fillERKSt7complexIfE@Base 3.4.3
 _ZN18FloatComplexMatrix4fillERKSt7complexIfEiiii@Base 3.4.3
 _ZN18FloatComplexMatrix4fillEf@Base 3.4.3
 _ZN18FloatComplexMatrix4fillEfiiii@Base 3.4.3
 _ZN18FloatComplexMatrix6insertERK11FloatMatrixii@Base 3.4.3
 _ZN18FloatComplexMatrix6insertERK14FloatRowVectorii@Base 3.4.3
 _ZN18FloatComplexMatrix6insertERK15FloatDiagMatrixii@Base 3.4.3
 _ZN18FloatComplexMatrix6insertERK17FloatColumnVectorii@Base 3.4.3
 _ZN18FloatComplexMatrix6insertERK21FloatComplexRowVectorii@Base 3.4.3
 _ZN18FloatComplexMatrix6insertERK22FloatComplexDiagMatrixii@Base 3.4.3
 _ZN18FloatComplexMatrix6insertERK24FloatComplexColumnVectorii@Base 3.4.3
 _ZN18FloatComplexMatrix6insertERKS_ii@Base 3.4.3
 _ZN18FloatComplexMatrixC1ERK10boolMatrix@Base 3.4.3
 _ZN18FloatComplexMatrixC1ERK10charMatrix@Base 3.4.3
 _ZN18FloatComplexMatrixC1ERK11FloatMatrix@Base 3.4.3
 _ZN18FloatComplexMatrixC1ERK11FloatMatrixS2_@Base 3.4.3
 _ZN18FloatComplexMatrixC1ERK14FloatRowVector@Base 3.4.3
 _ZN18FloatComplexMatrixC1ERK15FloatDiagMatrix@Base 3.4.3
 _ZN18FloatComplexMatrixC1ERK17FloatColumnVector@Base 3.4.3
 _ZN18FloatComplexMatrixC1ERK21FloatComplexRowVector@Base 3.4.3
 _ZN18FloatComplexMatrixC1ERK22FloatComplexDiagMatrix@Base 3.4.3
 _ZN18FloatComplexMatrixC1ERK24FloatComplexColumnVector@Base 3.4.3
 _ZN18FloatComplexMatrixC1Ev@Base 3.4.3
# inline method in the header file => always available!
 (c++|regex|optional=inlineMethod)"FloatComplexMatrix::FloatComplexMatrix<.*>\(MArray<.*> const&\)@Base" 3.4.3
 _ZN18FloatComplexMatrixC2ERK10boolMatrix@Base 3.4.3
 _ZN18FloatComplexMatrixC2ERK10charMatrix@Base 3.4.3
 _ZN18FloatComplexMatrixC2ERK11FloatMatrix@Base 3.4.3
 _ZN18FloatComplexMatrixC2ERK11FloatMatrixS2_@Base 3.4.3
 _ZN18FloatComplexMatrixC2ERK14FloatRowVector@Base 3.4.3
 _ZN18FloatComplexMatrixC2ERK15FloatDiagMatrix@Base 3.4.3
 _ZN18FloatComplexMatrixC2ERK17FloatColumnVector@Base 3.4.3
 _ZN18FloatComplexMatrixC2ERK21FloatComplexRowVector@Base 3.4.3
 _ZN18FloatComplexMatrixC2ERK22FloatComplexDiagMatrix@Base 3.4.3
 _ZN18FloatComplexMatrixC2ERK24FloatComplexColumnVector@Base 3.4.3
 _ZN18FloatComplexMatrixC2Ev@Base 3.4.3
 _ZN18FloatComplexMatrixD1Ev@Base 3.4.3
 _ZN18FloatComplexMatrixD2Ev@Base 3.4.3
 _ZN18FloatComplexMatrixmIERK11FloatMatrix@Base 3.4.3
 _ZN18FloatComplexMatrixmIERK15FloatDiagMatrix@Base 3.4.3
 _ZN18FloatComplexMatrixmIERK22FloatComplexDiagMatrix@Base 3.4.3
 _ZN18FloatComplexMatrixpLERK11FloatMatrix@Base 3.4.3
 _ZN18FloatComplexMatrixpLERK15FloatDiagMatrix@Base 3.4.3
 _ZN18FloatComplexMatrixpLERK22FloatComplexDiagMatrix@Base 3.4.3
# not part of API (private class)
 (c++|regex|optional=notPartOfAPI)".*rec_permute_helper.*@Base" 3.4.3
 _ZN19ComplexColumnVector4fillERKSt7complexIdE@Base 3.4.3
 _ZN19ComplexColumnVector4fillERKSt7complexIdEii@Base 3.4.3
 _ZN19ComplexColumnVector4fillEd@Base 3.4.3
 _ZN19ComplexColumnVector4fillEdii@Base 3.4.3
 _ZN19ComplexColumnVector6insertERK12ColumnVectori@Base 3.4.3
 _ZN19ComplexColumnVector6insertERKS_i@Base 3.4.3
 _ZN19ComplexColumnVectorC1ERK12ColumnVector@Base 3.4.3
 _ZN19ComplexColumnVectorC2ERK12ColumnVector@Base 3.4.3
 _ZN19ComplexColumnVectormIERK12ColumnVector@Base 3.4.3
 _ZN19ComplexColumnVectorpLERK12ColumnVector@Base 3.4.3
 _ZN19FloatComplexNDArray13compute_indexER5ArrayIiERK10dim_vector@Base 3.4.3
 _ZN19FloatComplexNDArray15increment_indexER5ArrayIiERK10dim_vectori@Base 3.4.3
 _ZN19FloatComplexNDArray6concatERK12FloatNDArrayRK5ArrayIiE@Base 3.4.3
 _ZN19FloatComplexNDArray6concatERKS_RK5ArrayIiE@Base 3.4.3
 _ZN19FloatComplexNDArray6insertERK7NDArrayii@Base 3.4.3
 _ZN19FloatComplexNDArray6insertERKS_RK5ArrayIiE@Base 3.4.3
 _ZN19FloatComplexNDArray6insertERKS_ii@Base 3.4.3
 _ZN19FloatComplexNDArrayC1ERK11charNDArray@Base 3.4.3
# inline method in the header file => always available!
 (c++|optional=inlineMethod)"FloatComplexNDArray::FloatComplexNDArray()@Base" 3.4.3
 _ZN19FloatComplexNDArrayC2ERK11charNDArray@Base 3.4.3
 _ZN19SparseComplexMatrix6concatERK12SparseMatrixRK5ArrayIiE@Base 3.4.3
 _ZN19SparseComplexMatrix6concatERKS_RK5ArrayIiE@Base 3.4.3
 _ZN19SparseComplexMatrix6insertERK12SparseMatrixRK5ArrayIiE@Base 3.4.3
 _ZN19SparseComplexMatrix6insertERK12SparseMatrixii@Base 3.4.3
 _ZN19SparseComplexMatrix6insertERKS_RK5ArrayIiE@Base 3.4.3
 _ZN19SparseComplexMatrix6insertERKS_ii@Base 3.4.3
 _ZN19SparseComplexMatrixC1ERK12SparseMatrix@Base 3.4.3
 _ZN19SparseComplexMatrixC1ERK16SparseBoolMatrix@Base 3.4.3
 _ZN19SparseComplexMatrixC1ERK17ComplexDiagMatrix@Base 3.4.3
 _ZN19SparseComplexMatrixC1Eii@Base 3.4.3
 _ZN19SparseComplexMatrixC1Ev@Base 3.4.3
 _ZN19SparseComplexMatrixC2ERK12SparseMatrix@Base 3.4.3
 _ZN19SparseComplexMatrixC2ERK16SparseBoolMatrix@Base 3.4.3
 _ZN19SparseComplexMatrixC2ERK17ComplexDiagMatrix@Base 3.4.3
 _ZN19SparseComplexMatrixC2Eii@Base 3.4.3
 _ZN19SparseComplexMatrixC2Ev@Base 3.4.3
 _ZN19SparseComplexMatrixD0Ev@Base 3.4.3
 _ZN19SparseComplexMatrixD1Ev@Base 3.4.3
 _ZN19SparseComplexMatrixD2Ev@Base 3.4.3
 _ZN19SparseComplexMatrixaSERKS_@Base 3.4.3
 _ZN19octave_chunk_buffer10chunk_sizeE@Base 3.4.3
 _ZN19octave_chunk_buffer3topE@Base 3.4.3
 _ZN19octave_chunk_buffer4leftE@Base 3.4.3
 _ZN19octave_chunk_buffer5chunkE@Base 3.4.3
 _ZN19octave_chunk_bufferD0Ev@Base 3.4.3
 _ZN19octave_chunk_bufferD1Ev@Base 3.4.3
 _ZN19octave_chunk_bufferD2Ev@Base 3.4.3
 _ZN19octave_dlopen_shlib6searchERKSsPFSsS1_E@Base 3.4.3
 _ZN19octave_dlopen_shlibC1ERKSs@Base 3.4.3
 _ZN19octave_dlopen_shlibC2ERKSs@Base 3.4.3
 _ZN19octave_dlopen_shlibD0Ev@Base 3.4.3
 _ZN19octave_dlopen_shlibD1Ev@Base 3.4.3
 _ZN19octave_dlopen_shlibD2Ev@Base 3.4.3
 _ZN19octave_fftw_planner11instance_okEv@Base 3.4.3
 _ZN19octave_fftw_planner14do_create_planEi10dim_vectoriiiPKdPSt7complexIdE@Base 3.4.3
 _ZN19octave_fftw_planner14do_create_planEii10dim_vectoriiiPKSt7complexIdEPS2_@Base 3.4.3
 _ZN19octave_fftw_planner8instanceE@Base 3.4.3
 _ZN19octave_fftw_planner9do_methodENS_10FftwMethodE@Base 3.4.3
 _ZN19octave_fftw_planner9do_methodEv@Base 3.4.3
 _ZN19octave_fftw_plannerC1Ev@Base 3.4.3
 _ZN19octave_fftw_plannerC2Ev@Base 3.4.3
 _ZN19octave_local_bufferI5ArrayIiEED1Ev@Base 3.4.3
 _ZN19octave_local_bufferI5ArrayIiEED2Ev@Base 3.4.3
 _ZN19octave_local_bufferIP22octave_idx_vector_sortED0Ev@Base 3.4.3
 _ZN19octave_local_bufferIP22octave_idx_vector_sortED1Ev@Base 3.4.3
 _ZN19octave_local_bufferIP22octave_idx_vector_sortED2Ev@Base 3.4.3
 _ZN19octave_local_bufferIP23octave_sparse_sort_idxlED0Ev@Base 3.4.3
 _ZN19octave_local_bufferIP23octave_sparse_sort_idxlED1Ev@Base 3.4.3
 _ZN19octave_local_bufferIP23octave_sparse_sort_idxlED2Ev@Base 3.4.3
 _ZN19octave_local_bufferIPvED0Ev@Base 3.4.3
 _ZN19octave_local_bufferIPvED1Ev@Base 3.4.3
 _ZN19octave_local_bufferIPvED2Ev@Base 3.4.3
 _ZN19octave_local_bufferISsED1Ev@Base 3.4.3
 _ZN19octave_local_bufferISsED2Ev@Base 3.4.3
 _ZN19octave_local_bufferISt7complexIdEED0Ev@Base 3.4.3
 _ZN19octave_local_bufferISt7complexIdEED1Ev@Base 3.4.3
 _ZN19octave_local_bufferISt7complexIdEED2Ev@Base 3.4.3
 _ZN19octave_local_bufferISt7complexIfEED0Ev@Base 3.4.3
 _ZN19octave_local_bufferISt7complexIfEED1Ev@Base 3.4.3
 _ZN19octave_local_bufferISt7complexIfEED2Ev@Base 3.4.3
 _ZN19octave_local_bufferIaED1Ev@Base 3.4.3
 _ZN19octave_local_bufferIaED2Ev@Base 3.4.3
 _ZN19octave_local_bufferIbED0Ev@Base 3.4.3
 _ZN19octave_local_bufferIbED1Ev@Base 3.4.3
 _ZN19octave_local_bufferIbED2Ev@Base 3.4.3
 _ZN19octave_local_bufferIcED0Ev@Base 3.4.3
 _ZN19octave_local_bufferIcED1Ev@Base 3.4.3
 _ZN19octave_local_bufferIcED2Ev@Base 3.4.3
 _ZN19octave_local_bufferIdED0Ev@Base 3.4.3
 _ZN19octave_local_bufferIdED1Ev@Base 3.4.3
 _ZN19octave_local_bufferIdED2Ev@Base 3.4.3
 _ZN19octave_local_bufferIfED0Ev@Base 3.4.3
 _ZN19octave_local_bufferIfED1Ev@Base 3.4.3
 _ZN19octave_local_bufferIfED2Ev@Base 3.4.3
 _ZN19octave_local_bufferIhED1Ev@Base 3.4.3
 _ZN19octave_local_bufferIhED2Ev@Base 3.4.3
 _ZN19octave_local_bufferIiED0Ev@Base 3.4.3
 _ZN19octave_local_bufferIiED1Ev@Base 3.4.3
 _ZN19octave_local_bufferIiED2Ev@Base 3.4.3
 _ZN19octave_local_bufferIjED0Ev@Base 3.4.3
 _ZN19octave_local_bufferIjED1Ev@Base 3.4.3
 _ZN19octave_local_bufferIjED2Ev@Base 3.4.3
 _ZN19octave_local_bufferIlED0Ev@Base 3.4.3
 _ZN19octave_local_bufferIlED1Ev@Base 3.4.3
 _ZN19octave_local_bufferIlED2Ev@Base 3.4.3
 _ZN19octave_local_bufferIsED0Ev@Base 3.4.3
 _ZN19octave_local_bufferIsED1Ev@Base 3.4.3
 _ZN19octave_local_bufferIsED2Ev@Base 3.4.3
 _ZN19octave_local_bufferItED0Ev@Base 3.4.3
 _ZN19octave_local_bufferItED1Ev@Base 3.4.3
 _ZN19octave_local_bufferItED2Ev@Base 3.4.3
 _ZN20octave_pthread_mutex4lockEv@Base 3.4.3
 _ZN20octave_pthread_mutex6unlockEv@Base 3.4.3
 _ZN20octave_pthread_mutexD0Ev@Base 3.4.3
 _ZN20octave_pthread_mutexD1Ev@Base 3.4.3
 _ZN20octave_pthread_mutexD2Ev@Base 3.4.3
 _ZN20octave_sparse_params10do_get_keyERKSs@Base 3.4.3
 _ZN20octave_sparse_params10do_set_keyERKSsRKd@Base 3.4.3
 _ZN20octave_sparse_params10print_infoERSoRKSs@Base 3.4.3
 _ZN20octave_sparse_params11do_defaultsEv@Base 3.4.3
 _ZN20octave_sparse_params11do_set_valsERK7NDArray@Base 3.4.3
 _ZN20octave_sparse_params11get_banddenEv@Base 3.4.3
 _ZN20octave_sparse_params11instance_okEv@Base 3.4.3
 _ZN20octave_sparse_params14do_get_banddenEv@Base 3.4.3
 _ZN20octave_sparse_params5tightEv@Base 3.4.3
 _ZN20octave_sparse_params7get_keyERKSs@Base 3.4.3
 _ZN20octave_sparse_params7set_keyERKSsRKd@Base 3.4.3
 _ZN20octave_sparse_params8defaultsEv@Base 3.4.3
 _ZN20octave_sparse_params8do_tightEv@Base 3.4.3
 _ZN20octave_sparse_params8get_keysEv@Base 3.4.3
 _ZN20octave_sparse_params8get_valsEv@Base 3.4.3
 _ZN20octave_sparse_params8instanceE@Base 3.4.3
 _ZN20octave_sparse_params8set_valsERK7NDArray@Base 3.4.3
 _ZN20octave_sparse_params9init_keysEv@Base 3.4.3
 _ZN21FloatComplexRowVector4fillERKSt7complexIfE@Base 3.4.3
 _ZN21FloatComplexRowVector4fillERKSt7complexIfEii@Base 3.4.3
 _ZN21FloatComplexRowVector4fillEf@Base 3.4.3
 _ZN21FloatComplexRowVector4fillEfii@Base 3.4.3
 _ZN21FloatComplexRowVector6insertERK14FloatRowVectori@Base 3.4.3
 _ZN21FloatComplexRowVector6insertERKS_i@Base 3.4.3
 _ZN21FloatComplexRowVectorD1Ev@Base 3.4.3
 _ZN21FloatComplexRowVectorD2Ev@Base 3.4.3
 _ZN21FloatComplexRowVectormIERK14FloatRowVector@Base 3.4.3
 _ZN21FloatComplexRowVectorpLERK14FloatRowVector@Base 3.4.3
 _ZN21kpse_format_info_typeD1Ev@Base 3.4.3
 _ZN21kpse_format_info_typeD2Ev@Base 3.4.3
 _ZN22FloatComplexAEPBALANCEC1ERK18FloatComplexMatrixbb@Base 3.4.3
 _ZN22FloatComplexAEPBALANCEC2ERK18FloatComplexMatrixbb@Base 3.4.3
 _ZN22FloatComplexAEPBALANCED0Ev@Base 3.4.3
 _ZN22FloatComplexAEPBALANCED1Ev@Base 3.4.3
 _ZN22FloatComplexAEPBALANCED2Ev@Base 3.4.3
 _ZN22FloatComplexDiagMatrix4fillERK14FloatRowVector@Base 3.4.3
 _ZN22FloatComplexDiagMatrix4fillERK14FloatRowVectori@Base 3.4.3
 _ZN22FloatComplexDiagMatrix4fillERK17FloatColumnVector@Base 3.4.3
 _ZN22FloatComplexDiagMatrix4fillERK17FloatColumnVectori@Base 3.4.3
 _ZN22FloatComplexDiagMatrix4fillERK21FloatComplexRowVector@Base 3.4.3
 _ZN22FloatComplexDiagMatrix4fillERK21FloatComplexRowVectori@Base 3.4.3
 _ZN22FloatComplexDiagMatrix4fillERK24FloatComplexColumnVector@Base 3.4.3
 _ZN22FloatComplexDiagMatrix4fillERK24FloatComplexColumnVectori@Base 3.4.3
 _ZN22FloatComplexDiagMatrix4fillERKSt7complexIfE@Base 3.4.3
 _ZN22FloatComplexDiagMatrix4fillERKSt7complexIfEii@Base 3.4.3
 _ZN22FloatComplexDiagMatrix4fillEf@Base 3.4.3
 _ZN22FloatComplexDiagMatrix4fillEfii@Base 3.4.3
 _ZN22FloatComplexDiagMatrixC1ERK15FloatDiagMatrix@Base 3.4.3
 _ZN22FloatComplexDiagMatrixC2ERK15FloatDiagMatrix@Base 3.4.3
 _ZN22FloatComplexDiagMatrixD1Ev@Base 3.4.3
 _ZN22FloatComplexDiagMatrixD2Ev@Base 3.4.3
 _ZN22FloatComplexDiagMatrixpLERK15FloatDiagMatrix@Base 3.4.3
 _ZN22FloatComplexGEPBALANCE4initERK18FloatComplexMatrixS2_RKSs@Base 3.4.3
 _ZN22default_command_editor10do_newlineEv@Base 3.4.3
 _ZN22default_command_editor11do_readlineERKSsRb@Base 3.4.3
 _ZN22default_command_editor14do_accept_lineEv@Base 3.4.3
 _ZN22default_command_editor14do_insert_textERKSs@Base 3.4.3
 _ZN22default_command_editor19do_get_input_streamEv@Base 3.4.3
 _ZN22default_command_editor19do_set_input_streamEP8_IO_FILE@Base 3.4.3
 _ZN22default_command_editor20do_get_output_streamEv@Base 3.4.3
 _ZN22default_command_editor20do_set_output_streamEP8_IO_FILE@Base 3.4.3
 _ZN22default_command_editor32do_generate_filename_completionsERKSs@Base 3.4.3
 _ZN22default_command_editorD0Ev@Base 3.4.3
 _ZN22default_command_editorD1Ev@Base 3.4.3
 _ZN22default_command_editorD2Ev@Base 3.4.3
 _ZN24FloatComplexColumnVector4fillERKSt7complexIfE@Base 3.4.3
 _ZN24FloatComplexColumnVector4fillERKSt7complexIfEii@Base 3.4.3
 _ZN24FloatComplexColumnVector4fillEf@Base 3.4.3
 _ZN24FloatComplexColumnVector4fillEfii@Base 3.4.3
 _ZN24FloatComplexColumnVector6insertERK17FloatColumnVectori@Base 3.4.3
 _ZN24FloatComplexColumnVector6insertERKS_i@Base 3.4.3
 _ZN24FloatComplexColumnVectorC1ERK17FloatColumnVector@Base 3.4.3
 _ZN24FloatComplexColumnVectorC2ERK17FloatColumnVector@Base 3.4.3
 _ZN24FloatComplexColumnVectormIERK17FloatColumnVector@Base 3.4.3
 _ZN24FloatComplexColumnVectorpLERK17FloatColumnVector@Base 3.4.3
 _ZN25octave_float_fftw_planner11instance_okEv@Base 3.4.3
 _ZN25octave_float_fftw_planner14do_create_planEi10dim_vectoriiiPKfPSt7complexIfE@Base 3.4.3
 _ZN25octave_float_fftw_planner14do_create_planEii10dim_vectoriiiPKSt7complexIfEPS2_@Base 3.4.3
 _ZN25octave_float_fftw_planner8instanceE@Base 3.4.3
 _ZN25octave_float_fftw_planner9do_methodENS_10FftwMethodE@Base 3.4.3
 _ZN25octave_float_fftw_planner9do_methodEv@Base 3.4.3
 _ZN25octave_float_fftw_plannerC1Ev@Base 3.4.3
 _ZN25octave_float_fftw_plannerC2Ev@Base 3.4.3
 _ZN2LU10update_pivERK12ColumnVectorS2_@Base 3.4.3
 _ZN2LU10update_pivERK6MatrixS2_@Base 3.4.3
 _ZN2LU6updateERK12ColumnVectorS2_@Base 3.4.3
 _ZN2LU6updateERK6MatrixS2_@Base 3.4.3
 _ZN2LUC1ERK6Matrix@Base 3.4.3
 _ZN2LUC2ERK6Matrix@Base 3.4.3
 _ZN2LUD0Ev@Base 3.4.3
 _ZN2LUD1Ev@Base 3.4.3
 _ZN2LUD2Ev@Base 3.4.3
 _ZN2QR10delete_colERK5ArrayIiE@Base 3.4.3
 _ZN2QR10delete_colEi@Base 3.4.3
 _ZN2QR10delete_rowEi@Base 3.4.3
 _ZN2QR10insert_colERK12ColumnVectori@Base 3.4.3
 _ZN2QR10insert_colERK6MatrixRK5ArrayIiE@Base 3.4.3
 _ZN2QR10insert_rowERK9RowVectori@Base 3.4.3
 _ZN2QR10shift_colsEii@Base 3.4.3
 _ZN2QR3rawE@Base 3.4.3
 _ZN2QR3stdE@Base 3.4.3
 _ZN2QR4formEiR6MatrixPd9qr_type_t@Base 3.4.3
 _ZN2QR4initERK6Matrix9qr_type_t@Base 3.4.3
 _ZN2QR6updateERK12ColumnVectorS2_@Base 3.4.3
 _ZN2QR6updateERK6MatrixS2_@Base 3.4.3
 _ZN2QR7economyE@Base 3.4.3
 _ZN2QRC1ERK6Matrix9qr_type_t@Base 3.4.3
 _ZN2QRC2ERK6Matrix9qr_type_t@Base 3.4.3
 _ZN2QRD0Ev@Base 3.4.3
 _ZN2QRD1Ev@Base 3.4.3
 _ZN2QRD2Ev@Base 3.4.3
 _ZN3DAED0Ev@Base 3.4.3
 _ZN3DAED1Ev@Base 3.4.3
 _ZN3DAED2Ev@Base 3.4.3
 _ZN3EIG14hermitian_initERK13ComplexMatrixS2_b@Base 3.4.3
 _ZN3EIG14hermitian_initERK13ComplexMatrixb@Base 3.4.3
 _ZN3EIG14symmetric_initERK6MatrixS2_b@Base 3.4.3
 _ZN3EIG14symmetric_initERK6Matrixb@Base 3.4.3
 _ZN3EIG4initERK13ComplexMatrixS2_b@Base 3.4.3
 _ZN3EIG4initERK13ComplexMatrixb@Base 3.4.3
 _ZN3EIG4initERK6MatrixS2_b@Base 3.4.3
 _ZN3EIG4initERK6Matrixb@Base 3.4.3
 _ZN3ODE9integrateERK12ColumnVector@Base 3.4.3
 _ZN3ODE9integrateERK12ColumnVectorS2_@Base 3.4.3
 _ZN3ODE9integrateERK12ColumnVectordS2_@Base 3.4.3
 _ZN3ODE9integrateERK12ColumnVectordS2_S2_@Base 3.4.3
 _ZN3ODE9integrateERK12ColumnVectordd@Base 3.4.3
 _ZN3ODE9integrateEd@Base 3.4.3
 _ZN3ODED0Ev@Base 3.4.3
 _ZN3ODED1Ev@Base 3.4.3
 _ZN3ODED2Ev@Base 3.4.3
 _ZN3QRP4initERK6Matrix9qr_type_t@Base 3.4.3
 _ZN3QRPC1ERK6Matrix9qr_type_t@Base 3.4.3
 _ZN3QRPC2ERK6Matrix9qr_type_t@Base 3.4.3
 _ZN3QRPD0Ev@Base 3.4.3
 _ZN3QRPD1Ev@Base 3.4.3
 _ZN3QRPD2Ev@Base 3.4.3
 _ZN3SVD4initERK6MatrixNS_4typeENS_6driverE@Base 3.4.3
 _ZN3SVDD1Ev@Base 3.4.3
 _ZN3SVDD2Ev@Base 3.4.3
 _ZN4CHOL10delete_symEi@Base 3.4.3
 _ZN4CHOL10insert_symERK12ColumnVectori@Base 3.4.3
 _ZN4CHOL3setERK6Matrix@Base 3.4.3
 _ZN4CHOL4initERK6Matrixb@Base 3.4.3
 _ZN4CHOL6updateERK12ColumnVector@Base 3.4.3
 _ZN4CHOL8downdateERK12ColumnVector@Base 3.4.3
 _ZN4CHOL9shift_symEii@Base 3.4.3
 _ZN4HESS4initERK6Matrix@Base 3.4.3
 _ZN4ODES10initializeERK12ColumnVectord@Base 3.4.3
 _ZN4ODES10initializeERK12ColumnVectordS2_@Base 3.4.3
 _ZN4Quad15float_integrateERi@Base 3.4.3
 _ZN4Quad15float_integrateERiS0_@Base 3.4.3
 _ZN4Quad15float_integrateERiS0_Rf@Base 3.4.3
 _ZN4Quad15float_integrateEv@Base 3.4.3
 _ZN4Quad9integrateERi@Base 3.4.3
 _ZN4Quad9integrateERiS0_@Base 3.4.3
 _ZN4Quad9integrateERiS0_Rd@Base 3.4.3
 _ZN4Quad9integrateEv@Base 3.4.3
 _ZN4QuadD0Ev@Base 3.4.3
 _ZN4QuadD1Ev@Base 3.4.3
 _ZN4QuadD2Ev@Base 3.4.3
 _ZN5ArrayI10idx_vectorE11fortran_vecEv@Base 3.4.3
 _ZN5ArrayI10idx_vectorE11make_uniqueEv@Base 3.4.3
 _ZN5ArrayI10idx_vectorE15delete_elementsERKS0_@Base 3.4.3
 _ZN5ArrayI10idx_vectorE15delete_elementsERKS1_@Base 3.4.3
 _ZN5ArrayI10idx_vectorE15delete_elementsEiRKS0_@Base 3.4.3
 _ZN5ArrayI10idx_vectorE15maybe_economizeEv@Base 3.4.3
 _ZN5ArrayI10idx_vectorE17resize_fill_valueEv@Base 3.4.3
 _ZN5ArrayI10idx_vectorE19instantiation_guardEv@Base 3.4.3
 _ZN5ArrayI10idx_vectorE19optimize_dimensionsERK10dim_vector@Base 3.4.3
 _ZN5ArrayI10idx_vectorE24chop_trailing_singletonsEv@Base 3.4.3
 _ZN5ArrayI10idx_vectorE3catEiiPKS1_@Base 3.4.3
 _ZN5ArrayI10idx_vectorE4elemERKS_IiE@Base 3.4.3
 _ZN5ArrayI10idx_vectorE4elemEi@Base 3.4.3
 _ZN5ArrayI10idx_vectorE4elemEii@Base 3.4.3
 _ZN5ArrayI10idx_vectorE4elemEiii@Base 3.4.3
 _ZN5ArrayI10idx_vectorE4fillERKS0_@Base 3.4.3
 _ZN5ArrayI10idx_vectorE5clearERK10dim_vector@Base 3.4.3
 _ZN5ArrayI10idx_vectorE5clearEii@Base 3.4.3
 _ZN5ArrayI10idx_vectorE5clearEv@Base 3.4.3
 _ZN5ArrayI10idx_vectorE5xelemERKS_IiE@Base 3.4.3
 _ZN5ArrayI10idx_vectorE5xelemEi@Base 3.4.3
 _ZN5ArrayI10idx_vectorE5xelemEii@Base 3.4.3
 _ZN5ArrayI10idx_vectorE5xelemEiii@Base 3.4.3
 _ZN5ArrayI10idx_vectorE6assignERKS0_RKS1_S3_@Base 3.4.3
 _ZN5ArrayI10idx_vectorE6assignERKS0_S3_RKS1_S3_@Base 3.4.3
 _ZN5ArrayI10idx_vectorE6assignERKS1_S3_RKS0_@Base 3.4.3
 _ZN5ArrayI10idx_vectorE6insertERKS1_RKS_IiE@Base 3.4.3
 _ZN5ArrayI10idx_vectorE6insertERKS1_ii@Base 3.4.3
 _ZN5ArrayI10idx_vectorE6resizeERK10dim_vectorRKS0_@Base 3.4.3
 _ZN5ArrayI10idx_vectorE6resizeEi@Base 3.4.3
 _ZN5ArrayI10idx_vectorE6resizeEiiRKS0_@Base 3.4.3
 _ZN5ArrayI10idx_vectorE7resize1EiRKS0_@Base 3.4.3
 _ZN5ArrayI10idx_vectorE7resize2EiiRKS0_@Base 3.4.3
 _ZN5ArrayI10idx_vectorE8ArrayRepC1EPS0_i@Base 3.4.3
 _ZN5ArrayI10idx_vectorE8ArrayRepC1ERKS2_@Base 3.4.3
 _ZN5ArrayI10idx_vectorE8ArrayRepC1Ei@Base 3.4.3
 _ZN5ArrayI10idx_vectorE8ArrayRepC1EiRKS0_@Base 3.4.3
 _ZN5ArrayI10idx_vectorE8ArrayRepC1Ev@Base 3.4.3
 _ZN5ArrayI10idx_vectorE8ArrayRepC2EPS0_i@Base 3.4.3
 _ZN5ArrayI10idx_vectorE8ArrayRepC2ERKS2_@Base 3.4.3
 _ZN5ArrayI10idx_vectorE8ArrayRepC2Ei@Base 3.4.3
 _ZN5ArrayI10idx_vectorE8ArrayRepC2EiRKS0_@Base 3.4.3
 _ZN5ArrayI10idx_vectorE8ArrayRepC2Ev@Base 3.4.3
# inline method in the header file => always available!
 (c++|regex|optional=inlineMethod)".*::\~ArrayRep\(\)@Base" 3.4.3
 _ZN5ArrayI10idx_vectorE9checkelemERKS_IiE@Base 3.4.3
 _ZN5ArrayI10idx_vectorE9checkelemEi@Base 3.4.3
 _ZN5ArrayI10idx_vectorE9checkelemEii@Base 3.4.3
 _ZN5ArrayI10idx_vectorE9checkelemEiii@Base 3.4.3
 _ZN5ArrayI10idx_vectorE9is_sharedEv@Base 3.4.3
 _ZN5ArrayI10idx_vectorEC1ERK10dim_vector@Base 3.4.3
 _ZN5ArrayI10idx_vectorEC1ERK10dim_vectorRKS0_@Base 3.4.3
 _ZN5ArrayI10idx_vectorEC1ERKS1_@Base 3.4.3
 _ZN5ArrayI10idx_vectorEC1ERKS1_RK10dim_vector@Base 3.4.3
 _ZN5ArrayI10idx_vectorEC1ERKS1_RK10dim_vectorii@Base 3.4.3
 _ZN5ArrayI10idx_vectorEC1Ei@Base 3.4.3
 _ZN5ArrayI10idx_vectorEC1EiRKS0_@Base 3.4.3
 _ZN5ArrayI10idx_vectorEC1Ev@Base 3.4.3
 _ZN5ArrayI10idx_vectorEC2ERK10dim_vector@Base 3.4.3
 _ZN5ArrayI10idx_vectorEC2ERK10dim_vectorRKS0_@Base 3.4.3
 _ZN5ArrayI10idx_vectorEC2ERKS1_@Base 3.4.3
 _ZN5ArrayI10idx_vectorEC2ERKS1_RK10dim_vector@Base 3.4.3
 _ZN5ArrayI10idx_vectorEC2ERKS1_RK10dim_vectorii@Base 3.4.3
 _ZN5ArrayI10idx_vectorEC2Ei@Base 3.4.3
 _ZN5ArrayI10idx_vectorEC2EiRKS0_@Base 3.4.3
 _ZN5ArrayI10idx_vectorEC2Ev@Base 3.4.3
 _ZN5ArrayI10idx_vectorED1Ev@Base 3.4.3
 _ZN5ArrayI10idx_vectorED2Ev@Base 3.4.3
 _ZN5ArrayI10idx_vectorEaSERKS1_@Base 3.4.3
 _ZN5ArrayI10idx_vectorEclERKS_IiE@Base 3.4.3
 _ZN5ArrayI10idx_vectorEclEi@Base 3.4.3
 _ZN5ArrayI10idx_vectorEclEii@Base 3.4.3
 _ZN5ArrayI10idx_vectorEclEiii@Base 3.4.3
 _ZN5ArrayI10octave_intIaEE11fortran_vecEv@Base 3.4.3
 _ZN5ArrayI10octave_intIaEE11make_uniqueEv@Base 3.4.3
 _ZN5ArrayI10octave_intIaEE15delete_elementsERK10idx_vector@Base 3.4.3
 _ZN5ArrayI10octave_intIaEE15delete_elementsERKS_I10idx_vectorE@Base 3.4.3
 _ZN5ArrayI10octave_intIaEE15delete_elementsEiRK10idx_vector@Base 3.4.3
 _ZN5ArrayI10octave_intIaEE15maybe_economizeEv@Base 3.4.3
 _ZN5ArrayI10octave_intIaEE17resize_fill_valueEv@Base 3.4.3
 _ZN5ArrayI10octave_intIaEE19instantiation_guardEv@Base 3.4.3
 _ZN5ArrayI10octave_intIaEE19optimize_dimensionsERK10dim_vector@Base 3.4.3
 _ZN5ArrayI10octave_intIaEE24chop_trailing_singletonsEv@Base 3.4.3
 _ZN5ArrayI10octave_intIaEE3catEiiPKS2_@Base 3.4.3
 _ZN5ArrayI10octave_intIaEE4elemERKS_IiE@Base 3.4.3
 _ZN5ArrayI10octave_intIaEE4elemEi@Base 3.4.3
 _ZN5ArrayI10octave_intIaEE4elemEii@Base 3.4.3
 _ZN5ArrayI10octave_intIaEE4elemEiii@Base 3.4.3
 _ZN5ArrayI10octave_intIaEE4fillERKS1_@Base 3.4.3
 _ZN5ArrayI10octave_intIaEE5clearERK10dim_vector@Base 3.4.3
 _ZN5ArrayI10octave_intIaEE5clearEii@Base 3.4.3
 _ZN5ArrayI10octave_intIaEE5clearEv@Base 3.4.3
 _ZN5ArrayI10octave_intIaEE5xelemERKS_IiE@Base 3.4.3
 _ZN5ArrayI10octave_intIaEE5xelemEi@Base 3.4.3
 _ZN5ArrayI10octave_intIaEE5xelemEii@Base 3.4.3
 _ZN5ArrayI10octave_intIaEE5xelemEiii@Base 3.4.3
 _ZN5ArrayI10octave_intIaEE6assignERK10idx_vectorRKS2_RKS1_@Base 3.4.3
 _ZN5ArrayI10octave_intIaEE6assignERK10idx_vectorS5_RKS2_RKS1_@Base 3.4.3
 _ZN5ArrayI10octave_intIaEE6assignERKS_I10idx_vectorERKS2_RKS1_@Base 3.4.3
 _ZN5ArrayI10octave_intIaEE6insertERKS2_RKS_IiE@Base 3.4.3
 _ZN5ArrayI10octave_intIaEE6insertERKS2_ii@Base 3.4.3
 _ZN5ArrayI10octave_intIaEE6resizeERK10dim_vectorRKS1_@Base 3.4.3
 _ZN5ArrayI10octave_intIaEE6resizeEi@Base 3.4.3
 _ZN5ArrayI10octave_intIaEE6resizeEiiRKS1_@Base 3.4.3
 _ZN5ArrayI10octave_intIaEE7resize1EiRKS1_@Base 3.4.3
 _ZN5ArrayI10octave_intIaEE7resize2EiiRKS1_@Base 3.4.3
 _ZN5ArrayI10octave_intIaEE8ArrayRepC1EPS1_i@Base 3.4.3
 _ZN5ArrayI10octave_intIaEE8ArrayRepC1ERKS3_@Base 3.4.3
 _ZN5ArrayI10octave_intIaEE8ArrayRepC1Ei@Base 3.4.3
 _ZN5ArrayI10octave_intIaEE8ArrayRepC1EiRKS1_@Base 3.4.3
 _ZN5ArrayI10octave_intIaEE8ArrayRepC1Ev@Base 3.4.3
 _ZN5ArrayI10octave_intIaEE8ArrayRepC2EPS1_i@Base 3.4.3
 _ZN5ArrayI10octave_intIaEE8ArrayRepC2ERKS3_@Base 3.4.3
 _ZN5ArrayI10octave_intIaEE8ArrayRepC2Ei@Base 3.4.3
 _ZN5ArrayI10octave_intIaEE8ArrayRepC2EiRKS1_@Base 3.4.3
 _ZN5ArrayI10octave_intIaEE8ArrayRepC2Ev@Base 3.4.3
 _ZN5ArrayI10octave_intIaEE9checkelemERKS_IiE@Base 3.4.3
 _ZN5ArrayI10octave_intIaEE9checkelemEi@Base 3.4.3
 _ZN5ArrayI10octave_intIaEE9checkelemEii@Base 3.4.3
 _ZN5ArrayI10octave_intIaEE9checkelemEiii@Base 3.4.3
 _ZN5ArrayI10octave_intIaEE9is_sharedEv@Base 3.4.3
 _ZN5ArrayI10octave_intIaEEC1ERK10dim_vector@Base 3.4.3
 _ZN5ArrayI10octave_intIaEEC1ERK10dim_vectorRKS1_@Base 3.4.3
 _ZN5ArrayI10octave_intIaEEC1ERKS2_@Base 3.4.3
 _ZN5ArrayI10octave_intIaEEC1ERKS2_RK10dim_vector@Base 3.4.3
 _ZN5ArrayI10octave_intIaEEC1ERKS2_RK10dim_vectorii@Base 3.4.3
 _ZN5ArrayI10octave_intIaEEC1Ei@Base 3.4.3
 _ZN5ArrayI10octave_intIaEEC1EiRKS1_@Base 3.4.3
 _ZN5ArrayI10octave_intIaEEC1Ev@Base 3.4.3
 _ZN5ArrayI10octave_intIaEEC2ERK10dim_vector@Base 3.4.3
 _ZN5ArrayI10octave_intIaEEC2ERK10dim_vectorRKS1_@Base 3.4.3
 _ZN5ArrayI10octave_intIaEEC2ERKS2_@Base 3.4.3
 _ZN5ArrayI10octave_intIaEEC2ERKS2_RK10dim_vector@Base 3.4.3
 _ZN5ArrayI10octave_intIaEEC2ERKS2_RK10dim_vectorii@Base 3.4.3
 _ZN5ArrayI10octave_intIaEEC2Ei@Base 3.4.3
 _ZN5ArrayI10octave_intIaEEC2EiRKS1_@Base 3.4.3
 _ZN5ArrayI10octave_intIaEEC2Ev@Base 3.4.3
 _ZN5ArrayI10octave_intIaEED1Ev@Base 3.4.3
 _ZN5ArrayI10octave_intIaEED2Ev@Base 3.4.3
 _ZN5ArrayI10octave_intIaEEaSERKS2_@Base 3.4.3
 _ZN5ArrayI10octave_intIaEEclERKS_IiE@Base 3.4.3
 _ZN5ArrayI10octave_intIaEEclEi@Base 3.4.3
 _ZN5ArrayI10octave_intIaEEclEii@Base 3.4.3
 _ZN5ArrayI10octave_intIaEEclEiii@Base 3.4.3
 _ZN5ArrayI10octave_intIhEE11fortran_vecEv@Base 3.4.3
 _ZN5ArrayI10octave_intIhEE11make_uniqueEv@Base 3.4.3
 _ZN5ArrayI10octave_intIhEE15delete_elementsERK10idx_vector@Base 3.4.3
 _ZN5ArrayI10octave_intIhEE15delete_elementsERKS_I10idx_vectorE@Base 3.4.3
 _ZN5ArrayI10octave_intIhEE15delete_elementsEiRK10idx_vector@Base 3.4.3
 _ZN5ArrayI10octave_intIhEE15maybe_economizeEv@Base 3.4.3
 _ZN5ArrayI10octave_intIhEE17resize_fill_valueEv@Base 3.4.3
 _ZN5ArrayI10octave_intIhEE19instantiation_guardEv@Base 3.4.3
 _ZN5ArrayI10octave_intIhEE19optimize_dimensionsERK10dim_vector@Base 3.4.3
 _ZN5ArrayI10octave_intIhEE24chop_trailing_singletonsEv@Base 3.4.3
 _ZN5ArrayI10octave_intIhEE3catEiiPKS2_@Base 3.4.3
 _ZN5ArrayI10octave_intIhEE4elemERKS_IiE@Base 3.4.3
 _ZN5ArrayI10octave_intIhEE4elemEi@Base 3.4.3
 _ZN5ArrayI10octave_intIhEE4elemEii@Base 3.4.3
 _ZN5ArrayI10octave_intIhEE4elemEiii@Base 3.4.3
 _ZN5ArrayI10octave_intIhEE4fillERKS1_@Base 3.4.3
 _ZN5ArrayI10octave_intIhEE5clearERK10dim_vector@Base 3.4.3
 _ZN5ArrayI10octave_intIhEE5clearEii@Base 3.4.3
 _ZN5ArrayI10octave_intIhEE5clearEv@Base 3.4.3
 _ZN5ArrayI10octave_intIhEE5xelemERKS_IiE@Base 3.4.3
 _ZN5ArrayI10octave_intIhEE5xelemEi@Base 3.4.3
 _ZN5ArrayI10octave_intIhEE5xelemEii@Base 3.4.3
 _ZN5ArrayI10octave_intIhEE5xelemEiii@Base 3.4.3
 _ZN5ArrayI10octave_intIhEE6assignERK10idx_vectorRKS2_RKS1_@Base 3.4.3
 _ZN5ArrayI10octave_intIhEE6assignERK10idx_vectorS5_RKS2_RKS1_@Base 3.4.3
 _ZN5ArrayI10octave_intIhEE6assignERKS_I10idx_vectorERKS2_RKS1_@Base 3.4.3
 _ZN5ArrayI10octave_intIhEE6insertERKS2_RKS_IiE@Base 3.4.3
 _ZN5ArrayI10octave_intIhEE6insertERKS2_ii@Base 3.4.3
 _ZN5ArrayI10octave_intIhEE6resizeERK10dim_vectorRKS1_@Base 3.4.3
 _ZN5ArrayI10octave_intIhEE6resizeEi@Base 3.4.3
 _ZN5ArrayI10octave_intIhEE6resizeEiiRKS1_@Base 3.4.3
 _ZN5ArrayI10octave_intIhEE7resize1EiRKS1_@Base 3.4.3
 _ZN5ArrayI10octave_intIhEE7resize2EiiRKS1_@Base 3.4.3
 _ZN5ArrayI10octave_intIhEE8ArrayRepC1EPS1_i@Base 3.4.3
 _ZN5ArrayI10octave_intIhEE8ArrayRepC1ERKS3_@Base 3.4.3
 _ZN5ArrayI10octave_intIhEE8ArrayRepC1Ei@Base 3.4.3
 _ZN5ArrayI10octave_intIhEE8ArrayRepC1EiRKS1_@Base 3.4.3
 _ZN5ArrayI10octave_intIhEE8ArrayRepC1Ev@Base 3.4.3
 _ZN5ArrayI10octave_intIhEE8ArrayRepC2EPS1_i@Base 3.4.3
 _ZN5ArrayI10octave_intIhEE8ArrayRepC2ERKS3_@Base 3.4.3
 _ZN5ArrayI10octave_intIhEE8ArrayRepC2Ei@Base 3.4.3
 _ZN5ArrayI10octave_intIhEE8ArrayRepC2EiRKS1_@Base 3.4.3
 _ZN5ArrayI10octave_intIhEE8ArrayRepC2Ev@Base 3.4.3
 _ZN5ArrayI10octave_intIhEE9checkelemERKS_IiE@Base 3.4.3
 _ZN5ArrayI10octave_intIhEE9checkelemEi@Base 3.4.3
 _ZN5ArrayI10octave_intIhEE9checkelemEii@Base 3.4.3
 _ZN5ArrayI10octave_intIhEE9checkelemEiii@Base 3.4.3
 _ZN5ArrayI10octave_intIhEE9is_sharedEv@Base 3.4.3
 _ZN5ArrayI10octave_intIhEEC1ERK10dim_vector@Base 3.4.3
 _ZN5ArrayI10octave_intIhEEC1ERK10dim_vectorRKS1_@Base 3.4.3
 _ZN5ArrayI10octave_intIhEEC1ERKS2_@Base 3.4.3
 _ZN5ArrayI10octave_intIhEEC1ERKS2_RK10dim_vector@Base 3.4.3
 _ZN5ArrayI10octave_intIhEEC1ERKS2_RK10dim_vectorii@Base 3.4.3
 _ZN5ArrayI10octave_intIhEEC1Ei@Base 3.4.3
 _ZN5ArrayI10octave_intIhEEC1EiRKS1_@Base 3.4.3
 _ZN5ArrayI10octave_intIhEEC1Ev@Base 3.4.3
 _ZN5ArrayI10octave_intIhEEC2ERK10dim_vector@Base 3.4.3
 _ZN5ArrayI10octave_intIhEEC2ERK10dim_vectorRKS1_@Base 3.4.3
 _ZN5ArrayI10octave_intIhEEC2ERKS2_@Base 3.4.3
 _ZN5ArrayI10octave_intIhEEC2ERKS2_RK10dim_vector@Base 3.4.3
 _ZN5ArrayI10octave_intIhEEC2ERKS2_RK10dim_vectorii@Base 3.4.3
 _ZN5ArrayI10octave_intIhEEC2Ei@Base 3.4.3
 _ZN5ArrayI10octave_intIhEEC2EiRKS1_@Base 3.4.3
 _ZN5ArrayI10octave_intIhEEC2Ev@Base 3.4.3
 _ZN5ArrayI10octave_intIhEED1Ev@Base 3.4.3
 _ZN5ArrayI10octave_intIhEED2Ev@Base 3.4.3
 _ZN5ArrayI10octave_intIhEEaSERKS2_@Base 3.4.3
 _ZN5ArrayI10octave_intIhEEclERKS_IiE@Base 3.4.3
 _ZN5ArrayI10octave_intIhEEclEi@Base 3.4.3
 _ZN5ArrayI10octave_intIhEEclEii@Base 3.4.3
 _ZN5ArrayI10octave_intIhEEclEiii@Base 3.4.3
 _ZN5ArrayI10octave_intIiEE11fortran_vecEv@Base 3.4.3
 _ZN5ArrayI10octave_intIiEE11make_uniqueEv@Base 3.4.3
 _ZN5ArrayI10octave_intIiEE15delete_elementsERK10idx_vector@Base 3.4.3
 _ZN5ArrayI10octave_intIiEE15delete_elementsERKS_I10idx_vectorE@Base 3.4.3
 _ZN5ArrayI10octave_intIiEE15delete_elementsEiRK10idx_vector@Base 3.4.3
 _ZN5ArrayI10octave_intIiEE15maybe_economizeEv@Base 3.4.3
 _ZN5ArrayI10octave_intIiEE17resize_fill_valueEv@Base 3.4.3
 _ZN5ArrayI10octave_intIiEE19instantiation_guardEv@Base 3.4.3
 _ZN5ArrayI10octave_intIiEE19optimize_dimensionsERK10dim_vector@Base 3.4.3
 _ZN5ArrayI10octave_intIiEE24chop_trailing_singletonsEv@Base 3.4.3
 _ZN5ArrayI10octave_intIiEE3catEiiPKS2_@Base 3.4.3
 _ZN5ArrayI10octave_intIiEE4elemERKS_IiE@Base 3.4.3
 _ZN5ArrayI10octave_intIiEE4elemEi@Base 3.4.3
 _ZN5ArrayI10octave_intIiEE4elemEii@Base 3.4.3
 _ZN5ArrayI10octave_intIiEE4elemEiii@Base 3.4.3
 _ZN5ArrayI10octave_intIiEE4fillERKS1_@Base 3.4.3
 _ZN5ArrayI10octave_intIiEE5clearERK10dim_vector@Base 3.4.3
 _ZN5ArrayI10octave_intIiEE5clearEii@Base 3.4.3
 _ZN5ArrayI10octave_intIiEE5clearEv@Base 3.4.3
 _ZN5ArrayI10octave_intIiEE5xelemERKS_IiE@Base 3.4.3
 _ZN5ArrayI10octave_intIiEE5xelemEi@Base 3.4.3
 _ZN5ArrayI10octave_intIiEE5xelemEii@Base 3.4.3
 _ZN5ArrayI10octave_intIiEE5xelemEiii@Base 3.4.3
 _ZN5ArrayI10octave_intIiEE6assignERK10idx_vectorRKS2_RKS1_@Base 3.4.3
 _ZN5ArrayI10octave_intIiEE6assignERK10idx_vectorS5_RKS2_RKS1_@Base 3.4.3
 _ZN5ArrayI10octave_intIiEE6assignERKS_I10idx_vectorERKS2_RKS1_@Base 3.4.3
 _ZN5ArrayI10octave_intIiEE6insertERKS2_RKS_IiE@Base 3.4.3
 _ZN5ArrayI10octave_intIiEE6insertERKS2_ii@Base 3.4.3
 _ZN5ArrayI10octave_intIiEE6resizeERK10dim_vectorRKS1_@Base 3.4.3
 _ZN5ArrayI10octave_intIiEE6resizeEi@Base 3.4.3
 _ZN5ArrayI10octave_intIiEE6resizeEiiRKS1_@Base 3.4.3
 _ZN5ArrayI10octave_intIiEE7resize1EiRKS1_@Base 3.4.3
 _ZN5ArrayI10octave_intIiEE7resize2EiiRKS1_@Base 3.4.3
 _ZN5ArrayI10octave_intIiEE8ArrayRepC1EPS1_i@Base 3.4.3
 _ZN5ArrayI10octave_intIiEE8ArrayRepC1ERKS3_@Base 3.4.3
 _ZN5ArrayI10octave_intIiEE8ArrayRepC1Ei@Base 3.4.3
 _ZN5ArrayI10octave_intIiEE8ArrayRepC1EiRKS1_@Base 3.4.3
 _ZN5ArrayI10octave_intIiEE8ArrayRepC1Ev@Base 3.4.3
 _ZN5ArrayI10octave_intIiEE8ArrayRepC2EPS1_i@Base 3.4.3
 _ZN5ArrayI10octave_intIiEE8ArrayRepC2ERKS3_@Base 3.4.3
 _ZN5ArrayI10octave_intIiEE8ArrayRepC2Ei@Base 3.4.3
 _ZN5ArrayI10octave_intIiEE8ArrayRepC2EiRKS1_@Base 3.4.3
 _ZN5ArrayI10octave_intIiEE8ArrayRepC2Ev@Base 3.4.3
 _ZN5ArrayI10octave_intIiEE9checkelemERKS_IiE@Base 3.4.3
 _ZN5ArrayI10octave_intIiEE9checkelemEi@Base 3.4.3
 _ZN5ArrayI10octave_intIiEE9checkelemEii@Base 3.4.3
 _ZN5ArrayI10octave_intIiEE9checkelemEiii@Base 3.4.3
 _ZN5ArrayI10octave_intIiEE9is_sharedEv@Base 3.4.3
 _ZN5ArrayI10octave_intIiEEC1ERK10dim_vector@Base 3.4.3
 _ZN5ArrayI10octave_intIiEEC1ERK10dim_vectorRKS1_@Base 3.4.3
 _ZN5ArrayI10octave_intIiEEC1ERKS2_@Base 3.4.3
 _ZN5ArrayI10octave_intIiEEC1ERKS2_RK10dim_vector@Base 3.4.3
 _ZN5ArrayI10octave_intIiEEC1ERKS2_RK10dim_vectorii@Base 3.4.3
 _ZN5ArrayI10octave_intIiEEC1Ei@Base 3.4.3
 _ZN5ArrayI10octave_intIiEEC1EiRKS1_@Base 3.4.3
 _ZN5ArrayI10octave_intIiEEC1Ev@Base 3.4.3
 _ZN5ArrayI10octave_intIiEEC2ERK10dim_vector@Base 3.4.3
 _ZN5ArrayI10octave_intIiEEC2ERK10dim_vectorRKS1_@Base 3.4.3
 _ZN5ArrayI10octave_intIiEEC2ERKS2_@Base 3.4.3
 _ZN5ArrayI10octave_intIiEEC2ERKS2_RK10dim_vector@Base 3.4.3
 _ZN5ArrayI10octave_intIiEEC2ERKS2_RK10dim_vectorii@Base 3.4.3
 _ZN5ArrayI10octave_intIiEEC2Ei@Base 3.4.3
 _ZN5ArrayI10octave_intIiEEC2EiRKS1_@Base 3.4.3
 _ZN5ArrayI10octave_intIiEEC2Ev@Base 3.4.3
 _ZN5ArrayI10octave_intIiEED1Ev@Base 3.4.3
 _ZN5ArrayI10octave_intIiEED2Ev@Base 3.4.3
 _ZN5ArrayI10octave_intIiEEaSERKS2_@Base 3.4.3
 _ZN5ArrayI10octave_intIiEEclERKS_IiE@Base 3.4.3
 _ZN5ArrayI10octave_intIiEEclEi@Base 3.4.3
 _ZN5ArrayI10octave_intIiEEclEii@Base 3.4.3
 _ZN5ArrayI10octave_intIiEEclEiii@Base 3.4.3
 _ZN5ArrayI10octave_intIjEE11fortran_vecEv@Base 3.4.3
 _ZN5ArrayI10octave_intIjEE11make_uniqueEv@Base 3.4.3
 _ZN5ArrayI10octave_intIjEE15delete_elementsERK10idx_vector@Base 3.4.3
 _ZN5ArrayI10octave_intIjEE15delete_elementsERKS_I10idx_vectorE@Base 3.4.3
 _ZN5ArrayI10octave_intIjEE15delete_elementsEiRK10idx_vector@Base 3.4.3
 _ZN5ArrayI10octave_intIjEE15maybe_economizeEv@Base 3.4.3
 _ZN5ArrayI10octave_intIjEE17resize_fill_valueEv@Base 3.4.3
 _ZN5ArrayI10octave_intIjEE19instantiation_guardEv@Base 3.4.3
 _ZN5ArrayI10octave_intIjEE19optimize_dimensionsERK10dim_vector@Base 3.4.3
 _ZN5ArrayI10octave_intIjEE24chop_trailing_singletonsEv@Base 3.4.3
 _ZN5ArrayI10octave_intIjEE3catEiiPKS2_@Base 3.4.3
 _ZN5ArrayI10octave_intIjEE4elemERKS_IiE@Base 3.4.3
 _ZN5ArrayI10octave_intIjEE4elemEi@Base 3.4.3
 _ZN5ArrayI10octave_intIjEE4elemEii@Base 3.4.3
 _ZN5ArrayI10octave_intIjEE4elemEiii@Base 3.4.3
 _ZN5ArrayI10octave_intIjEE4fillERKS1_@Base 3.4.3
 _ZN5ArrayI10octave_intIjEE5clearERK10dim_vector@Base 3.4.3
 _ZN5ArrayI10octave_intIjEE5clearEii@Base 3.4.3
 _ZN5ArrayI10octave_intIjEE5clearEv@Base 3.4.3
 _ZN5ArrayI10octave_intIjEE5xelemERKS_IiE@Base 3.4.3
 _ZN5ArrayI10octave_intIjEE5xelemEi@Base 3.4.3
 _ZN5ArrayI10octave_intIjEE5xelemEii@Base 3.4.3
 _ZN5ArrayI10octave_intIjEE5xelemEiii@Base 3.4.3
 _ZN5ArrayI10octave_intIjEE6assignERK10idx_vectorRKS2_RKS1_@Base 3.4.3
 _ZN5ArrayI10octave_intIjEE6assignERK10idx_vectorS5_RKS2_RKS1_@Base 3.4.3
 _ZN5ArrayI10octave_intIjEE6assignERKS_I10idx_vectorERKS2_RKS1_@Base 3.4.3
 _ZN5ArrayI10octave_intIjEE6insertERKS2_RKS_IiE@Base 3.4.3
 _ZN5ArrayI10octave_intIjEE6insertERKS2_ii@Base 3.4.3
 _ZN5ArrayI10octave_intIjEE6resizeERK10dim_vectorRKS1_@Base 3.4.3
 _ZN5ArrayI10octave_intIjEE6resizeEi@Base 3.4.3
 _ZN5ArrayI10octave_intIjEE6resizeEiiRKS1_@Base 3.4.3
 _ZN5ArrayI10octave_intIjEE7resize1EiRKS1_@Base 3.4.3
 _ZN5ArrayI10octave_intIjEE7resize2EiiRKS1_@Base 3.4.3
 _ZN5ArrayI10octave_intIjEE8ArrayRepC1EPS1_i@Base 3.4.3
 _ZN5ArrayI10octave_intIjEE8ArrayRepC1ERKS3_@Base 3.4.3
 _ZN5ArrayI10octave_intIjEE8ArrayRepC1Ei@Base 3.4.3
 _ZN5ArrayI10octave_intIjEE8ArrayRepC1EiRKS1_@Base 3.4.3
 _ZN5ArrayI10octave_intIjEE8ArrayRepC1Ev@Base 3.4.3
 _ZN5ArrayI10octave_intIjEE8ArrayRepC2EPS1_i@Base 3.4.3
 _ZN5ArrayI10octave_intIjEE8ArrayRepC2ERKS3_@Base 3.4.3
 _ZN5ArrayI10octave_intIjEE8ArrayRepC2Ei@Base 3.4.3
 _ZN5ArrayI10octave_intIjEE8ArrayRepC2EiRKS1_@Base 3.4.3
 _ZN5ArrayI10octave_intIjEE8ArrayRepC2Ev@Base 3.4.3
 _ZN5ArrayI10octave_intIjEE9checkelemERKS_IiE@Base 3.4.3
 _ZN5ArrayI10octave_intIjEE9checkelemEi@Base 3.4.3
 _ZN5ArrayI10octave_intIjEE9checkelemEii@Base 3.4.3
 _ZN5ArrayI10octave_intIjEE9checkelemEiii@Base 3.4.3
 _ZN5ArrayI10octave_intIjEE9is_sharedEv@Base 3.4.3
 _ZN5ArrayI10octave_intIjEEC1ERK10dim_vector@Base 3.4.3
 _ZN5ArrayI10octave_intIjEEC1ERK10dim_vectorRKS1_@Base 3.4.3
 _ZN5ArrayI10octave_intIjEEC1ERKS2_@Base 3.4.3
 _ZN5ArrayI10octave_intIjEEC1ERKS2_RK10dim_vector@Base 3.4.3
 _ZN5ArrayI10octave_intIjEEC1ERKS2_RK10dim_vectorii@Base 3.4.3
 _ZN5ArrayI10octave_intIjEEC1Ei@Base 3.4.3
 _ZN5ArrayI10octave_intIjEEC1EiRKS1_@Base 3.4.3
 _ZN5ArrayI10octave_intIjEEC1Ev@Base 3.4.3
 _ZN5ArrayI10octave_intIjEEC2ERK10dim_vector@Base 3.4.3
 _ZN5ArrayI10octave_intIjEEC2ERK10dim_vectorRKS1_@Base 3.4.3
 _ZN5ArrayI10octave_intIjEEC2ERKS2_@Base 3.4.3
 _ZN5ArrayI10octave_intIjEEC2ERKS2_RK10dim_vector@Base 3.4.3
 _ZN5ArrayI10octave_intIjEEC2ERKS2_RK10dim_vectorii@Base 3.4.3
 _ZN5ArrayI10octave_intIjEEC2Ei@Base 3.4.3
 _ZN5ArrayI10octave_intIjEEC2EiRKS1_@Base 3.4.3
 _ZN5ArrayI10octave_intIjEEC2Ev@Base 3.4.3
 _ZN5ArrayI10octave_intIjEED1Ev@Base 3.4.3
 _ZN5ArrayI10octave_intIjEED2Ev@Base 3.4.3
 _ZN5ArrayI10octave_intIjEEaSERKS2_@Base 3.4.3
 _ZN5ArrayI10octave_intIjEEclERKS_IiE@Base 3.4.3
 _ZN5ArrayI10octave_intIjEEclEi@Base 3.4.3
 _ZN5ArrayI10octave_intIjEEclEii@Base 3.4.3
 _ZN5ArrayI10octave_intIjEEclEiii@Base 3.4.3
 _ZN5ArrayI10octave_intIsEE11fortran_vecEv@Base 3.4.3
 _ZN5ArrayI10octave_intIsEE11make_uniqueEv@Base 3.4.3
 _ZN5ArrayI10octave_intIsEE15delete_elementsERK10idx_vector@Base 3.4.3
 _ZN5ArrayI10octave_intIsEE15delete_elementsERKS_I10idx_vectorE@Base 3.4.3
 _ZN5ArrayI10octave_intIsEE15delete_elementsEiRK10idx_vector@Base 3.4.3
 _ZN5ArrayI10octave_intIsEE15maybe_economizeEv@Base 3.4.3
 _ZN5ArrayI10octave_intIsEE17resize_fill_valueEv@Base 3.4.3
 _ZN5ArrayI10octave_intIsEE19instantiation_guardEv@Base 3.4.3
 _ZN5ArrayI10octave_intIsEE19optimize_dimensionsERK10dim_vector@Base 3.4.3
 _ZN5ArrayI10octave_intIsEE24chop_trailing_singletonsEv@Base 3.4.3
 _ZN5ArrayI10octave_intIsEE3catEiiPKS2_@Base 3.4.3
 _ZN5ArrayI10octave_intIsEE4elemERKS_IiE@Base 3.4.3
 _ZN5ArrayI10octave_intIsEE4elemEi@Base 3.4.3
 _ZN5ArrayI10octave_intIsEE4elemEii@Base 3.4.3
 _ZN5ArrayI10octave_intIsEE4elemEiii@Base 3.4.3
 _ZN5ArrayI10octave_intIsEE4fillERKS1_@Base 3.4.3
 _ZN5ArrayI10octave_intIsEE5clearERK10dim_vector@Base 3.4.3
 _ZN5ArrayI10octave_intIsEE5clearEii@Base 3.4.3
 _ZN5ArrayI10octave_intIsEE5clearEv@Base 3.4.3
 _ZN5ArrayI10octave_intIsEE5xelemERKS_IiE@Base 3.4.3
 _ZN5ArrayI10octave_intIsEE5xelemEi@Base 3.4.3
 _ZN5ArrayI10octave_intIsEE5xelemEii@Base 3.4.3
 _ZN5ArrayI10octave_intIsEE5xelemEiii@Base 3.4.3
 _ZN5ArrayI10octave_intIsEE6assignERK10idx_vectorRKS2_RKS1_@Base 3.4.3
 _ZN5ArrayI10octave_intIsEE6assignERK10idx_vectorS5_RKS2_RKS1_@Base 3.4.3
 _ZN5ArrayI10octave_intIsEE6assignERKS_I10idx_vectorERKS2_RKS1_@Base 3.4.3
 _ZN5ArrayI10octave_intIsEE6insertERKS2_RKS_IiE@Base 3.4.3
 _ZN5ArrayI10octave_intIsEE6insertERKS2_ii@Base 3.4.3
 _ZN5ArrayI10octave_intIsEE6resizeERK10dim_vectorRKS1_@Base 3.4.3
 _ZN5ArrayI10octave_intIsEE6resizeEi@Base 3.4.3
 _ZN5ArrayI10octave_intIsEE6resizeEiiRKS1_@Base 3.4.3
 _ZN5ArrayI10octave_intIsEE7resize1EiRKS1_@Base 3.4.3
 _ZN5ArrayI10octave_intIsEE7resize2EiiRKS1_@Base 3.4.3
 _ZN5ArrayI10octave_intIsEE8ArrayRepC1EPS1_i@Base 3.4.3
 _ZN5ArrayI10octave_intIsEE8ArrayRepC1ERKS3_@Base 3.4.3
 _ZN5ArrayI10octave_intIsEE8ArrayRepC1Ei@Base 3.4.3
 _ZN5ArrayI10octave_intIsEE8ArrayRepC1EiRKS1_@Base 3.4.3
 _ZN5ArrayI10octave_intIsEE8ArrayRepC1Ev@Base 3.4.3
 _ZN5ArrayI10octave_intIsEE8ArrayRepC2EPS1_i@Base 3.4.3
 _ZN5ArrayI10octave_intIsEE8ArrayRepC2ERKS3_@Base 3.4.3
 _ZN5ArrayI10octave_intIsEE8ArrayRepC2Ei@Base 3.4.3
 _ZN5ArrayI10octave_intIsEE8ArrayRepC2EiRKS1_@Base 3.4.3
 _ZN5ArrayI10octave_intIsEE8ArrayRepC2Ev@Base 3.4.3
 _ZN5ArrayI10octave_intIsEE9checkelemERKS_IiE@Base 3.4.3
 _ZN5ArrayI10octave_intIsEE9checkelemEi@Base 3.4.3
 _ZN5ArrayI10octave_intIsEE9checkelemEii@Base 3.4.3
 _ZN5ArrayI10octave_intIsEE9checkelemEiii@Base 3.4.3
 _ZN5ArrayI10octave_intIsEE9is_sharedEv@Base 3.4.3
 _ZN5ArrayI10octave_intIsEEC1ERK10dim_vector@Base 3.4.3
 _ZN5ArrayI10octave_intIsEEC1ERK10dim_vectorRKS1_@Base 3.4.3
 _ZN5ArrayI10octave_intIsEEC1ERKS2_@Base 3.4.3
 _ZN5ArrayI10octave_intIsEEC1ERKS2_RK10dim_vector@Base 3.4.3
 _ZN5ArrayI10octave_intIsEEC1ERKS2_RK10dim_vectorii@Base 3.4.3
 _ZN5ArrayI10octave_intIsEEC1Ei@Base 3.4.3
 _ZN5ArrayI10octave_intIsEEC1EiRKS1_@Base 3.4.3
 _ZN5ArrayI10octave_intIsEEC1Ev@Base 3.4.3
 _ZN5ArrayI10octave_intIsEEC2ERK10dim_vector@Base 3.4.3
 _ZN5ArrayI10octave_intIsEEC2ERK10dim_vectorRKS1_@Base 3.4.3
 _ZN5ArrayI10octave_intIsEEC2ERKS2_@Base 3.4.3
 _ZN5ArrayI10octave_intIsEEC2ERKS2_RK10dim_vector@Base 3.4.3
 _ZN5ArrayI10octave_intIsEEC2ERKS2_RK10dim_vectorii@Base 3.4.3
 _ZN5ArrayI10octave_intIsEEC2Ei@Base 3.4.3
 _ZN5ArrayI10octave_intIsEEC2EiRKS1_@Base 3.4.3
 _ZN5ArrayI10octave_intIsEEC2Ev@Base 3.4.3
 _ZN5ArrayI10octave_intIsEED1Ev@Base 3.4.3
 _ZN5ArrayI10octave_intIsEED2Ev@Base 3.4.3
 _ZN5ArrayI10octave_intIsEEaSERKS2_@Base 3.4.3
 _ZN5ArrayI10octave_intIsEEclERKS_IiE@Base 3.4.3
 _ZN5ArrayI10octave_intIsEEclEi@Base 3.4.3
 _ZN5ArrayI10octave_intIsEEclEii@Base 3.4.3
 _ZN5ArrayI10octave_intIsEEclEiii@Base 3.4.3
 _ZN5ArrayI10octave_intItEE11fortran_vecEv@Base 3.4.3
 _ZN5ArrayI10octave_intItEE11make_uniqueEv@Base 3.4.3
 _ZN5ArrayI10octave_intItEE15delete_elementsERK10idx_vector@Base 3.4.3
 _ZN5ArrayI10octave_intItEE15delete_elementsERKS_I10idx_vectorE@Base 3.4.3
 _ZN5ArrayI10octave_intItEE15delete_elementsEiRK10idx_vector@Base 3.4.3
 _ZN5ArrayI10octave_intItEE15maybe_economizeEv@Base 3.4.3
 _ZN5ArrayI10octave_intItEE17resize_fill_valueEv@Base 3.4.3
 _ZN5ArrayI10octave_intItEE19instantiation_guardEv@Base 3.4.3
 _ZN5ArrayI10octave_intItEE19optimize_dimensionsERK10dim_vector@Base 3.4.3
 _ZN5ArrayI10octave_intItEE24chop_trailing_singletonsEv@Base 3.4.3
 _ZN5ArrayI10octave_intItEE3catEiiPKS2_@Base 3.4.3
 _ZN5ArrayI10octave_intItEE4elemERKS_IiE@Base 3.4.3
 _ZN5ArrayI10octave_intItEE4elemEi@Base 3.4.3
 _ZN5ArrayI10octave_intItEE4elemEii@Base 3.4.3
 _ZN5ArrayI10octave_intItEE4elemEiii@Base 3.4.3
 _ZN5ArrayI10octave_intItEE4fillERKS1_@Base 3.4.3
 _ZN5ArrayI10octave_intItEE5clearERK10dim_vector@Base 3.4.3
 _ZN5ArrayI10octave_intItEE5clearEii@Base 3.4.3
 _ZN5ArrayI10octave_intItEE5clearEv@Base 3.4.3
 _ZN5ArrayI10octave_intItEE5xelemERKS_IiE@Base 3.4.3
 _ZN5ArrayI10octave_intItEE5xelemEi@Base 3.4.3
 _ZN5ArrayI10octave_intItEE5xelemEii@Base 3.4.3
 _ZN5ArrayI10octave_intItEE5xelemEiii@Base 3.4.3
 _ZN5ArrayI10octave_intItEE6assignERK10idx_vectorRKS2_RKS1_@Base 3.4.3
 _ZN5ArrayI10octave_intItEE6assignERK10idx_vectorS5_RKS2_RKS1_@Base 3.4.3
 _ZN5ArrayI10octave_intItEE6assignERKS_I10idx_vectorERKS2_RKS1_@Base 3.4.3
 _ZN5ArrayI10octave_intItEE6insertERKS2_RKS_IiE@Base 3.4.3
 _ZN5ArrayI10octave_intItEE6insertERKS2_ii@Base 3.4.3
 _ZN5ArrayI10octave_intItEE6resizeERK10dim_vectorRKS1_@Base 3.4.3
 _ZN5ArrayI10octave_intItEE6resizeEi@Base 3.4.3
 _ZN5ArrayI10octave_intItEE6resizeEiiRKS1_@Base 3.4.3
 _ZN5ArrayI10octave_intItEE7resize1EiRKS1_@Base 3.4.3
 _ZN5ArrayI10octave_intItEE7resize2EiiRKS1_@Base 3.4.3
 _ZN5ArrayI10octave_intItEE8ArrayRepC1EPS1_i@Base 3.4.3
 _ZN5ArrayI10octave_intItEE8ArrayRepC1ERKS3_@Base 3.4.3
 _ZN5ArrayI10octave_intItEE8ArrayRepC1Ei@Base 3.4.3
 _ZN5ArrayI10octave_intItEE8ArrayRepC1EiRKS1_@Base 3.4.3
 _ZN5ArrayI10octave_intItEE8ArrayRepC1Ev@Base 3.4.3
 _ZN5ArrayI10octave_intItEE8ArrayRepC2EPS1_i@Base 3.4.3
 _ZN5ArrayI10octave_intItEE8ArrayRepC2ERKS3_@Base 3.4.3
 _ZN5ArrayI10octave_intItEE8ArrayRepC2Ei@Base 3.4.3
 _ZN5ArrayI10octave_intItEE8ArrayRepC2EiRKS1_@Base 3.4.3
 _ZN5ArrayI10octave_intItEE8ArrayRepC2Ev@Base 3.4.3
 _ZN5ArrayI10octave_intItEE9checkelemERKS_IiE@Base 3.4.3
 _ZN5ArrayI10octave_intItEE9checkelemEi@Base 3.4.3
 _ZN5ArrayI10octave_intItEE9checkelemEii@Base 3.4.3
 _ZN5ArrayI10octave_intItEE9checkelemEiii@Base 3.4.3
 _ZN5ArrayI10octave_intItEE9is_sharedEv@Base 3.4.3
 _ZN5ArrayI10octave_intItEEC1ERK10dim_vector@Base 3.4.3
 _ZN5ArrayI10octave_intItEEC1ERK10dim_vectorRKS1_@Base 3.4.3
 _ZN5ArrayI10octave_intItEEC1ERKS2_@Base 3.4.3
 _ZN5ArrayI10octave_intItEEC1ERKS2_RK10dim_vector@Base 3.4.3
 _ZN5ArrayI10octave_intItEEC1ERKS2_RK10dim_vectorii@Base 3.4.3
 _ZN5ArrayI10octave_intItEEC1Ei@Base 3.4.3
 _ZN5ArrayI10octave_intItEEC1EiRKS1_@Base 3.4.3
 _ZN5ArrayI10octave_intItEEC1Ev@Base 3.4.3
 _ZN5ArrayI10octave_intItEEC2ERK10dim_vector@Base 3.4.3
 _ZN5ArrayI10octave_intItEEC2ERK10dim_vectorRKS1_@Base 3.4.3
 _ZN5ArrayI10octave_intItEEC2ERKS2_@Base 3.4.3
 _ZN5ArrayI10octave_intItEEC2ERKS2_RK10dim_vector@Base 3.4.3
 _ZN5ArrayI10octave_intItEEC2ERKS2_RK10dim_vectorii@Base 3.4.3
 _ZN5ArrayI10octave_intItEEC2Ei@Base 3.4.3
 _ZN5ArrayI10octave_intItEEC2EiRKS1_@Base 3.4.3
 _ZN5ArrayI10octave_intItEEC2Ev@Base 3.4.3
 _ZN5ArrayI10octave_intItEED1Ev@Base 3.4.3
 _ZN5ArrayI10octave_intItEED2Ev@Base 3.4.3
 _ZN5ArrayI10octave_intItEEaSERKS2_@Base 3.4.3
 _ZN5ArrayI10octave_intItEEclERKS_IiE@Base 3.4.3
 _ZN5ArrayI10octave_intItEEclEi@Base 3.4.3
 _ZN5ArrayI10octave_intItEEclEii@Base 3.4.3
 _ZN5ArrayI10octave_intItEEclEiii@Base 3.4.3
 _ZN5ArrayIPvE11fortran_vecEv@Base 3.4.3
 _ZN5ArrayIPvE11make_uniqueEv@Base 3.4.3
 _ZN5ArrayIPvE15delete_elementsERK10idx_vector@Base 3.4.3
 _ZN5ArrayIPvE15delete_elementsERKS_I10idx_vectorE@Base 3.4.3
 _ZN5ArrayIPvE15delete_elementsEiRK10idx_vector@Base 3.4.3
 _ZN5ArrayIPvE15maybe_economizeEv@Base 3.4.3
 _ZN5ArrayIPvE17resize_fill_valueEv@Base 3.4.3
 _ZN5ArrayIPvE19instantiation_guardEv@Base 3.4.3
 _ZN5ArrayIPvE19optimize_dimensionsERK10dim_vector@Base 3.4.3
 _ZN5ArrayIPvE24chop_trailing_singletonsEv@Base 3.4.3
 _ZN5ArrayIPvE3catEiiPKS1_@Base 3.4.3
 _ZN5ArrayIPvE4elemERKS_IiE@Base 3.4.3
 _ZN5ArrayIPvE4elemEi@Base 3.4.3
 _ZN5ArrayIPvE4elemEii@Base 3.4.3
 _ZN5ArrayIPvE4elemEiii@Base 3.4.3
 _ZN5ArrayIPvE4fillERKS0_@Base 3.4.3
 _ZN5ArrayIPvE5clearERK10dim_vector@Base 3.4.3
 _ZN5ArrayIPvE5clearEii@Base 3.4.3
 _ZN5ArrayIPvE5clearEv@Base 3.4.3
 _ZN5ArrayIPvE5xelemERKS_IiE@Base 3.4.3
 _ZN5ArrayIPvE5xelemEi@Base 3.4.3
 _ZN5ArrayIPvE5xelemEii@Base 3.4.3
 _ZN5ArrayIPvE5xelemEiii@Base 3.4.3
 _ZN5ArrayIPvE6assignERK10idx_vectorRKS1_RKS0_@Base 3.4.3
 _ZN5ArrayIPvE6assignERK10idx_vectorS4_RKS1_RKS0_@Base 3.4.3
 _ZN5ArrayIPvE6assignERKS_I10idx_vectorERKS1_RKS0_@Base 3.4.3
 _ZN5ArrayIPvE6insertERKS1_RKS_IiE@Base 3.4.3
 _ZN5ArrayIPvE6insertERKS1_ii@Base 3.4.3
 _ZN5ArrayIPvE6resizeERK10dim_vectorRKS0_@Base 3.4.3
 _ZN5ArrayIPvE6resizeEi@Base 3.4.3
 _ZN5ArrayIPvE6resizeEiiRKS0_@Base 3.4.3
 _ZN5ArrayIPvE7resize1EiRKS0_@Base 3.4.3
 _ZN5ArrayIPvE7resize2EiiRKS0_@Base 3.4.3
 _ZN5ArrayIPvE8ArrayRepC1EPS0_i@Base 3.4.3
 _ZN5ArrayIPvE8ArrayRepC1ERKS2_@Base 3.4.3
 _ZN5ArrayIPvE8ArrayRepC1Ei@Base 3.4.3
 _ZN5ArrayIPvE8ArrayRepC1EiRKS0_@Base 3.4.3
 _ZN5ArrayIPvE8ArrayRepC1Ev@Base 3.4.3
 _ZN5ArrayIPvE8ArrayRepC2EPS0_i@Base 3.4.3
 _ZN5ArrayIPvE8ArrayRepC2ERKS2_@Base 3.4.3
 _ZN5ArrayIPvE8ArrayRepC2Ei@Base 3.4.3
 _ZN5ArrayIPvE8ArrayRepC2EiRKS0_@Base 3.4.3
 _ZN5ArrayIPvE8ArrayRepC2Ev@Base 3.4.3
 _ZN5ArrayIPvE9checkelemERKS_IiE@Base 3.4.3
 _ZN5ArrayIPvE9checkelemEi@Base 3.4.3
 _ZN5ArrayIPvE9checkelemEii@Base 3.4.3
 _ZN5ArrayIPvE9checkelemEiii@Base 3.4.3
 _ZN5ArrayIPvE9is_sharedEv@Base 3.4.3
 _ZN5ArrayIPvEC1ERK10dim_vector@Base 3.4.3
 _ZN5ArrayIPvEC1ERK10dim_vectorRKS0_@Base 3.4.3
 _ZN5ArrayIPvEC1ERKS1_@Base 3.4.3
 _ZN5ArrayIPvEC1ERKS1_RK10dim_vector@Base 3.4.3
 _ZN5ArrayIPvEC1ERKS1_RK10dim_vectorii@Base 3.4.3
 _ZN5ArrayIPvEC1Ei@Base 3.4.3
 _ZN5ArrayIPvEC1EiRKS0_@Base 3.4.3
 _ZN5ArrayIPvEC1Ev@Base 3.4.3
 _ZN5ArrayIPvEC2ERK10dim_vector@Base 3.4.3
 _ZN5ArrayIPvEC2ERK10dim_vectorRKS0_@Base 3.4.3
 _ZN5ArrayIPvEC2ERKS1_@Base 3.4.3
 _ZN5ArrayIPvEC2ERKS1_RK10dim_vector@Base 3.4.3
 _ZN5ArrayIPvEC2ERKS1_RK10dim_vectorii@Base 3.4.3
 _ZN5ArrayIPvEC2Ei@Base 3.4.3
 _ZN5ArrayIPvEC2EiRKS0_@Base 3.4.3
 _ZN5ArrayIPvEC2Ev@Base 3.4.3
 _ZN5ArrayIPvED1Ev@Base 3.4.3
 _ZN5ArrayIPvED2Ev@Base 3.4.3
 _ZN5ArrayIPvEaSERKS1_@Base 3.4.3
 _ZN5ArrayIPvEclERKS_IiE@Base 3.4.3
 _ZN5ArrayIPvEclEi@Base 3.4.3
 _ZN5ArrayIPvEclEii@Base 3.4.3
 _ZN5ArrayIPvEclEiii@Base 3.4.3
 _ZN5ArrayISsE11fortran_vecEv@Base 3.4.3
 _ZN5ArrayISsE11make_uniqueEv@Base 3.4.3
 _ZN5ArrayISsE15delete_elementsERK10idx_vector@Base 3.4.3
 _ZN5ArrayISsE15delete_elementsERKS_I10idx_vectorE@Base 3.4.3
 _ZN5ArrayISsE15delete_elementsEiRK10idx_vector@Base 3.4.3
 _ZN5ArrayISsE15maybe_economizeEv@Base 3.4.3
 _ZN5ArrayISsE17resize_fill_valueEv@Base 3.4.3
 _ZN5ArrayISsE19instantiation_guardEv@Base 3.4.3
 _ZN5ArrayISsE19optimize_dimensionsERK10dim_vector@Base 3.4.3
 _ZN5ArrayISsE24chop_trailing_singletonsEv@Base 3.4.3
 _ZN5ArrayISsE3catEiiPKS0_@Base 3.4.3
 _ZN5ArrayISsE4elemERKS_IiE@Base 3.4.3
 _ZN5ArrayISsE4elemEi@Base 3.4.3
 _ZN5ArrayISsE4elemEii@Base 3.4.3
 _ZN5ArrayISsE4elemEiii@Base 3.4.3
 _ZN5ArrayISsE4fillERKSs@Base 3.4.3
 _ZN5ArrayISsE5clearERK10dim_vector@Base 3.4.3
 _ZN5ArrayISsE5clearEii@Base 3.4.3
 _ZN5ArrayISsE5clearEv@Base 3.4.3
 _ZN5ArrayISsE5xelemERKS_IiE@Base 3.4.3
 _ZN5ArrayISsE5xelemEi@Base 3.4.3
 _ZN5ArrayISsE5xelemEii@Base 3.4.3
 _ZN5ArrayISsE5xelemEiii@Base 3.4.3
 _ZN5ArrayISsE6assignERK10idx_vectorRKS0_RKSs@Base 3.4.3
 _ZN5ArrayISsE6assignERK10idx_vectorS3_RKS0_RKSs@Base 3.4.3
 _ZN5ArrayISsE6assignERKS_I10idx_vectorERKS0_RKSs@Base 3.4.3
 _ZN5ArrayISsE6insertERKS0_RKS_IiE@Base 3.4.3
 _ZN5ArrayISsE6insertERKS0_ii@Base 3.4.3
 _ZN5ArrayISsE6resizeERK10dim_vectorRKSs@Base 3.4.3
 _ZN5ArrayISsE6resizeEi@Base 3.4.3
 _ZN5ArrayISsE6resizeEiiRKSs@Base 3.4.3
 _ZN5ArrayISsE7resize1EiRKSs@Base 3.4.3
 _ZN5ArrayISsE7resize2EiiRKSs@Base 3.4.3
 _ZN5ArrayISsE8ArrayRepC1EPSsi@Base 3.4.3
 _ZN5ArrayISsE8ArrayRepC1ERKS1_@Base 3.4.3
 _ZN5ArrayISsE8ArrayRepC1Ei@Base 3.4.3
 _ZN5ArrayISsE8ArrayRepC1EiRKSs@Base 3.4.3
 _ZN5ArrayISsE8ArrayRepC1Ev@Base 3.4.3
 _ZN5ArrayISsE8ArrayRepC2EPSsi@Base 3.4.3
 _ZN5ArrayISsE8ArrayRepC2ERKS1_@Base 3.4.3
 _ZN5ArrayISsE8ArrayRepC2Ei@Base 3.4.3
 _ZN5ArrayISsE8ArrayRepC2EiRKSs@Base 3.4.3
 _ZN5ArrayISsE8ArrayRepC2Ev@Base 3.4.3
 _ZN5ArrayISsE9checkelemERKS_IiE@Base 3.4.3
 _ZN5ArrayISsE9checkelemEi@Base 3.4.3
 _ZN5ArrayISsE9checkelemEii@Base 3.4.3
 _ZN5ArrayISsE9checkelemEiii@Base 3.4.3
 _ZN5ArrayISsE9is_sharedEv@Base 3.4.3
 _ZN5ArrayISsEC1ERK10dim_vector@Base 3.4.3
 _ZN5ArrayISsEC1ERK10dim_vectorRKSs@Base 3.4.3
 _ZN5ArrayISsEC1ERKS0_@Base 3.4.3
 _ZN5ArrayISsEC1ERKS0_RK10dim_vector@Base 3.4.3
 _ZN5ArrayISsEC1ERKS0_RK10dim_vectorii@Base 3.4.3
 _ZN5ArrayISsEC1Ei@Base 3.4.3
 _ZN5ArrayISsEC1EiRKSs@Base 3.4.3
 _ZN5ArrayISsEC1Ev@Base 3.4.3
 _ZN5ArrayISsEC2ERK10dim_vector@Base 3.4.3
 _ZN5ArrayISsEC2ERK10dim_vectorRKSs@Base 3.4.3
 _ZN5ArrayISsEC2ERKS0_@Base 3.4.3
 _ZN5ArrayISsEC2ERKS0_RK10dim_vector@Base 3.4.3
 _ZN5ArrayISsEC2ERKS0_RK10dim_vectorii@Base 3.4.3
 _ZN5ArrayISsEC2Ei@Base 3.4.3
 _ZN5ArrayISsEC2EiRKSs@Base 3.4.3
 _ZN5ArrayISsEC2Ev@Base 3.4.3
 _ZN5ArrayISsED1Ev@Base 3.4.3
 _ZN5ArrayISsED2Ev@Base 3.4.3
 _ZN5ArrayISsEaSERKS0_@Base 3.4.3
 _ZN5ArrayISsEclERKS_IiE@Base 3.4.3
 _ZN5ArrayISsEclEi@Base 3.4.3
 _ZN5ArrayISsEclEii@Base 3.4.3
 _ZN5ArrayISsEclEiii@Base 3.4.3
 _ZN5ArrayISt7complexIdEE11fortran_vecEv@Base 3.4.3
 _ZN5ArrayISt7complexIdEE11make_uniqueEv@Base 3.4.3
 _ZN5ArrayISt7complexIdEE15delete_elementsERK10idx_vector@Base 3.4.3
 _ZN5ArrayISt7complexIdEE15delete_elementsERKS_I10idx_vectorE@Base 3.4.3
 _ZN5ArrayISt7complexIdEE15delete_elementsEiRK10idx_vector@Base 3.4.3
 _ZN5ArrayISt7complexIdEE15maybe_economizeEv@Base 3.4.3
 _ZN5ArrayISt7complexIdEE17resize_fill_valueEv@Base 3.4.3
 _ZN5ArrayISt7complexIdEE19instantiation_guardEv@Base 3.4.3
 _ZN5ArrayISt7complexIdEE19optimize_dimensionsERK10dim_vector@Base 3.4.3
 _ZN5ArrayISt7complexIdEE24chop_trailing_singletonsEv@Base 3.4.3
 _ZN5ArrayISt7complexIdEE3catEiiPKS2_@Base 3.4.3
 _ZN5ArrayISt7complexIdEE4elemERKS_IiE@Base 3.4.3
 _ZN5ArrayISt7complexIdEE4elemEi@Base 3.4.3
 _ZN5ArrayISt7complexIdEE4elemEii@Base 3.4.3
 _ZN5ArrayISt7complexIdEE4elemEiii@Base 3.4.3
 _ZN5ArrayISt7complexIdEE4fillERKS1_@Base 3.4.3
 _ZN5ArrayISt7complexIdEE5clearERK10dim_vector@Base 3.4.3
 _ZN5ArrayISt7complexIdEE5clearEii@Base 3.4.3
 _ZN5ArrayISt7complexIdEE5clearEv@Base 3.4.3
 _ZN5ArrayISt7complexIdEE5xelemERKS_IiE@Base 3.4.3
 _ZN5ArrayISt7complexIdEE5xelemEi@Base 3.4.3
 _ZN5ArrayISt7complexIdEE5xelemEii@Base 3.4.3
 _ZN5ArrayISt7complexIdEE5xelemEiii@Base 3.4.3
 _ZN5ArrayISt7complexIdEE6assignERK10idx_vectorRKS2_RKS1_@Base 3.4.3
 _ZN5ArrayISt7complexIdEE6assignERK10idx_vectorS5_RKS2_RKS1_@Base 3.4.3
 _ZN5ArrayISt7complexIdEE6assignERKS_I10idx_vectorERKS2_RKS1_@Base 3.4.3
 _ZN5ArrayISt7complexIdEE6insertERKS2_RKS_IiE@Base 3.4.3
 _ZN5ArrayISt7complexIdEE6insertERKS2_ii@Base 3.4.3
 _ZN5ArrayISt7complexIdEE6resizeERK10dim_vectorRKS1_@Base 3.4.3
 _ZN5ArrayISt7complexIdEE6resizeEi@Base 3.4.3
 _ZN5ArrayISt7complexIdEE6resizeEiiRKS1_@Base 3.4.3
 _ZN5ArrayISt7complexIdEE7resize1EiRKS1_@Base 3.4.3
 _ZN5ArrayISt7complexIdEE7resize2EiiRKS1_@Base 3.4.3
 _ZN5ArrayISt7complexIdEE8ArrayRepC1EPS1_i@Base 3.4.3
 _ZN5ArrayISt7complexIdEE8ArrayRepC1ERKS3_@Base 3.4.3
 _ZN5ArrayISt7complexIdEE8ArrayRepC1Ei@Base 3.4.3
 _ZN5ArrayISt7complexIdEE8ArrayRepC1EiRKS1_@Base 3.4.3
 _ZN5ArrayISt7complexIdEE8ArrayRepC1Ev@Base 3.4.3
 _ZN5ArrayISt7complexIdEE8ArrayRepC2EPS1_i@Base 3.4.3
 _ZN5ArrayISt7complexIdEE8ArrayRepC2ERKS3_@Base 3.4.3
 _ZN5ArrayISt7complexIdEE8ArrayRepC2Ei@Base 3.4.3
 _ZN5ArrayISt7complexIdEE8ArrayRepC2EiRKS1_@Base 3.4.3
 _ZN5ArrayISt7complexIdEE8ArrayRepC2Ev@Base 3.4.3
 _ZN5ArrayISt7complexIdEE9checkelemERKS_IiE@Base 3.4.3
 _ZN5ArrayISt7complexIdEE9checkelemEi@Base 3.4.3
 _ZN5ArrayISt7complexIdEE9checkelemEii@Base 3.4.3
 _ZN5ArrayISt7complexIdEE9checkelemEiii@Base 3.4.3
 _ZN5ArrayISt7complexIdEE9is_sharedEv@Base 3.4.3
 _ZN5ArrayISt7complexIdEEC1ERK10dim_vector@Base 3.4.3
# template instantiation
 (c++|optional=templateInstantiation)"Array<std::complex<double> >::Array(dim_vector const&, std::complex<double> const&)@Base" 3.4.3
 _ZN5ArrayISt7complexIdEEC1ERKS2_@Base 3.4.3
 _ZN5ArrayISt7complexIdEEC1ERKS2_RK10dim_vector@Base 3.4.3
 _ZN5ArrayISt7complexIdEEC1ERKS2_RK10dim_vectorii@Base 3.4.3
 _ZN5ArrayISt7complexIdEEC1Ei@Base 3.4.3
 _ZN5ArrayISt7complexIdEEC1EiRKS1_@Base 3.4.3
 _ZN5ArrayISt7complexIdEEC1Ev@Base 3.4.3
 _ZN5ArrayISt7complexIdEEC2ERK10dim_vector@Base 3.4.3
# template instantiation
 (c++|optional=templateInstantiation)"Array<std::complex<double> >::Array(dim_vector const&, std::complex<double> const&)@Base" 3.4.3
 _ZN5ArrayISt7complexIdEEC2ERKS2_@Base 3.4.3
 _ZN5ArrayISt7complexIdEEC2ERKS2_RK10dim_vector@Base 3.4.3
 _ZN5ArrayISt7complexIdEEC2ERKS2_RK10dim_vectorii@Base 3.4.3
 _ZN5ArrayISt7complexIdEEC2Ei@Base 3.4.3
 _ZN5ArrayISt7complexIdEEC2EiRKS1_@Base 3.4.3
 _ZN5ArrayISt7complexIdEEC2Ev@Base 3.4.3
 _ZN5ArrayISt7complexIdEED1Ev@Base 3.4.3
 _ZN5ArrayISt7complexIdEED2Ev@Base 3.4.3
 _ZN5ArrayISt7complexIdEEaSERKS2_@Base 3.4.3
 _ZN5ArrayISt7complexIdEEclERKS_IiE@Base 3.4.3
 _ZN5ArrayISt7complexIdEEclEi@Base 3.4.3
 _ZN5ArrayISt7complexIdEEclEii@Base 3.4.3
 _ZN5ArrayISt7complexIdEEclEiii@Base 3.4.3
 _ZN5ArrayISt7complexIfEE11fortran_vecEv@Base 3.4.3
 _ZN5ArrayISt7complexIfEE11make_uniqueEv@Base 3.4.3
 _ZN5ArrayISt7complexIfEE15delete_elementsERK10idx_vector@Base 3.4.3
 _ZN5ArrayISt7complexIfEE15delete_elementsERKS_I10idx_vectorE@Base 3.4.3
 _ZN5ArrayISt7complexIfEE15delete_elementsEiRK10idx_vector@Base 3.4.3
 _ZN5ArrayISt7complexIfEE15maybe_economizeEv@Base 3.4.3
 _ZN5ArrayISt7complexIfEE17resize_fill_valueEv@Base 3.4.3
 _ZN5ArrayISt7complexIfEE19instantiation_guardEv@Base 3.4.3
 _ZN5ArrayISt7complexIfEE19optimize_dimensionsERK10dim_vector@Base 3.4.3
 _ZN5ArrayISt7complexIfEE24chop_trailing_singletonsEv@Base 3.4.3
 _ZN5ArrayISt7complexIfEE3catEiiPKS2_@Base 3.4.3
 _ZN5ArrayISt7complexIfEE4elemERKS_IiE@Base 3.4.3
 _ZN5ArrayISt7complexIfEE4elemEi@Base 3.4.3
 _ZN5ArrayISt7complexIfEE4elemEii@Base 3.4.3
 _ZN5ArrayISt7complexIfEE4elemEiii@Base 3.4.3
 _ZN5ArrayISt7complexIfEE4fillERKS1_@Base 3.4.3
 _ZN5ArrayISt7complexIfEE5clearERK10dim_vector@Base 3.4.3
 _ZN5ArrayISt7complexIfEE5clearEii@Base 3.4.3
 _ZN5ArrayISt7complexIfEE5clearEv@Base 3.4.3
 _ZN5ArrayISt7complexIfEE5xelemERKS_IiE@Base 3.4.3
 _ZN5ArrayISt7complexIfEE5xelemEi@Base 3.4.3
 _ZN5ArrayISt7complexIfEE5xelemEii@Base 3.4.3
 _ZN5ArrayISt7complexIfEE5xelemEiii@Base 3.4.3
 _ZN5ArrayISt7complexIfEE6assignERK10idx_vectorRKS2_RKS1_@Base 3.4.3
 _ZN5ArrayISt7complexIfEE6assignERK10idx_vectorS5_RKS2_RKS1_@Base 3.4.3
 _ZN5ArrayISt7complexIfEE6assignERKS_I10idx_vectorERKS2_RKS1_@Base 3.4.3
 _ZN5ArrayISt7complexIfEE6insertERKS2_RKS_IiE@Base 3.4.3
 _ZN5ArrayISt7complexIfEE6insertERKS2_ii@Base 3.4.3
 _ZN5ArrayISt7complexIfEE6resizeERK10dim_vectorRKS1_@Base 3.4.3
 _ZN5ArrayISt7complexIfEE6resizeEi@Base 3.4.3
 _ZN5ArrayISt7complexIfEE6resizeEiiRKS1_@Base 3.4.3
 _ZN5ArrayISt7complexIfEE7resize1EiRKS1_@Base 3.4.3
 _ZN5ArrayISt7complexIfEE7resize2EiiRKS1_@Base 3.4.3
 _ZN5ArrayISt7complexIfEE8ArrayRepC1EPS1_i@Base 3.4.3
 _ZN5ArrayISt7complexIfEE8ArrayRepC1ERKS3_@Base 3.4.3
 _ZN5ArrayISt7complexIfEE8ArrayRepC1Ei@Base 3.4.3
 _ZN5ArrayISt7complexIfEE8ArrayRepC1EiRKS1_@Base 3.4.3
 _ZN5ArrayISt7complexIfEE8ArrayRepC1Ev@Base 3.4.3
 _ZN5ArrayISt7complexIfEE8ArrayRepC2EPS1_i@Base 3.4.3
 _ZN5ArrayISt7complexIfEE8ArrayRepC2ERKS3_@Base 3.4.3
 _ZN5ArrayISt7complexIfEE8ArrayRepC2Ei@Base 3.4.3
 _ZN5ArrayISt7complexIfEE8ArrayRepC2EiRKS1_@Base 3.4.3
 _ZN5ArrayISt7complexIfEE8ArrayRepC2Ev@Base 3.4.3
 _ZN5ArrayISt7complexIfEE9checkelemERKS_IiE@Base 3.4.3
 _ZN5ArrayISt7complexIfEE9checkelemEi@Base 3.4.3
 _ZN5ArrayISt7complexIfEE9checkelemEii@Base 3.4.3
 _ZN5ArrayISt7complexIfEE9checkelemEiii@Base 3.4.3
 _ZN5ArrayISt7complexIfEE9is_sharedEv@Base 3.4.3
 _ZN5ArrayISt7complexIfEEC1ERK10dim_vector@Base 3.4.3
 _ZN5ArrayISt7complexIfEEC1ERK10dim_vectorRKS1_@Base 3.4.3
 _ZN5ArrayISt7complexIfEEC1ERKS2_@Base 3.4.3
 _ZN5ArrayISt7complexIfEEC1ERKS2_RK10dim_vector@Base 3.4.3
 _ZN5ArrayISt7complexIfEEC1ERKS2_RK10dim_vectorii@Base 3.4.3
 _ZN5ArrayISt7complexIfEEC1Ei@Base 3.4.3
 _ZN5ArrayISt7complexIfEEC1EiRKS1_@Base 3.4.3
 _ZN5ArrayISt7complexIfEEC1Ev@Base 3.4.3
 _ZN5ArrayISt7complexIfEEC2ERK10dim_vector@Base 3.4.3
 _ZN5ArrayISt7complexIfEEC2ERK10dim_vectorRKS1_@Base 3.4.3
 _ZN5ArrayISt7complexIfEEC2ERKS2_@Base 3.4.3
 _ZN5ArrayISt7complexIfEEC2ERKS2_RK10dim_vector@Base 3.4.3
 _ZN5ArrayISt7complexIfEEC2ERKS2_RK10dim_vectorii@Base 3.4.3
 _ZN5ArrayISt7complexIfEEC2Ei@Base 3.4.3
 _ZN5ArrayISt7complexIfEEC2EiRKS1_@Base 3.4.3
 _ZN5ArrayISt7complexIfEEC2Ev@Base 3.4.3
 _ZN5ArrayISt7complexIfEED1Ev@Base 3.4.3
 _ZN5ArrayISt7complexIfEED2Ev@Base 3.4.3
 _ZN5ArrayISt7complexIfEEaSERKS2_@Base 3.4.3
 _ZN5ArrayISt7complexIfEEclERKS_IiE@Base 3.4.3
# template instantiation
 (c++|regex|optional=templateInstantiation)"^Array<.*>::operator\(\).*@Base" 3.4.3
 _ZN5ArrayIbE11fortran_vecEv@Base 3.4.3
 _ZN5ArrayIbE11make_uniqueEv@Base 3.4.3
 _ZN5ArrayIbE15delete_elementsERK10idx_vector@Base 3.4.3
 _ZN5ArrayIbE15delete_elementsERKS_I10idx_vectorE@Base 3.4.3
 _ZN5ArrayIbE15delete_elementsEiRK10idx_vector@Base 3.4.3
 _ZN5ArrayIbE15maybe_economizeEv@Base 3.4.3
 _ZN5ArrayIbE17resize_fill_valueEv@Base 3.4.3
 _ZN5ArrayIbE19instantiation_guardEv@Base 3.4.3
 _ZN5ArrayIbE19optimize_dimensionsERK10dim_vector@Base 3.4.3
 _ZN5ArrayIbE24chop_trailing_singletonsEv@Base 3.4.3
 _ZN5ArrayIbE3catEiiPKS0_@Base 3.4.3
 _ZN5ArrayIbE4elemERKS_IiE@Base 3.4.3
 _ZN5ArrayIbE4elemEi@Base 3.4.3
 _ZN5ArrayIbE4elemEii@Base 3.4.3
 _ZN5ArrayIbE4elemEiii@Base 3.4.3
 _ZN5ArrayIbE4fillERKb@Base 3.4.3
 _ZN5ArrayIbE5clearERK10dim_vector@Base 3.4.3
 _ZN5ArrayIbE5clearEii@Base 3.4.3
 _ZN5ArrayIbE5clearEv@Base 3.4.3
 _ZN5ArrayIbE5xelemERKS_IiE@Base 3.4.3
 _ZN5ArrayIbE5xelemEi@Base 3.4.3
 _ZN5ArrayIbE5xelemEii@Base 3.4.3
 _ZN5ArrayIbE5xelemEiii@Base 3.4.3
 _ZN5ArrayIbE6assignERK10idx_vectorRKS0_RKb@Base 3.4.3
 _ZN5ArrayIbE6assignERK10idx_vectorS3_RKS0_RKb@Base 3.4.3
 _ZN5ArrayIbE6assignERKS_I10idx_vectorERKS0_RKb@Base 3.4.3
 _ZN5ArrayIbE6insertERKS0_RKS_IiE@Base 3.4.3
 _ZN5ArrayIbE6insertERKS0_ii@Base 3.4.3
 _ZN5ArrayIbE6resizeERK10dim_vectorRKb@Base 3.4.3
 _ZN5ArrayIbE6resizeEi@Base 3.4.3
 _ZN5ArrayIbE6resizeEiiRKb@Base 3.4.3
 _ZN5ArrayIbE7resize1EiRKb@Base 3.4.3
 _ZN5ArrayIbE7resize2EiiRKb@Base 3.4.3
 _ZN5ArrayIbE8ArrayRepC1EPbi@Base 3.4.3
 _ZN5ArrayIbE8ArrayRepC1ERKS1_@Base 3.4.3
 _ZN5ArrayIbE8ArrayRepC1Ei@Base 3.4.3
 _ZN5ArrayIbE8ArrayRepC1EiRKb@Base 3.4.3
 _ZN5ArrayIbE8ArrayRepC1Ev@Base 3.4.3
 _ZN5ArrayIbE8ArrayRepC2EPbi@Base 3.4.3
 _ZN5ArrayIbE8ArrayRepC2ERKS1_@Base 3.4.3
 _ZN5ArrayIbE8ArrayRepC2Ei@Base 3.4.3
 _ZN5ArrayIbE8ArrayRepC2EiRKb@Base 3.4.3
 _ZN5ArrayIbE8ArrayRepC2Ev@Base 3.4.3
 _ZN5ArrayIbE9checkelemERKS_IiE@Base 3.4.3
 _ZN5ArrayIbE9checkelemEi@Base 3.4.3
 _ZN5ArrayIbE9checkelemEii@Base 3.4.3
 _ZN5ArrayIbE9checkelemEiii@Base 3.4.3
 _ZN5ArrayIbE9is_sharedEv@Base 3.4.3
 _ZN5ArrayIbEC1ERK10dim_vector@Base 3.4.3
 _ZN5ArrayIbEC1ERK10dim_vectorRKb@Base 3.4.3
 _ZN5ArrayIbEC1ERKS0_@Base 3.4.3
 _ZN5ArrayIbEC1ERKS0_RK10dim_vector@Base 3.4.3
 _ZN5ArrayIbEC1ERKS0_RK10dim_vectorii@Base 3.4.3
 _ZN5ArrayIbEC1Ei@Base 3.4.3
 _ZN5ArrayIbEC1EiRKb@Base 3.4.3
 _ZN5ArrayIbEC1Ev@Base 3.4.3
 _ZN5ArrayIbEC2ERK10dim_vector@Base 3.4.3
 _ZN5ArrayIbEC2ERK10dim_vectorRKb@Base 3.4.3
 _ZN5ArrayIbEC2ERKS0_@Base 3.4.3
 _ZN5ArrayIbEC2ERKS0_RK10dim_vector@Base 3.4.3
 _ZN5ArrayIbEC2ERKS0_RK10dim_vectorii@Base 3.4.3
 _ZN5ArrayIbEC2Ei@Base 3.4.3
 _ZN5ArrayIbEC2EiRKb@Base 3.4.3
 _ZN5ArrayIbEC2Ev@Base 3.4.3
 _ZN5ArrayIbED1Ev@Base 3.4.3
 _ZN5ArrayIbED2Ev@Base 3.4.3
 _ZN5ArrayIbEaSERKS0_@Base 3.4.3
 _ZN5ArrayIbEclERKS_IiE@Base 3.4.3
 _ZN5ArrayIbEclEi@Base 3.4.3
 _ZN5ArrayIbEclEii@Base 3.4.3
 _ZN5ArrayIbEclEiii@Base 3.4.3
 _ZN5ArrayIcE11fortran_vecEv@Base 3.4.3
 _ZN5ArrayIcE11make_uniqueEv@Base 3.4.3
 _ZN5ArrayIcE15delete_elementsERK10idx_vector@Base 3.4.3
 _ZN5ArrayIcE15delete_elementsERKS_I10idx_vectorE@Base 3.4.3
 _ZN5ArrayIcE15delete_elementsEiRK10idx_vector@Base 3.4.3
 _ZN5ArrayIcE15maybe_economizeEv@Base 3.4.3
 _ZN5ArrayIcE17resize_fill_valueEv@Base 3.4.3
 _ZN5ArrayIcE19instantiation_guardEv@Base 3.4.3
 _ZN5ArrayIcE19optimize_dimensionsERK10dim_vector@Base 3.4.3
 _ZN5ArrayIcE24chop_trailing_singletonsEv@Base 3.4.3
 _ZN5ArrayIcE3catEiiPKS0_@Base 3.4.3
 _ZN5ArrayIcE4elemERKS_IiE@Base 3.4.3
 _ZN5ArrayIcE4elemEi@Base 3.4.3
 _ZN5ArrayIcE4elemEii@Base 3.4.3
 _ZN5ArrayIcE4elemEiii@Base 3.4.3
 _ZN5ArrayIcE4fillERKc@Base 3.4.3
 _ZN5ArrayIcE5clearERK10dim_vector@Base 3.4.3
 _ZN5ArrayIcE5clearEii@Base 3.4.3
 _ZN5ArrayIcE5clearEv@Base 3.4.3
 _ZN5ArrayIcE5xelemERKS_IiE@Base 3.4.3
 _ZN5ArrayIcE5xelemEi@Base 3.4.3
 _ZN5ArrayIcE5xelemEii@Base 3.4.3
 _ZN5ArrayIcE5xelemEiii@Base 3.4.3
 _ZN5ArrayIcE6assignERK10idx_vectorRKS0_RKc@Base 3.4.3
 _ZN5ArrayIcE6assignERK10idx_vectorS3_RKS0_RKc@Base 3.4.3
 _ZN5ArrayIcE6assignERKS_I10idx_vectorERKS0_RKc@Base 3.4.3
 _ZN5ArrayIcE6insertERKS0_RKS_IiE@Base 3.4.3
 _ZN5ArrayIcE6insertERKS0_ii@Base 3.4.3
 _ZN5ArrayIcE6resizeERK10dim_vectorRKc@Base 3.4.3
 _ZN5ArrayIcE6resizeEi@Base 3.4.3
 _ZN5ArrayIcE6resizeEiiRKc@Base 3.4.3
 _ZN5ArrayIcE7resize1EiRKc@Base 3.4.3
 _ZN5ArrayIcE7resize2EiiRKc@Base 3.4.3
 _ZN5ArrayIcE8ArrayRepC1EPci@Base 3.4.3
 _ZN5ArrayIcE8ArrayRepC1ERKS1_@Base 3.4.3
 _ZN5ArrayIcE8ArrayRepC1Ei@Base 3.4.3
 _ZN5ArrayIcE8ArrayRepC1EiRKc@Base 3.4.3
 _ZN5ArrayIcE8ArrayRepC1Ev@Base 3.4.3
 _ZN5ArrayIcE8ArrayRepC2EPci@Base 3.4.3
 _ZN5ArrayIcE8ArrayRepC2ERKS1_@Base 3.4.3
 _ZN5ArrayIcE8ArrayRepC2Ei@Base 3.4.3
 _ZN5ArrayIcE8ArrayRepC2EiRKc@Base 3.4.3
 _ZN5ArrayIcE8ArrayRepC2Ev@Base 3.4.3
 _ZN5ArrayIcE9checkelemERKS_IiE@Base 3.4.3
 _ZN5ArrayIcE9checkelemEi@Base 3.4.3
 _ZN5ArrayIcE9checkelemEii@Base 3.4.3
 _ZN5ArrayIcE9checkelemEiii@Base 3.4.3
 _ZN5ArrayIcE9is_sharedEv@Base 3.4.3
 _ZN5ArrayIcEC1ERK10dim_vector@Base 3.4.3
 _ZN5ArrayIcEC1ERK10dim_vectorRKc@Base 3.4.3
 _ZN5ArrayIcEC1ERKS0_@Base 3.4.3
 _ZN5ArrayIcEC1ERKS0_RK10dim_vector@Base 3.4.3
 _ZN5ArrayIcEC1ERKS0_RK10dim_vectorii@Base 3.4.3
 _ZN5ArrayIcEC1Ei@Base 3.4.3
 _ZN5ArrayIcEC1EiRKc@Base 3.4.3
 _ZN5ArrayIcEC1Ev@Base 3.4.3
 _ZN5ArrayIcEC2ERK10dim_vector@Base 3.4.3
 _ZN5ArrayIcEC2ERK10dim_vectorRKc@Base 3.4.3
 _ZN5ArrayIcEC2ERKS0_@Base 3.4.3
 _ZN5ArrayIcEC2ERKS0_RK10dim_vector@Base 3.4.3
 _ZN5ArrayIcEC2ERKS0_RK10dim_vectorii@Base 3.4.3
 _ZN5ArrayIcEC2Ei@Base 3.4.3
 _ZN5ArrayIcEC2EiRKc@Base 3.4.3
 _ZN5ArrayIcEC2Ev@Base 3.4.3
 _ZN5ArrayIcED1Ev@Base 3.4.3
 _ZN5ArrayIcED2Ev@Base 3.4.3
 _ZN5ArrayIcEaSERKS0_@Base 3.4.3
 _ZN5ArrayIcEclERKS_IiE@Base 3.4.3
 _ZN5ArrayIcEclEi@Base 3.4.3
 _ZN5ArrayIcEclEii@Base 3.4.3
 _ZN5ArrayIcEclEiii@Base 3.4.3
 _ZN5ArrayIdE11fortran_vecEv@Base 3.4.3
 _ZN5ArrayIdE11make_uniqueEv@Base 3.4.3
 _ZN5ArrayIdE15delete_elementsERK10idx_vector@Base 3.4.3
 _ZN5ArrayIdE15delete_elementsERKS_I10idx_vectorE@Base 3.4.3
 _ZN5ArrayIdE15delete_elementsEiRK10idx_vector@Base 3.4.3
 _ZN5ArrayIdE15maybe_economizeEv@Base 3.4.3
 _ZN5ArrayIdE17resize_fill_valueEv@Base 3.4.3
 _ZN5ArrayIdE19instantiation_guardEv@Base 3.4.3
 _ZN5ArrayIdE19optimize_dimensionsERK10dim_vector@Base 3.4.3
 _ZN5ArrayIdE24chop_trailing_singletonsEv@Base 3.4.3
 _ZN5ArrayIdE3catEiiPKS0_@Base 3.4.3
 _ZN5ArrayIdE4elemERKS_IiE@Base 3.4.3
 _ZN5ArrayIdE4elemEi@Base 3.4.3
 _ZN5ArrayIdE4elemEii@Base 3.4.3
 _ZN5ArrayIdE4elemEiii@Base 3.4.3
 _ZN5ArrayIdE4fillERKd@Base 3.4.3
 _ZN5ArrayIdE5clearERK10dim_vector@Base 3.4.3
 _ZN5ArrayIdE5clearEii@Base 3.4.3
 _ZN5ArrayIdE5clearEv@Base 3.4.3
 _ZN5ArrayIdE5xelemERKS_IiE@Base 3.4.3
 _ZN5ArrayIdE5xelemEi@Base 3.4.3
 _ZN5ArrayIdE5xelemEii@Base 3.4.3
 _ZN5ArrayIdE5xelemEiii@Base 3.4.3
 _ZN5ArrayIdE6assignERK10idx_vectorRKS0_RKd@Base 3.4.3
 _ZN5ArrayIdE6assignERK10idx_vectorS3_RKS0_RKd@Base 3.4.3
 _ZN5ArrayIdE6assignERKS_I10idx_vectorERKS0_RKd@Base 3.4.3
 _ZN5ArrayIdE6insertERKS0_RKS_IiE@Base 3.4.3
 _ZN5ArrayIdE6insertERKS0_ii@Base 3.4.3
 _ZN5ArrayIdE6resizeERK10dim_vectorRKd@Base 3.4.3
 _ZN5ArrayIdE6resizeEi@Base 3.4.3
 _ZN5ArrayIdE6resizeEiiRKd@Base 3.4.3
 _ZN5ArrayIdE7resize1EiRKd@Base 3.4.3
 _ZN5ArrayIdE7resize2EiiRKd@Base 3.4.3
 _ZN5ArrayIdE8ArrayRepC1EPdi@Base 3.4.3
 _ZN5ArrayIdE8ArrayRepC1ERKS1_@Base 3.4.3
 _ZN5ArrayIdE8ArrayRepC1Ei@Base 3.4.3
 _ZN5ArrayIdE8ArrayRepC1EiRKd@Base 3.4.3
 _ZN5ArrayIdE8ArrayRepC1Ev@Base 3.4.3
 _ZN5ArrayIdE8ArrayRepC2EPdi@Base 3.4.3
 _ZN5ArrayIdE8ArrayRepC2ERKS1_@Base 3.4.3
 _ZN5ArrayIdE8ArrayRepC2Ei@Base 3.4.3
 _ZN5ArrayIdE8ArrayRepC2EiRKd@Base 3.4.3
 _ZN5ArrayIdE8ArrayRepC2Ev@Base 3.4.3
 _ZN5ArrayIdE9checkelemERKS_IiE@Base 3.4.3
 _ZN5ArrayIdE9checkelemEi@Base 3.4.3
 _ZN5ArrayIdE9checkelemEii@Base 3.4.3
 _ZN5ArrayIdE9checkelemEiii@Base 3.4.3
 _ZN5ArrayIdE9is_sharedEv@Base 3.4.3
 _ZN5ArrayIdEC1ERK10dim_vector@Base 3.4.3
 _ZN5ArrayIdEC1ERK10dim_vectorRKd@Base 3.4.3
 _ZN5ArrayIdEC1ERKS0_@Base 3.4.3
 _ZN5ArrayIdEC1ERKS0_RK10dim_vector@Base 3.4.3
 _ZN5ArrayIdEC1ERKS0_RK10dim_vectorii@Base 3.4.3
 _ZN5ArrayIdEC1Ei@Base 3.4.3
 _ZN5ArrayIdEC1EiRKd@Base 3.4.3
 _ZN5ArrayIdEC1Ev@Base 3.4.3
 _ZN5ArrayIdEC2ERK10dim_vector@Base 3.4.3
 _ZN5ArrayIdEC2ERK10dim_vectorRKd@Base 3.4.3
 _ZN5ArrayIdEC2ERKS0_@Base 3.4.3
 _ZN5ArrayIdEC2ERKS0_RK10dim_vector@Base 3.4.3
 _ZN5ArrayIdEC2ERKS0_RK10dim_vectorii@Base 3.4.3
 _ZN5ArrayIdEC2Ei@Base 3.4.3
 _ZN5ArrayIdEC2EiRKd@Base 3.4.3
 _ZN5ArrayIdEC2Ev@Base 3.4.3
 _ZN5ArrayIdED1Ev@Base 3.4.3
 _ZN5ArrayIdED2Ev@Base 3.4.3
 _ZN5ArrayIdEaSERKS0_@Base 3.4.3
 _ZN5ArrayIdEclERKS_IiE@Base 3.4.3
 _ZN5ArrayIdEclEi@Base 3.4.3
 _ZN5ArrayIdEclEii@Base 3.4.3
 _ZN5ArrayIdEclEiii@Base 3.4.3
 _ZN5ArrayIfE11fortran_vecEv@Base 3.4.3
 _ZN5ArrayIfE11make_uniqueEv@Base 3.4.3
 _ZN5ArrayIfE15delete_elementsERK10idx_vector@Base 3.4.3
 _ZN5ArrayIfE15delete_elementsERKS_I10idx_vectorE@Base 3.4.3
 _ZN5ArrayIfE15delete_elementsEiRK10idx_vector@Base 3.4.3
 _ZN5ArrayIfE15maybe_economizeEv@Base 3.4.3
 _ZN5ArrayIfE17resize_fill_valueEv@Base 3.4.3
 _ZN5ArrayIfE19instantiation_guardEv@Base 3.4.3
 _ZN5ArrayIfE19optimize_dimensionsERK10dim_vector@Base 3.4.3
 _ZN5ArrayIfE24chop_trailing_singletonsEv@Base 3.4.3
 _ZN5ArrayIfE3catEiiPKS0_@Base 3.4.3
 _ZN5ArrayIfE4elemERKS_IiE@Base 3.4.3
 _ZN5ArrayIfE4elemEi@Base 3.4.3
 _ZN5ArrayIfE4elemEii@Base 3.4.3
 _ZN5ArrayIfE4elemEiii@Base 3.4.3
 _ZN5ArrayIfE4fillERKf@Base 3.4.3
 _ZN5ArrayIfE5clearERK10dim_vector@Base 3.4.3
 _ZN5ArrayIfE5clearEii@Base 3.4.3
 _ZN5ArrayIfE5clearEv@Base 3.4.3
 _ZN5ArrayIfE5xelemERKS_IiE@Base 3.4.3
 _ZN5ArrayIfE5xelemEi@Base 3.4.3
 _ZN5ArrayIfE5xelemEii@Base 3.4.3
 _ZN5ArrayIfE5xelemEiii@Base 3.4.3
 _ZN5ArrayIfE6assignERK10idx_vectorRKS0_RKf@Base 3.4.3
 _ZN5ArrayIfE6assignERK10idx_vectorS3_RKS0_RKf@Base 3.4.3
 _ZN5ArrayIfE6assignERKS_I10idx_vectorERKS0_RKf@Base 3.4.3
 _ZN5ArrayIfE6insertERKS0_RKS_IiE@Base 3.4.3
 _ZN5ArrayIfE6insertERKS0_ii@Base 3.4.3
 _ZN5ArrayIfE6resizeERK10dim_vectorRKf@Base 3.4.3
 _ZN5ArrayIfE6resizeEi@Base 3.4.3
 _ZN5ArrayIfE6resizeEiiRKf@Base 3.4.3
 _ZN5ArrayIfE7resize1EiRKf@Base 3.4.3
 _ZN5ArrayIfE7resize2EiiRKf@Base 3.4.3
 _ZN5ArrayIfE8ArrayRepC1EPfi@Base 3.4.3
 _ZN5ArrayIfE8ArrayRepC1ERKS1_@Base 3.4.3
 _ZN5ArrayIfE8ArrayRepC1Ei@Base 3.4.3
 _ZN5ArrayIfE8ArrayRepC1EiRKf@Base 3.4.3
 _ZN5ArrayIfE8ArrayRepC1Ev@Base 3.4.3
 _ZN5ArrayIfE8ArrayRepC2EPfi@Base 3.4.3
 _ZN5ArrayIfE8ArrayRepC2ERKS1_@Base 3.4.3
 _ZN5ArrayIfE8ArrayRepC2Ei@Base 3.4.3
 _ZN5ArrayIfE8ArrayRepC2EiRKf@Base 3.4.3
 _ZN5ArrayIfE8ArrayRepC2Ev@Base 3.4.3
 _ZN5ArrayIfE9checkelemERKS_IiE@Base 3.4.3
 _ZN5ArrayIfE9checkelemEi@Base 3.4.3
 _ZN5ArrayIfE9checkelemEii@Base 3.4.3
 _ZN5ArrayIfE9checkelemEiii@Base 3.4.3
 _ZN5ArrayIfE9is_sharedEv@Base 3.4.3
 _ZN5ArrayIfEC1ERK10dim_vector@Base 3.4.3
 _ZN5ArrayIfEC1ERK10dim_vectorRKf@Base 3.4.3
 _ZN5ArrayIfEC1ERKS0_@Base 3.4.3
 _ZN5ArrayIfEC1ERKS0_RK10dim_vector@Base 3.4.3
 _ZN5ArrayIfEC1ERKS0_RK10dim_vectorii@Base 3.4.3
 _ZN5ArrayIfEC1Ei@Base 3.4.3
 _ZN5ArrayIfEC1EiRKf@Base 3.4.3
 _ZN5ArrayIfEC1Ev@Base 3.4.3
 _ZN5ArrayIfEC2ERK10dim_vector@Base 3.4.3
 _ZN5ArrayIfEC2ERK10dim_vectorRKf@Base 3.4.3
 _ZN5ArrayIfEC2ERKS0_@Base 3.4.3
 _ZN5ArrayIfEC2ERKS0_RK10dim_vector@Base 3.4.3
 _ZN5ArrayIfEC2ERKS0_RK10dim_vectorii@Base 3.4.3
 _ZN5ArrayIfEC2Ei@Base 3.4.3
 _ZN5ArrayIfEC2EiRKf@Base 3.4.3
 _ZN5ArrayIfEC2Ev@Base 3.4.3
 _ZN5ArrayIfED1Ev@Base 3.4.3
 _ZN5ArrayIfED2Ev@Base 3.4.3
 _ZN5ArrayIfEaSERKS0_@Base 3.4.3
 _ZN5ArrayIfEclERKS_IiE@Base 3.4.3
 _ZN5ArrayIfEclEi@Base 3.4.3
 _ZN5ArrayIfEclEii@Base 3.4.3
 _ZN5ArrayIfEclEiii@Base 3.4.3
 _ZN5ArrayIiE11fortran_vecEv@Base 3.4.3
 _ZN5ArrayIiE11make_uniqueEv@Base 3.4.3
 _ZN5ArrayIiE15delete_elementsERK10idx_vector@Base 3.4.3
 _ZN5ArrayIiE15delete_elementsERKS_I10idx_vectorE@Base 3.4.3
 _ZN5ArrayIiE15delete_elementsEiRK10idx_vector@Base 3.4.3
 _ZN5ArrayIiE15maybe_economizeEv@Base 3.4.3
 _ZN5ArrayIiE17resize_fill_valueEv@Base 3.4.3
 _ZN5ArrayIiE19instantiation_guardEv@Base 3.4.3
 _ZN5ArrayIiE19optimize_dimensionsERK10dim_vector@Base 3.4.3
 _ZN5ArrayIiE24chop_trailing_singletonsEv@Base 3.4.3
 _ZN5ArrayIiE3catEiiPKS0_@Base 3.4.3
 _ZN5ArrayIiE4elemERKS0_@Base 3.4.3
 _ZN5ArrayIiE4elemEi@Base 3.4.3
 _ZN5ArrayIiE4elemEii@Base 3.4.3
 _ZN5ArrayIiE4elemEiii@Base 3.4.3
 _ZN5ArrayIiE4fillERKi@Base 3.4.3
 _ZN5ArrayIiE5clearERK10dim_vector@Base 3.4.3
 _ZN5ArrayIiE5clearEii@Base 3.4.3
 _ZN5ArrayIiE5clearEv@Base 3.4.3
 _ZN5ArrayIiE5xelemERKS0_@Base 3.4.3
 _ZN5ArrayIiE5xelemEi@Base 3.4.3
 _ZN5ArrayIiE5xelemEii@Base 3.4.3
 _ZN5ArrayIiE5xelemEiii@Base 3.4.3
 _ZN5ArrayIiE6assignERK10idx_vectorRKS0_RKi@Base 3.4.3
 _ZN5ArrayIiE6assignERK10idx_vectorS3_RKS0_RKi@Base 3.4.3
 _ZN5ArrayIiE6assignERKS_I10idx_vectorERKS0_RKi@Base 3.4.3
 _ZN5ArrayIiE6insertERKS0_S2_@Base 3.4.3
 _ZN5ArrayIiE6insertERKS0_ii@Base 3.4.3
 _ZN5ArrayIiE6resizeERK10dim_vectorRKi@Base 3.4.3
 _ZN5ArrayIiE6resizeEi@Base 3.4.3
 _ZN5ArrayIiE6resizeEiiRKi@Base 3.4.3
 _ZN5ArrayIiE7resize1EiRKi@Base 3.4.3
 _ZN5ArrayIiE7resize2EiiRKi@Base 3.4.3
 _ZN5ArrayIiE8ArrayRepC1EPii@Base 3.4.3
 _ZN5ArrayIiE8ArrayRepC1ERKS1_@Base 3.4.3
 _ZN5ArrayIiE8ArrayRepC1Ei@Base 3.4.3
 _ZN5ArrayIiE8ArrayRepC1EiRKi@Base 3.4.3
 _ZN5ArrayIiE8ArrayRepC1Ev@Base 3.4.3
 _ZN5ArrayIiE8ArrayRepC2EPii@Base 3.4.3
 _ZN5ArrayIiE8ArrayRepC2ERKS1_@Base 3.4.3
 _ZN5ArrayIiE8ArrayRepC2Ei@Base 3.4.3
 _ZN5ArrayIiE8ArrayRepC2EiRKi@Base 3.4.3
 _ZN5ArrayIiE8ArrayRepC2Ev@Base 3.4.3
 _ZN5ArrayIiE9checkelemERKS0_@Base 3.4.3
 _ZN5ArrayIiE9checkelemEi@Base 3.4.3
 _ZN5ArrayIiE9checkelemEii@Base 3.4.3
 _ZN5ArrayIiE9checkelemEiii@Base 3.4.3
 _ZN5ArrayIiE9is_sharedEv@Base 3.4.3
 _ZN5ArrayIiEC1ERK10dim_vector@Base 3.4.3
 _ZN5ArrayIiEC1ERK10dim_vectorRKi@Base 3.4.3
 _ZN5ArrayIiEC1ERKS0_@Base 3.4.3
 _ZN5ArrayIiEC1ERKS0_RK10dim_vector@Base 3.4.3
 _ZN5ArrayIiEC1ERKS0_RK10dim_vectorii@Base 3.4.3
 _ZN5ArrayIiEC1Ei@Base 3.4.3
 _ZN5ArrayIiEC1EiRKi@Base 3.4.3
 _ZN5ArrayIiEC1Ev@Base 3.4.3
 _ZN5ArrayIiEC2ERK10dim_vector@Base 3.4.3
 _ZN5ArrayIiEC2ERK10dim_vectorRKi@Base 3.4.3
 _ZN5ArrayIiEC2ERKS0_@Base 3.4.3
 _ZN5ArrayIiEC2ERKS0_RK10dim_vector@Base 3.4.3
 _ZN5ArrayIiEC2ERKS0_RK10dim_vectorii@Base 3.4.3
 _ZN5ArrayIiEC2Ei@Base 3.4.3
 _ZN5ArrayIiEC2EiRKi@Base 3.4.3
 _ZN5ArrayIiEC2Ev@Base 3.4.3
 _ZN5ArrayIiED1Ev@Base 3.4.3
 _ZN5ArrayIiED2Ev@Base 3.4.3
 _ZN5ArrayIiEaSERKS0_@Base 3.4.3
 _ZN5ArrayIiEclERKS0_@Base 3.4.3
 _ZN5ArrayIiEclEi@Base 3.4.3
 _ZN5ArrayIiEclEii@Base 3.4.3
 _ZN5ArrayIiEclEiii@Base 3.4.3
 _ZN5ArrayIlE11fortran_vecEv@Base 3.4.3
 _ZN5ArrayIlE11make_uniqueEv@Base 3.4.3
 _ZN5ArrayIlE15delete_elementsERK10idx_vector@Base 3.4.3
 _ZN5ArrayIlE15delete_elementsERKS_I10idx_vectorE@Base 3.4.3
 _ZN5ArrayIlE15delete_elementsEiRK10idx_vector@Base 3.4.3
 _ZN5ArrayIlE15maybe_economizeEv@Base 3.4.3
 _ZN5ArrayIlE17resize_fill_valueEv@Base 3.4.3
 _ZN5ArrayIlE19instantiation_guardEv@Base 3.4.3
 _ZN5ArrayIlE19optimize_dimensionsERK10dim_vector@Base 3.4.3
 _ZN5ArrayIlE24chop_trailing_singletonsEv@Base 3.4.3
 _ZN5ArrayIlE3catEiiPKS0_@Base 3.4.3
 _ZN5ArrayIlE4elemERKS_IiE@Base 3.4.3
 _ZN5ArrayIlE4elemEi@Base 3.4.3
 _ZN5ArrayIlE4elemEii@Base 3.4.3
 _ZN5ArrayIlE4elemEiii@Base 3.4.3
 _ZN5ArrayIlE4fillERKl@Base 3.4.3
 _ZN5ArrayIlE5clearERK10dim_vector@Base 3.4.3
 _ZN5ArrayIlE5clearEii@Base 3.4.3
 _ZN5ArrayIlE5clearEv@Base 3.4.3
 _ZN5ArrayIlE5xelemERKS_IiE@Base 3.4.3
 _ZN5ArrayIlE5xelemEi@Base 3.4.3
 _ZN5ArrayIlE5xelemEii@Base 3.4.3
 _ZN5ArrayIlE5xelemEiii@Base 3.4.3
 _ZN5ArrayIlE6assignERK10idx_vectorRKS0_RKl@Base 3.4.3
 _ZN5ArrayIlE6assignERK10idx_vectorS3_RKS0_RKl@Base 3.4.3
 _ZN5ArrayIlE6assignERKS_I10idx_vectorERKS0_RKl@Base 3.4.3
 _ZN5ArrayIlE6insertERKS0_RKS_IiE@Base 3.4.3
 _ZN5ArrayIlE6insertERKS0_ii@Base 3.4.3
 _ZN5ArrayIlE6resizeERK10dim_vectorRKl@Base 3.4.3
 _ZN5ArrayIlE6resizeEi@Base 3.4.3
 _ZN5ArrayIlE6resizeEiiRKl@Base 3.4.3
 _ZN5ArrayIlE7resize1EiRKl@Base 3.4.3
 _ZN5ArrayIlE7resize2EiiRKl@Base 3.4.3
 _ZN5ArrayIlE8ArrayRepC1EPli@Base 3.4.3
 _ZN5ArrayIlE8ArrayRepC1ERKS1_@Base 3.4.3
 _ZN5ArrayIlE8ArrayRepC1Ei@Base 3.4.3
 _ZN5ArrayIlE8ArrayRepC1EiRKl@Base 3.4.3
 _ZN5ArrayIlE8ArrayRepC1Ev@Base 3.4.3
 _ZN5ArrayIlE8ArrayRepC2EPli@Base 3.4.3
 _ZN5ArrayIlE8ArrayRepC2ERKS1_@Base 3.4.3
 _ZN5ArrayIlE8ArrayRepC2Ei@Base 3.4.3
 _ZN5ArrayIlE8ArrayRepC2EiRKl@Base 3.4.3
 _ZN5ArrayIlE8ArrayRepC2Ev@Base 3.4.3
 _ZN5ArrayIlE9checkelemERKS_IiE@Base 3.4.3
 _ZN5ArrayIlE9checkelemEi@Base 3.4.3
 _ZN5ArrayIlE9checkelemEii@Base 3.4.3
 _ZN5ArrayIlE9checkelemEiii@Base 3.4.3
 _ZN5ArrayIlE9is_sharedEv@Base 3.4.3
 _ZN5ArrayIlEC1ERK10dim_vector@Base 3.4.3
 _ZN5ArrayIlEC1ERK10dim_vectorRKl@Base 3.4.3
 _ZN5ArrayIlEC1ERKS0_@Base 3.4.3
 _ZN5ArrayIlEC1ERKS0_RK10dim_vector@Base 3.4.3
 _ZN5ArrayIlEC1ERKS0_RK10dim_vectorii@Base 3.4.3
 _ZN5ArrayIlEC1Ei@Base 3.4.3
 _ZN5ArrayIlEC1EiRKl@Base 3.4.3
 _ZN5ArrayIlEC1Ev@Base 3.4.3
 _ZN5ArrayIlEC2ERK10dim_vector@Base 3.4.3
 _ZN5ArrayIlEC2ERK10dim_vectorRKl@Base 3.4.3
 _ZN5ArrayIlEC2ERKS0_@Base 3.4.3
 _ZN5ArrayIlEC2ERKS0_RK10dim_vector@Base 3.4.3
 _ZN5ArrayIlEC2ERKS0_RK10dim_vectorii@Base 3.4.3
 _ZN5ArrayIlEC2Ei@Base 3.4.3
 _ZN5ArrayIlEC2EiRKl@Base 3.4.3
 _ZN5ArrayIlEC2Ev@Base 3.4.3
 _ZN5ArrayIlED1Ev@Base 3.4.3
 _ZN5ArrayIlED2Ev@Base 3.4.3
 _ZN5ArrayIlEaSERKS0_@Base 3.4.3
 _ZN5ArrayIlEclERKS_IiE@Base 3.4.3
 _ZN5ArrayIlEclEi@Base 3.4.3
 _ZN5ArrayIlEclEii@Base 3.4.3
 _ZN5ArrayIlEclEiii@Base 3.4.3
 _ZN5ArrayIsE11fortran_vecEv@Base 3.4.3
 _ZN5ArrayIsE11make_uniqueEv@Base 3.4.3
 _ZN5ArrayIsE15delete_elementsERK10idx_vector@Base 3.4.3
 _ZN5ArrayIsE15delete_elementsERKS_I10idx_vectorE@Base 3.4.3
 _ZN5ArrayIsE15delete_elementsEiRK10idx_vector@Base 3.4.3
 _ZN5ArrayIsE15maybe_economizeEv@Base 3.4.3
 _ZN5ArrayIsE17resize_fill_valueEv@Base 3.4.3
 _ZN5ArrayIsE19instantiation_guardEv@Base 3.4.3
 _ZN5ArrayIsE19optimize_dimensionsERK10dim_vector@Base 3.4.3
 _ZN5ArrayIsE24chop_trailing_singletonsEv@Base 3.4.3
 _ZN5ArrayIsE3catEiiPKS0_@Base 3.4.3
 _ZN5ArrayIsE4elemERKS_IiE@Base 3.4.3
 _ZN5ArrayIsE4elemEi@Base 3.4.3
 _ZN5ArrayIsE4elemEii@Base 3.4.3
 _ZN5ArrayIsE4elemEiii@Base 3.4.3
 _ZN5ArrayIsE4fillERKs@Base 3.4.3
 _ZN5ArrayIsE5clearERK10dim_vector@Base 3.4.3
 _ZN5ArrayIsE5clearEii@Base 3.4.3
 _ZN5ArrayIsE5clearEv@Base 3.4.3
 _ZN5ArrayIsE5xelemERKS_IiE@Base 3.4.3
 _ZN5ArrayIsE5xelemEi@Base 3.4.3
 _ZN5ArrayIsE5xelemEii@Base 3.4.3
 _ZN5ArrayIsE5xelemEiii@Base 3.4.3
 _ZN5ArrayIsE6assignERK10idx_vectorRKS0_RKs@Base 3.4.3
 _ZN5ArrayIsE6assignERK10idx_vectorS3_RKS0_RKs@Base 3.4.3
 _ZN5ArrayIsE6assignERKS_I10idx_vectorERKS0_RKs@Base 3.4.3
 _ZN5ArrayIsE6insertERKS0_RKS_IiE@Base 3.4.3
 _ZN5ArrayIsE6insertERKS0_ii@Base 3.4.3
 _ZN5ArrayIsE6resizeERK10dim_vectorRKs@Base 3.4.3
 _ZN5ArrayIsE6resizeEi@Base 3.4.3
 _ZN5ArrayIsE6resizeEiiRKs@Base 3.4.3
 _ZN5ArrayIsE7resize1EiRKs@Base 3.4.3
 _ZN5ArrayIsE7resize2EiiRKs@Base 3.4.3
 _ZN5ArrayIsE8ArrayRepC1EPsi@Base 3.4.3
 _ZN5ArrayIsE8ArrayRepC1ERKS1_@Base 3.4.3
 _ZN5ArrayIsE8ArrayRepC1Ei@Base 3.4.3
 _ZN5ArrayIsE8ArrayRepC1EiRKs@Base 3.4.3
 _ZN5ArrayIsE8ArrayRepC1Ev@Base 3.4.3
 _ZN5ArrayIsE8ArrayRepC2EPsi@Base 3.4.3
 _ZN5ArrayIsE8ArrayRepC2ERKS1_@Base 3.4.3
 _ZN5ArrayIsE8ArrayRepC2Ei@Base 3.4.3
 _ZN5ArrayIsE8ArrayRepC2EiRKs@Base 3.4.3
 _ZN5ArrayIsE8ArrayRepC2Ev@Base 3.4.3
 _ZN5ArrayIsE9checkelemERKS_IiE@Base 3.4.3
 _ZN5ArrayIsE9checkelemEi@Base 3.4.3
 _ZN5ArrayIsE9checkelemEii@Base 3.4.3
 _ZN5ArrayIsE9checkelemEiii@Base 3.4.3
 _ZN5ArrayIsE9is_sharedEv@Base 3.4.3
 _ZN5ArrayIsEC1ERK10dim_vector@Base 3.4.3
 _ZN5ArrayIsEC1ERK10dim_vectorRKs@Base 3.4.3
 _ZN5ArrayIsEC1ERKS0_@Base 3.4.3
 _ZN5ArrayIsEC1ERKS0_RK10dim_vector@Base 3.4.3
 _ZN5ArrayIsEC1ERKS0_RK10dim_vectorii@Base 3.4.3
 _ZN5ArrayIsEC1Ei@Base 3.4.3
 _ZN5ArrayIsEC1EiRKs@Base 3.4.3
 _ZN5ArrayIsEC1Ev@Base 3.4.3
 _ZN5ArrayIsEC2ERK10dim_vector@Base 3.4.3
 _ZN5ArrayIsEC2ERK10dim_vectorRKs@Base 3.4.3
 _ZN5ArrayIsEC2ERKS0_@Base 3.4.3
 _ZN5ArrayIsEC2ERKS0_RK10dim_vector@Base 3.4.3
 _ZN5ArrayIsEC2ERKS0_RK10dim_vectorii@Base 3.4.3
 _ZN5ArrayIsEC2Ei@Base 3.4.3
 _ZN5ArrayIsEC2EiRKs@Base 3.4.3
 _ZN5ArrayIsEC2Ev@Base 3.4.3
 _ZN5ArrayIsED1Ev@Base 3.4.3
 _ZN5ArrayIsED2Ev@Base 3.4.3
 _ZN5ArrayIsEaSERKS0_@Base 3.4.3
 _ZN5ArrayIsEclERKS_IiE@Base 3.4.3
 _ZN5ArrayIsEclEi@Base 3.4.3
 _ZN5ArrayIsEclEii@Base 3.4.3
 _ZN5ArrayIsEclEiii@Base 3.4.3
 _ZN5ArrayIxE11fortran_vecEv@Base 3.4.3
 _ZN5ArrayIxE11make_uniqueEv@Base 3.4.3
 _ZN5ArrayIxE15delete_elementsERK10idx_vector@Base 3.4.3
 _ZN5ArrayIxE15delete_elementsERKS_I10idx_vectorE@Base 3.4.3
 _ZN5ArrayIxE15delete_elementsEiRK10idx_vector@Base 3.4.3
 _ZN5ArrayIxE15maybe_economizeEv@Base 3.4.3
 _ZN5ArrayIxE17resize_fill_valueEv@Base 3.4.3
 _ZN5ArrayIxE19instantiation_guardEv@Base 3.4.3
 _ZN5ArrayIxE19optimize_dimensionsERK10dim_vector@Base 3.4.3
 _ZN5ArrayIxE24chop_trailing_singletonsEv@Base 3.4.3
 _ZN5ArrayIxE3catEiiPKS0_@Base 3.4.3
 _ZN5ArrayIxE4elemERKS_IiE@Base 3.4.3
 _ZN5ArrayIxE4elemEi@Base 3.4.3
 _ZN5ArrayIxE4elemEii@Base 3.4.3
 _ZN5ArrayIxE4elemEiii@Base 3.4.3
 _ZN5ArrayIxE4fillERKx@Base 3.4.3
 _ZN5ArrayIxE5clearERK10dim_vector@Base 3.4.3
 _ZN5ArrayIxE5clearEii@Base 3.4.3
 _ZN5ArrayIxE5clearEv@Base 3.4.3
 _ZN5ArrayIxE5xelemERKS_IiE@Base 3.4.3
 _ZN5ArrayIxE5xelemEi@Base 3.4.3
 _ZN5ArrayIxE5xelemEii@Base 3.4.3
 _ZN5ArrayIxE5xelemEiii@Base 3.4.3
 _ZN5ArrayIxE6assignERK10idx_vectorRKS0_RKx@Base 3.4.3
 _ZN5ArrayIxE6assignERK10idx_vectorS3_RKS0_RKx@Base 3.4.3
 _ZN5ArrayIxE6assignERKS_I10idx_vectorERKS0_RKx@Base 3.4.3
 _ZN5ArrayIxE6insertERKS0_RKS_IiE@Base 3.4.3
 _ZN5ArrayIxE6insertERKS0_ii@Base 3.4.3
 _ZN5ArrayIxE6resizeERK10dim_vectorRKx@Base 3.4.3
 _ZN5ArrayIxE6resizeEi@Base 3.4.3
 _ZN5ArrayIxE6resizeEiiRKx@Base 3.4.3
 _ZN5ArrayIxE7resize1EiRKx@Base 3.4.3
 _ZN5ArrayIxE7resize2EiiRKx@Base 3.4.3
 _ZN5ArrayIxE8ArrayRepC1EPxi@Base 3.4.3
 _ZN5ArrayIxE8ArrayRepC1ERKS1_@Base 3.4.3
 _ZN5ArrayIxE8ArrayRepC1Ei@Base 3.4.3
 _ZN5ArrayIxE8ArrayRepC1EiRKx@Base 3.4.3
 _ZN5ArrayIxE8ArrayRepC1Ev@Base 3.4.3
 _ZN5ArrayIxE8ArrayRepC2EPxi@Base 3.4.3
 _ZN5ArrayIxE8ArrayRepC2ERKS1_@Base 3.4.3
 _ZN5ArrayIxE8ArrayRepC2Ei@Base 3.4.3
 _ZN5ArrayIxE8ArrayRepC2EiRKx@Base 3.4.3
 _ZN5ArrayIxE8ArrayRepC2Ev@Base 3.4.3
 _ZN5ArrayIxE9checkelemERKS_IiE@Base 3.4.3
 _ZN5ArrayIxE9checkelemEi@Base 3.4.3
 _ZN5ArrayIxE9checkelemEii@Base 3.4.3
 _ZN5ArrayIxE9checkelemEiii@Base 3.4.3
 _ZN5ArrayIxE9is_sharedEv@Base 3.4.3
 _ZN5ArrayIxEC1ERK10dim_vector@Base 3.4.3
 _ZN5ArrayIxEC1ERK10dim_vectorRKx@Base 3.4.3
 _ZN5ArrayIxEC1ERKS0_@Base 3.4.3
 _ZN5ArrayIxEC1ERKS0_RK10dim_vector@Base 3.4.3
 _ZN5ArrayIxEC1ERKS0_RK10dim_vectorii@Base 3.4.3
 _ZN5ArrayIxEC1Ei@Base 3.4.3
 _ZN5ArrayIxEC1EiRKx@Base 3.4.3
 _ZN5ArrayIxEC1Ev@Base 3.4.3
 _ZN5ArrayIxEC2ERK10dim_vector@Base 3.4.3
 _ZN5ArrayIxEC2ERK10dim_vectorRKx@Base 3.4.3
 _ZN5ArrayIxEC2ERKS0_@Base 3.4.3
 _ZN5ArrayIxEC2ERKS0_RK10dim_vector@Base 3.4.3
 _ZN5ArrayIxEC2ERKS0_RK10dim_vectorii@Base 3.4.3
 _ZN5ArrayIxEC2Ei@Base 3.4.3
 _ZN5ArrayIxEC2EiRKx@Base 3.4.3
 _ZN5ArrayIxEC2Ev@Base 3.4.3
 _ZN5ArrayIxED1Ev@Base 3.4.3
 _ZN5ArrayIxED2Ev@Base 3.4.3
 _ZN5ArrayIxEaSERKS0_@Base 3.4.3
 _ZN5ArrayIxEclERKS_IiE@Base 3.4.3
 _ZN5ArrayIxEclEi@Base 3.4.3
 _ZN5ArrayIxEclEii@Base 3.4.3
 _ZN5ArrayIxEclEiii@Base 3.4.3
 _ZN5DAERTD0Ev@Base 3.4.3
 _ZN5DAERTD1Ev@Base 3.4.3
 _ZN5DAERTD2Ev@Base 3.4.3
 _ZN5DASPK12do_integrateERK12ColumnVector@Base 3.4.3
 _ZN5DASPK12do_integrateERK12ColumnVectorS2_@Base 3.4.3
 _ZN5DASPK12do_integrateEd@Base 3.4.3
 _ZN5DASPK9integrateERK12ColumnVectorR6Matrix@Base 3.4.3
 _ZN5DASPK9integrateERK12ColumnVectorR6MatrixS2_@Base 3.4.3
 _ZN5DASPKD0Ev@Base 3.4.3
 _ZN5DASPKD1Ev@Base 3.4.3
 _ZN5DASPKD2Ev@Base 3.4.3
 _ZN5DASRT9integrateERK12ColumnVector@Base 3.4.3
 _ZN5DASRT9integrateERK12ColumnVectorS2_@Base 3.4.3
 _ZN5DASRT9integrateEd@Base 3.4.3
 _ZN5DASRTD0Ev@Base 3.4.3
 _ZN5DASRTD1Ev@Base 3.4.3
 _ZN5DASRTD2Ev@Base 3.4.3
 _ZN5DASSL12do_integrateERK12ColumnVector@Base 3.4.3
 _ZN5DASSL12do_integrateERK12ColumnVectorS2_@Base 3.4.3
 _ZN5DASSL12do_integrateEd@Base 3.4.3
 _ZN5DASSL9integrateERK12ColumnVectorR6Matrix@Base 3.4.3
 _ZN5DASSL9integrateERK12ColumnVectorR6MatrixS2_@Base 3.4.3
 _ZN5DASSLD0Ev@Base 3.4.3
 _ZN5DASSLD1Ev@Base 3.4.3
 _ZN5DASSLD2Ev@Base 3.4.3
 _ZN5LSODE12do_integrateERK12ColumnVector@Base 3.4.3
 _ZN5LSODE12do_integrateERK12ColumnVectorS2_@Base 3.4.3
 _ZN5LSODE12do_integrateEd@Base 3.4.3
 _ZN5LSODED0Ev@Base 3.4.3
 _ZN5LSODED1Ev@Base 3.4.3
 _ZN5LSODED2Ev@Base 3.4.3
 _ZN5Range13sort_internalER5ArrayIiEb@Base 3.4.3
 _ZN5Range13sort_internalEb@Base 3.4.3
 _ZN5RangeC1Eddi@Base 3.4.3
 _ZN5RangeC2Eddi@Base 3.4.3
 _ZN5SCHUR4initERK6MatrixRKSsb@Base 3.4.3
 _ZN5SCHURC1ERK6MatrixS2_@Base 3.4.3
 _ZN5SCHURC2ERK6MatrixS2_@Base 3.4.3
 _ZN6MArrayI10octave_intIaEE10changesignEv@Base 3.4.3
 _ZN6MArrayI10octave_intIaEE10idx_add_ndERK10idx_vectorRKS2_i@Base 3.4.3
 _ZN6MArrayI10octave_intIaEE7idx_addERK10idx_vectorRKS2_@Base 3.4.3
 _ZN6MArrayI10octave_intIaEE7idx_addERK10idx_vectorS1_@Base 3.4.3
 _ZN6MArrayI10octave_intIaEE7idx_maxERK10idx_vectorRKS2_@Base 3.4.3
 _ZN6MArrayI10octave_intIaEE7idx_minERK10idx_vectorRKS2_@Base 3.4.3
 _ZN6MArrayI10octave_intIaEEC1ERK10dim_vector@Base 3.4.3
 _ZN6MArrayI10octave_intIaEEC1ERK10dim_vectorRKS1_@Base 3.4.3
 _ZN6MArrayI10octave_intIaEEC1ERKS2_@Base 3.4.3
 _ZN6MArrayI10octave_intIaEEC1Ei@Base 3.4.3
 _ZN6MArrayI10octave_intIaEEC1EiRKS1_@Base 3.4.3
 _ZN6MArrayI10octave_intIaEEC1Ev@Base 3.4.3
 _ZN6MArrayI10octave_intIaEEC2ERK10dim_vector@Base 3.4.3
 _ZN6MArrayI10octave_intIaEEC2ERK10dim_vectorRKS1_@Base 3.4.3
 _ZN6MArrayI10octave_intIaEEC2ERKS2_@Base 3.4.3
 _ZN6MArrayI10octave_intIaEEC2Ei@Base 3.4.3
 _ZN6MArrayI10octave_intIaEEC2EiRKS1_@Base 3.4.3
 _ZN6MArrayI10octave_intIaEEC2Ev@Base 3.4.3
 _ZN6MArrayI10octave_intIaEED1Ev@Base 3.4.3
 _ZN6MArrayI10octave_intIaEED2Ev@Base 3.4.3
 _ZN6MArrayI10octave_intIaEEaSERKS2_@Base 3.4.3
 _ZN6MArrayI10octave_intIhEE10changesignEv@Base 3.4.3
 _ZN6MArrayI10octave_intIhEE10idx_add_ndERK10idx_vectorRKS2_i@Base 3.4.3
 _ZN6MArrayI10octave_intIhEE7idx_addERK10idx_vectorRKS2_@Base 3.4.3
 _ZN6MArrayI10octave_intIhEE7idx_addERK10idx_vectorS1_@Base 3.4.3
 _ZN6MArrayI10octave_intIhEE7idx_maxERK10idx_vectorRKS2_@Base 3.4.3
 _ZN6MArrayI10octave_intIhEE7idx_minERK10idx_vectorRKS2_@Base 3.4.3
 _ZN6MArrayI10octave_intIhEEC1ERK10dim_vector@Base 3.4.3
 _ZN6MArrayI10octave_intIhEEC1ERK10dim_vectorRKS1_@Base 3.4.3
 _ZN6MArrayI10octave_intIhEEC1ERKS2_@Base 3.4.3
 _ZN6MArrayI10octave_intIhEEC1Ei@Base 3.4.3
 _ZN6MArrayI10octave_intIhEEC1EiRKS1_@Base 3.4.3
 _ZN6MArrayI10octave_intIhEEC1Ev@Base 3.4.3
 _ZN6MArrayI10octave_intIhEEC2ERK10dim_vector@Base 3.4.3
 _ZN6MArrayI10octave_intIhEEC2ERK10dim_vectorRKS1_@Base 3.4.3
 _ZN6MArrayI10octave_intIhEEC2ERKS2_@Base 3.4.3
 _ZN6MArrayI10octave_intIhEEC2Ei@Base 3.4.3
 _ZN6MArrayI10octave_intIhEEC2EiRKS1_@Base 3.4.3
 _ZN6MArrayI10octave_intIhEEC2Ev@Base 3.4.3
 _ZN6MArrayI10octave_intIhEED1Ev@Base 3.4.3
 _ZN6MArrayI10octave_intIhEED2Ev@Base 3.4.3
 _ZN6MArrayI10octave_intIhEEaSERKS2_@Base 3.4.3
 _ZN6MArrayI10octave_intIiEE10changesignEv@Base 3.4.3
 _ZN6MArrayI10octave_intIiEE10idx_add_ndERK10idx_vectorRKS2_i@Base 3.4.3
 _ZN6MArrayI10octave_intIiEE7idx_addERK10idx_vectorRKS2_@Base 3.4.3
 _ZN6MArrayI10octave_intIiEE7idx_addERK10idx_vectorS1_@Base 3.4.3
 _ZN6MArrayI10octave_intIiEE7idx_maxERK10idx_vectorRKS2_@Base 3.4.3
 _ZN6MArrayI10octave_intIiEE7idx_minERK10idx_vectorRKS2_@Base 3.4.3
 _ZN6MArrayI10octave_intIiEEC1ERK10dim_vector@Base 3.4.3
 _ZN6MArrayI10octave_intIiEEC1ERK10dim_vectorRKS1_@Base 3.4.3
 _ZN6MArrayI10octave_intIiEEC1ERKS2_@Base 3.4.3
 _ZN6MArrayI10octave_intIiEEC1Ei@Base 3.4.3
 _ZN6MArrayI10octave_intIiEEC1EiRKS1_@Base 3.4.3
 _ZN6MArrayI10octave_intIiEEC1Ev@Base 3.4.3
 _ZN6MArrayI10octave_intIiEEC2ERK10dim_vector@Base 3.4.3
 _ZN6MArrayI10octave_intIiEEC2ERK10dim_vectorRKS1_@Base 3.4.3
 _ZN6MArrayI10octave_intIiEEC2ERKS2_@Base 3.4.3
 _ZN6MArrayI10octave_intIiEEC2Ei@Base 3.4.3
 _ZN6MArrayI10octave_intIiEEC2EiRKS1_@Base 3.4.3
 _ZN6MArrayI10octave_intIiEEC2Ev@Base 3.4.3
 _ZN6MArrayI10octave_intIiEED1Ev@Base 3.4.3
 _ZN6MArrayI10octave_intIiEED2Ev@Base 3.4.3
 _ZN6MArrayI10octave_intIiEEaSERKS2_@Base 3.4.3
 _ZN6MArrayI10octave_intIjEE10changesignEv@Base 3.4.3
 _ZN6MArrayI10octave_intIjEE10idx_add_ndERK10idx_vectorRKS2_i@Base 3.4.3
 _ZN6MArrayI10octave_intIjEE7idx_addERK10idx_vectorRKS2_@Base 3.4.3
 _ZN6MArrayI10octave_intIjEE7idx_addERK10idx_vectorS1_@Base 3.4.3
 _ZN6MArrayI10octave_intIjEE7idx_maxERK10idx_vectorRKS2_@Base 3.4.3
 _ZN6MArrayI10octave_intIjEE7idx_minERK10idx_vectorRKS2_@Base 3.4.3
 _ZN6MArrayI10octave_intIjEEC1ERK10dim_vector@Base 3.4.3
 _ZN6MArrayI10octave_intIjEEC1ERK10dim_vectorRKS1_@Base 3.4.3
 _ZN6MArrayI10octave_intIjEEC1ERKS2_@Base 3.4.3
 _ZN6MArrayI10octave_intIjEEC1Ei@Base 3.4.3
 _ZN6MArrayI10octave_intIjEEC1EiRKS1_@Base 3.4.3
 _ZN6MArrayI10octave_intIjEEC1Ev@Base 3.4.3
 _ZN6MArrayI10octave_intIjEEC2ERK10dim_vector@Base 3.4.3
 _ZN6MArrayI10octave_intIjEEC2ERK10dim_vectorRKS1_@Base 3.4.3
 _ZN6MArrayI10octave_intIjEEC2ERKS2_@Base 3.4.3
 _ZN6MArrayI10octave_intIjEEC2Ei@Base 3.4.3
 _ZN6MArrayI10octave_intIjEEC2EiRKS1_@Base 3.4.3
 _ZN6MArrayI10octave_intIjEEC2Ev@Base 3.4.3
 _ZN6MArrayI10octave_intIjEED1Ev@Base 3.4.3
 _ZN6MArrayI10octave_intIjEED2Ev@Base 3.4.3
 _ZN6MArrayI10octave_intIjEEaSERKS2_@Base 3.4.3
 _ZN6MArrayI10octave_intIsEE10changesignEv@Base 3.4.3
 _ZN6MArrayI10octave_intIsEE10idx_add_ndERK10idx_vectorRKS2_i@Base 3.4.3
 _ZN6MArrayI10octave_intIsEE7idx_addERK10idx_vectorRKS2_@Base 3.4.3
 _ZN6MArrayI10octave_intIsEE7idx_addERK10idx_vectorS1_@Base 3.4.3
 _ZN6MArrayI10octave_intIsEE7idx_maxERK10idx_vectorRKS2_@Base 3.4.3
 _ZN6MArrayI10octave_intIsEE7idx_minERK10idx_vectorRKS2_@Base 3.4.3
 _ZN6MArrayI10octave_intIsEEC1ERK10dim_vector@Base 3.4.3
 _ZN6MArrayI10octave_intIsEEC1ERK10dim_vectorRKS1_@Base 3.4.3
 _ZN6MArrayI10octave_intIsEEC1ERKS2_@Base 3.4.3
 _ZN6MArrayI10octave_intIsEEC1Ei@Base 3.4.3
 _ZN6MArrayI10octave_intIsEEC1EiRKS1_@Base 3.4.3
 _ZN6MArrayI10octave_intIsEEC1Ev@Base 3.4.3
 _ZN6MArrayI10octave_intIsEEC2ERK10dim_vector@Base 3.4.3
 _ZN6MArrayI10octave_intIsEEC2ERK10dim_vectorRKS1_@Base 3.4.3
 _ZN6MArrayI10octave_intIsEEC2ERKS2_@Base 3.4.3
 _ZN6MArrayI10octave_intIsEEC2Ei@Base 3.4.3
 _ZN6MArrayI10octave_intIsEEC2EiRKS1_@Base 3.4.3
 _ZN6MArrayI10octave_intIsEEC2Ev@Base 3.4.3
 _ZN6MArrayI10octave_intIsEED1Ev@Base 3.4.3
 _ZN6MArrayI10octave_intIsEED2Ev@Base 3.4.3
 _ZN6MArrayI10octave_intIsEEaSERKS2_@Base 3.4.3
 _ZN6MArrayI10octave_intItEE10changesignEv@Base 3.4.3
 _ZN6MArrayI10octave_intItEE10idx_add_ndERK10idx_vectorRKS2_i@Base 3.4.3
 _ZN6MArrayI10octave_intItEE7idx_addERK10idx_vectorRKS2_@Base 3.4.3
 _ZN6MArrayI10octave_intItEE7idx_addERK10idx_vectorS1_@Base 3.4.3
 _ZN6MArrayI10octave_intItEE7idx_maxERK10idx_vectorRKS2_@Base 3.4.3
 _ZN6MArrayI10octave_intItEE7idx_minERK10idx_vectorRKS2_@Base 3.4.3
 _ZN6MArrayI10octave_intItEEC1ERK10dim_vector@Base 3.4.3
 _ZN6MArrayI10octave_intItEEC1ERK10dim_vectorRKS1_@Base 3.4.3
 _ZN6MArrayI10octave_intItEEC1ERKS2_@Base 3.4.3
 _ZN6MArrayI10octave_intItEEC1Ei@Base 3.4.3
 _ZN6MArrayI10octave_intItEEC1EiRKS1_@Base 3.4.3
 _ZN6MArrayI10octave_intItEEC1Ev@Base 3.4.3
 _ZN6MArrayI10octave_intItEEC2ERK10dim_vector@Base 3.4.3
 _ZN6MArrayI10octave_intItEEC2ERK10dim_vectorRKS1_@Base 3.4.3
 _ZN6MArrayI10octave_intItEEC2ERKS2_@Base 3.4.3
 _ZN6MArrayI10octave_intItEEC2Ei@Base 3.4.3
 _ZN6MArrayI10octave_intItEEC2EiRKS1_@Base 3.4.3
 _ZN6MArrayI10octave_intItEEC2Ev@Base 3.4.3
 _ZN6MArrayI10octave_intItEED1Ev@Base 3.4.3
 _ZN6MArrayI10octave_intItEED2Ev@Base 3.4.3
 _ZN6MArrayI10octave_intItEEaSERKS2_@Base 3.4.3
 _ZN6MArrayISt7complexIdEE10changesignEv@Base 3.4.3
 _ZN6MArrayISt7complexIdEE10idx_add_ndERK10idx_vectorRKS2_i@Base 3.4.3
 _ZN6MArrayISt7complexIdEE7idx_addERK10idx_vectorRKS2_@Base 3.4.3
 _ZN6MArrayISt7complexIdEE7idx_addERK10idx_vectorS1_@Base 3.4.3
 _ZN6MArrayISt7complexIdEE7idx_maxERK10idx_vectorRKS2_@Base 3.4.3
 _ZN6MArrayISt7complexIdEE7idx_minERK10idx_vectorRKS2_@Base 3.4.3
 _ZN6MArrayISt7complexIdEEC1ERK10dim_vector@Base 3.4.3
 _ZN6MArrayISt7complexIdEEC1ERK10dim_vectorRKS1_@Base 3.4.3
 _ZN6MArrayISt7complexIdEEC1ERKS2_@Base 3.4.3
 _ZN6MArrayISt7complexIdEEC1Ei@Base 3.4.3
 _ZN6MArrayISt7complexIdEEC1EiRKS1_@Base 3.4.3
 _ZN6MArrayISt7complexIdEEC1Ev@Base 3.4.3
 _ZN6MArrayISt7complexIdEEC2ERK10dim_vector@Base 3.4.3
 _ZN6MArrayISt7complexIdEEC2ERK10dim_vectorRKS1_@Base 3.4.3
 _ZN6MArrayISt7complexIdEEC2ERKS2_@Base 3.4.3
 _ZN6MArrayISt7complexIdEEC2Ei@Base 3.4.3
 _ZN6MArrayISt7complexIdEEC2EiRKS1_@Base 3.4.3
 _ZN6MArrayISt7complexIdEEC2Ev@Base 3.4.3
 _ZN6MArrayISt7complexIdEED1Ev@Base 3.4.3
 _ZN6MArrayISt7complexIdEED2Ev@Base 3.4.3
 _ZN6MArrayISt7complexIdEEaSERKS2_@Base 3.4.3
 _ZN6MArrayISt7complexIfEE10changesignEv@Base 3.4.3
 _ZN6MArrayISt7complexIfEE10idx_add_ndERK10idx_vectorRKS2_i@Base 3.4.3
 _ZN6MArrayISt7complexIfEE7idx_addERK10idx_vectorRKS2_@Base 3.4.3
 _ZN6MArrayISt7complexIfEE7idx_addERK10idx_vectorS1_@Base 3.4.3
 _ZN6MArrayISt7complexIfEE7idx_maxERK10idx_vectorRKS2_@Base 3.4.3
 _ZN6MArrayISt7complexIfEE7idx_minERK10idx_vectorRKS2_@Base 3.4.3
 _ZN6MArrayISt7complexIfEEC1ERK10dim_vector@Base 3.4.3
 _ZN6MArrayISt7complexIfEEC1ERK10dim_vectorRKS1_@Base 3.4.3
 _ZN6MArrayISt7complexIfEEC1ERKS2_@Base 3.4.3
 _ZN6MArrayISt7complexIfEEC1Ei@Base 3.4.3
 _ZN6MArrayISt7complexIfEEC1EiRKS1_@Base 3.4.3
 _ZN6MArrayISt7complexIfEEC1Ev@Base 3.4.3
 _ZN6MArrayISt7complexIfEEC2ERK10dim_vector@Base 3.4.3
 _ZN6MArrayISt7complexIfEEC2ERK10dim_vectorRKS1_@Base 3.4.3
